
stm32f401ccu6_usb_virtual_com_port.elf:     file format elf32-littlearm

Sections:
Idx Name          Size      VMA       LMA       File off  Algn
  0 .isr_vector   00000194  08000000  08000000  00010000  2**0
                  CONTENTS, ALLOC, LOAD, READONLY, DATA
  1 .text         00006228  08000198  08000198  00010198  2**3
                  CONTENTS, ALLOC, LOAD, READONLY, CODE
  2 .rodata       00000164  080063c0  080063c0  000163c0  2**2
                  CONTENTS, ALLOC, LOAD, READONLY, DATA
  3 .ARM.extab    00000000  08006524  08006524  0002018c  2**0
                  CONTENTS
  4 .ARM          00000000  08006524  08006524  0002018c  2**0
                  CONTENTS
  5 .preinit_array 00000000  08006524  08006524  0002018c  2**0
                  CONTENTS, ALLOC, LOAD, DATA
  6 .init_array   00000004  08006524  08006524  00016524  2**2
                  CONTENTS, ALLOC, LOAD, DATA
  7 .fini_array   00000004  08006528  08006528  00016528  2**2
                  CONTENTS, ALLOC, LOAD, DATA
  8 .data         0000018c  20000000  0800652c  00020000  2**2
                  CONTENTS, ALLOC, LOAD, DATA
  9 .bss          0000991c  20000190  080066b8  00020190  2**3
                  ALLOC
 10 ._user_heap_stack 00000604  20009aac  080066b8  00029aac  2**0
                  ALLOC
 11 .ARM.attributes 00000030  00000000  00000000  0002018c  2**0
                  CONTENTS, READONLY
 12 .comment      00000043  00000000  00000000  000201bc  2**0
                  CONTENTS, READONLY
 13 .debug_frame  000000bc  00000000  00000000  00020200  2**2
                  CONTENTS, READONLY, DEBUGGING, OCTETS

Disassembly of section .text:

08000198 <__do_global_dtors_aux>:
 8000198:	b510      	push	{r4, lr}
 800019a:	4c05      	ldr	r4, [pc, #20]	; (80001b0 <__do_global_dtors_aux+0x18>)
 800019c:	7823      	ldrb	r3, [r4, #0]
 800019e:	b933      	cbnz	r3, 80001ae <__do_global_dtors_aux+0x16>
 80001a0:	4b04      	ldr	r3, [pc, #16]	; (80001b4 <__do_global_dtors_aux+0x1c>)
 80001a2:	b113      	cbz	r3, 80001aa <__do_global_dtors_aux+0x12>
 80001a4:	4804      	ldr	r0, [pc, #16]	; (80001b8 <__do_global_dtors_aux+0x20>)
 80001a6:	f3af 8000 	nop.w
 80001aa:	2301      	movs	r3, #1
 80001ac:	7023      	strb	r3, [r4, #0]
 80001ae:	bd10      	pop	{r4, pc}
 80001b0:	20000190 	.word	0x20000190
 80001b4:	00000000 	.word	0x00000000
 80001b8:	080063a8 	.word	0x080063a8

080001bc <frame_dummy>:
 80001bc:	b508      	push	{r3, lr}
 80001be:	4b03      	ldr	r3, [pc, #12]	; (80001cc <frame_dummy+0x10>)
 80001c0:	b11b      	cbz	r3, 80001ca <frame_dummy+0xe>
 80001c2:	4903      	ldr	r1, [pc, #12]	; (80001d0 <frame_dummy+0x14>)
 80001c4:	4803      	ldr	r0, [pc, #12]	; (80001d4 <frame_dummy+0x18>)
 80001c6:	f3af 8000 	nop.w
 80001ca:	bd08      	pop	{r3, pc}
 80001cc:	00000000 	.word	0x00000000
 80001d0:	20000194 	.word	0x20000194
 80001d4:	080063a8 	.word	0x080063a8

080001d8 <strlen>:
 80001d8:	4603      	mov	r3, r0
 80001da:	f813 2b01 	ldrb.w	r2, [r3], #1
 80001de:	2a00      	cmp	r2, #0
 80001e0:	d1fb      	bne.n	80001da <strlen+0x2>
 80001e2:	1a18      	subs	r0, r3, r0
 80001e4:	3801      	subs	r0, #1
 80001e6:	4770      	bx	lr

080001e8 <SystemClock_Config>:
 80001e8:	4a31      	ldr	r2, [pc, #196]	; (80002b0 <SystemClock_Config+0xc8>)
 80001ea:	6813      	ldr	r3, [r2, #0]
 80001ec:	f023 0307 	bic.w	r3, r3, #7
 80001f0:	f043 0302 	orr.w	r3, r3, #2
 80001f4:	b510      	push	{r4, lr}
 80001f6:	6013      	str	r3, [r2, #0]
 80001f8:	6813      	ldr	r3, [r2, #0]
 80001fa:	f003 0307 	and.w	r3, r3, #7
 80001fe:	2b02      	cmp	r3, #2
 8000200:	d1fa      	bne.n	80001f8 <SystemClock_Config+0x10>
 8000202:	492c      	ldr	r1, [pc, #176]	; (80002b4 <SystemClock_Config+0xcc>)
 8000204:	4b2c      	ldr	r3, [pc, #176]	; (80002b8 <SystemClock_Config+0xd0>)
 8000206:	680a      	ldr	r2, [r1, #0]
 8000208:	f422 4240 	bic.w	r2, r2, #49152	; 0xc000
 800020c:	f442 4200 	orr.w	r2, r2, #32768	; 0x8000
 8000210:	600a      	str	r2, [r1, #0]
 8000212:	681a      	ldr	r2, [r3, #0]
 8000214:	f442 3280 	orr.w	r2, r2, #65536	; 0x10000
 8000218:	601a      	str	r2, [r3, #0]
 800021a:	681a      	ldr	r2, [r3, #0]
 800021c:	0390      	lsls	r0, r2, #14
 800021e:	d5fc      	bpl.n	800021a <SystemClock_Config+0x32>
 8000220:	6858      	ldr	r0, [r3, #4]
 8000222:	4926      	ldr	r1, [pc, #152]	; (80002bc <SystemClock_Config+0xd4>)
 8000224:	4a26      	ldr	r2, [pc, #152]	; (80002c0 <SystemClock_Config+0xd8>)
 8000226:	4001      	ands	r1, r0
 8000228:	430a      	orrs	r2, r1
 800022a:	605a      	str	r2, [r3, #4]
 800022c:	685a      	ldr	r2, [r3, #4]
 800022e:	4925      	ldr	r1, [pc, #148]	; (80002c4 <SystemClock_Config+0xdc>)
 8000230:	f422 3240 	bic.w	r2, r2, #196608	; 0x30000
 8000234:	f442 3280 	orr.w	r2, r2, #65536	; 0x10000
 8000238:	605a      	str	r2, [r3, #4]
 800023a:	6858      	ldr	r0, [r3, #4]
 800023c:	4a22      	ldr	r2, [pc, #136]	; (80002c8 <SystemClock_Config+0xe0>)
 800023e:	4001      	ands	r1, r0
 8000240:	430a      	orrs	r2, r1
 8000242:	605a      	str	r2, [r3, #4]
 8000244:	6819      	ldr	r1, [r3, #0]
 8000246:	4a1c      	ldr	r2, [pc, #112]	; (80002b8 <SystemClock_Config+0xd0>)
 8000248:	f041 7180 	orr.w	r1, r1, #16777216	; 0x1000000
 800024c:	6019      	str	r1, [r3, #0]
 800024e:	6813      	ldr	r3, [r2, #0]
 8000250:	0199      	lsls	r1, r3, #6
 8000252:	d5fc      	bpl.n	800024e <SystemClock_Config+0x66>
 8000254:	4a17      	ldr	r2, [pc, #92]	; (80002b4 <SystemClock_Config+0xcc>)
 8000256:	6853      	ldr	r3, [r2, #4]
 8000258:	045b      	lsls	r3, r3, #17
 800025a:	d5fc      	bpl.n	8000256 <SystemClock_Config+0x6e>
 800025c:	4c16      	ldr	r4, [pc, #88]	; (80002b8 <SystemClock_Config+0xd0>)
 800025e:	68a3      	ldr	r3, [r4, #8]
 8000260:	f023 03f0 	bic.w	r3, r3, #240	; 0xf0
 8000264:	60a3      	str	r3, [r4, #8]
 8000266:	68a3      	ldr	r3, [r4, #8]
 8000268:	f423 53e0 	bic.w	r3, r3, #7168	; 0x1c00
 800026c:	f443 5380 	orr.w	r3, r3, #4096	; 0x1000
 8000270:	60a3      	str	r3, [r4, #8]
 8000272:	68a3      	ldr	r3, [r4, #8]
 8000274:	f423 4360 	bic.w	r3, r3, #57344	; 0xe000
 8000278:	60a3      	str	r3, [r4, #8]
 800027a:	68a3      	ldr	r3, [r4, #8]
 800027c:	f023 0303 	bic.w	r3, r3, #3
 8000280:	f043 0302 	orr.w	r3, r3, #2
 8000284:	60a3      	str	r3, [r4, #8]
 8000286:	68a3      	ldr	r3, [r4, #8]
 8000288:	f003 030c 	and.w	r3, r3, #12
 800028c:	2b08      	cmp	r3, #8
 800028e:	d1fa      	bne.n	8000286 <SystemClock_Config+0x9e>
 8000290:	480e      	ldr	r0, [pc, #56]	; (80002cc <SystemClock_Config+0xe4>)
 8000292:	f003 f8e7 	bl	8003464 <LL_SetSystemCoreClock>
 8000296:	200f      	movs	r0, #15
 8000298:	f000 fed0 	bl	800103c <HAL_InitTick>
 800029c:	b108      	cbz	r0, 80002a2 <SystemClock_Config+0xba>
 800029e:	b672      	cpsid	i
 80002a0:	e7fe      	b.n	80002a0 <SystemClock_Config+0xb8>
 80002a2:	f8d4 308c 	ldr.w	r3, [r4, #140]	; 0x8c
 80002a6:	f023 7380 	bic.w	r3, r3, #16777216	; 0x1000000
 80002aa:	f8c4 308c 	str.w	r3, [r4, #140]	; 0x8c
 80002ae:	bd10      	pop	{r4, pc}
 80002b0:	40023c00 	.word	0x40023c00
 80002b4:	40007000 	.word	0x40007000
 80002b8:	40023800 	.word	0x40023800
 80002bc:	ffbf8000 	.word	0xffbf8000
 80002c0:	00405419 	.word	0x00405419
 80002c4:	f0bf8000 	.word	0xf0bf8000
 80002c8:	07405419 	.word	0x07405419
 80002cc:	0501bd00 	.word	0x0501bd00

080002d0 <main>:
 80002d0:	e92d 4ff0 	stmdb	sp!, {r4, r5, r6, r7, r8, r9, sl, fp, lr}
 80002d4:	b0e1      	sub	sp, #388	; 0x184
 80002d6:	f000 fed5 	bl	8001084 <HAL_Init>
 80002da:	f7ff ff85 	bl	80001e8 <SystemClock_Config>
 80002de:	4aba      	ldr	r2, [pc, #744]	; (80005c8 <main+0x2f8>)
 80002e0:	6813      	ldr	r3, [r2, #0]
 80002e2:	f023 0307 	bic.w	r3, r3, #7
 80002e6:	f043 0303 	orr.w	r3, r3, #3
 80002ea:	6013      	str	r3, [r2, #0]
 80002ec:	6813      	ldr	r3, [r2, #0]
 80002ee:	f003 0307 	and.w	r3, r3, #7
 80002f2:	2b03      	cmp	r3, #3
 80002f4:	d1fa      	bne.n	80002ec <main+0x1c>
 80002f6:	4ab5      	ldr	r2, [pc, #724]	; (80005cc <main+0x2fc>)
 80002f8:	6893      	ldr	r3, [r2, #8]
 80002fa:	f023 0303 	bic.w	r3, r3, #3
 80002fe:	f043 0301 	orr.w	r3, r3, #1
 8000302:	6093      	str	r3, [r2, #8]
 8000304:	6893      	ldr	r3, [r2, #8]
 8000306:	f003 030c 	and.w	r3, r3, #12
 800030a:	2b04      	cmp	r3, #4
 800030c:	d1fa      	bne.n	8000304 <main+0x34>
 800030e:	6813      	ldr	r3, [r2, #0]
 8000310:	49af      	ldr	r1, [pc, #700]	; (80005d0 <main+0x300>)
 8000312:	f023 7380 	bic.w	r3, r3, #16777216	; 0x1000000
 8000316:	6013      	str	r3, [r2, #0]
 8000318:	6850      	ldr	r0, [r2, #4]
 800031a:	4bae      	ldr	r3, [pc, #696]	; (80005d4 <main+0x304>)
 800031c:	4001      	ands	r1, r0
 800031e:	430b      	orrs	r3, r1
 8000320:	6053      	str	r3, [r2, #4]
 8000322:	6853      	ldr	r3, [r2, #4]
 8000324:	49ac      	ldr	r1, [pc, #688]	; (80005d8 <main+0x308>)
 8000326:	f423 3340 	bic.w	r3, r3, #196608	; 0x30000
 800032a:	f443 3380 	orr.w	r3, r3, #65536	; 0x10000
 800032e:	6053      	str	r3, [r2, #4]
 8000330:	6850      	ldr	r0, [r2, #4]
 8000332:	4baa      	ldr	r3, [pc, #680]	; (80005dc <main+0x30c>)
 8000334:	4001      	ands	r1, r0
 8000336:	430b      	orrs	r3, r1
 8000338:	6053      	str	r3, [r2, #4]
 800033a:	6813      	ldr	r3, [r2, #0]
 800033c:	49a3      	ldr	r1, [pc, #652]	; (80005cc <main+0x2fc>)
 800033e:	f043 7380 	orr.w	r3, r3, #16777216	; 0x1000000
 8000342:	6013      	str	r3, [r2, #0]
 8000344:	680b      	ldr	r3, [r1, #0]
 8000346:	019a      	lsls	r2, r3, #6
 8000348:	d5fc      	bpl.n	8000344 <main+0x74>
 800034a:	688b      	ldr	r3, [r1, #8]
 800034c:	4c9f      	ldr	r4, [pc, #636]	; (80005cc <main+0x2fc>)
 800034e:	f023 0303 	bic.w	r3, r3, #3
 8000352:	f043 0302 	orr.w	r3, r3, #2
 8000356:	608b      	str	r3, [r1, #8]
 8000358:	68a3      	ldr	r3, [r4, #8]
 800035a:	f003 030c 	and.w	r3, r3, #12
 800035e:	2b08      	cmp	r3, #8
 8000360:	d1fa      	bne.n	8000358 <main+0x88>
 8000362:	4a9f      	ldr	r2, [pc, #636]	; (80005e0 <main+0x310>)
 8000364:	499f      	ldr	r1, [pc, #636]	; (80005e4 <main+0x314>)
 8000366:	6011      	str	r1, [r2, #0]
 8000368:	f04f 23e0 	mov.w	r3, #3758153728	; 0xe000e000
 800036c:	4e9e      	ldr	r6, [pc, #632]	; (80005e8 <main+0x318>)
 800036e:	4a9f      	ldr	r2, [pc, #636]	; (80005ec <main+0x31c>)
 8000370:	615a      	str	r2, [r3, #20]
 8000372:	22f0      	movs	r2, #240	; 0xf0
 8000374:	f886 2023 	strb.w	r2, [r6, #35]	; 0x23
 8000378:	2500      	movs	r5, #0
 800037a:	2207      	movs	r2, #7
 800037c:	619d      	str	r5, [r3, #24]
 800037e:	611a      	str	r2, [r3, #16]
 8000380:	e9cd 5544 	strd	r5, r5, [sp, #272]	; 0x110
 8000384:	e9cd 5546 	strd	r5, r5, [sp, #280]	; 0x118
 8000388:	6b23      	ldr	r3, [r4, #48]	; 0x30
 800038a:	4f99      	ldr	r7, [pc, #612]	; (80005f0 <main+0x320>)
 800038c:	4899      	ldr	r0, [pc, #612]	; (80005f4 <main+0x324>)
 800038e:	f8df a260 	ldr.w	sl, [pc, #608]	; 80005f0 <main+0x320>
 8000392:	f043 0304 	orr.w	r3, r3, #4
 8000396:	6323      	str	r3, [r4, #48]	; 0x30
 8000398:	6b23      	ldr	r3, [r4, #48]	; 0x30
 800039a:	f003 0304 	and.w	r3, r3, #4
 800039e:	9315      	str	r3, [sp, #84]	; 0x54
 80003a0:	9b15      	ldr	r3, [sp, #84]	; 0x54
 80003a2:	6b23      	ldr	r3, [r4, #48]	; 0x30
 80003a4:	f043 0380 	orr.w	r3, r3, #128	; 0x80
 80003a8:	6323      	str	r3, [r4, #48]	; 0x30
 80003aa:	6b23      	ldr	r3, [r4, #48]	; 0x30
 80003ac:	f003 0380 	and.w	r3, r3, #128	; 0x80
 80003b0:	9316      	str	r3, [sp, #88]	; 0x58
 80003b2:	9b16      	ldr	r3, [sp, #88]	; 0x58
 80003b4:	6b23      	ldr	r3, [r4, #48]	; 0x30
 80003b6:	f043 0301 	orr.w	r3, r3, #1
 80003ba:	6323      	str	r3, [r4, #48]	; 0x30
 80003bc:	6b23      	ldr	r3, [r4, #48]	; 0x30
 80003be:	f003 0301 	and.w	r3, r3, #1
 80003c2:	9317      	str	r3, [sp, #92]	; 0x5c
 80003c4:	9b17      	ldr	r3, [sp, #92]	; 0x5c
 80003c6:	f04f 081c 	mov.w	r8, #28
 80003ca:	f44f 5300 	mov.w	r3, #8192	; 0x2000
 80003ce:	6183      	str	r3, [r0, #24]
 80003d0:	f44f 5200 	mov.w	r2, #8192	; 0x2000
 80003d4:	f8c7 8018 	str.w	r8, [r7, #24]
 80003d8:	2301      	movs	r3, #1
 80003da:	a942      	add	r1, sp, #264	; 0x108
 80003dc:	e9cd 2342 	strd	r2, r3, [sp, #264]	; 0x108
 80003e0:	f001 ffba 	bl	8002358 <LL_GPIO_Init>
 80003e4:	2301      	movs	r3, #1
 80003e6:	4638      	mov	r0, r7
 80003e8:	9343      	str	r3, [sp, #268]	; 0x10c
 80003ea:	9346      	str	r3, [sp, #280]	; 0x118
 80003ec:	a942      	add	r1, sp, #264	; 0x108
 80003ee:	2302      	movs	r3, #2
 80003f0:	9545      	str	r5, [sp, #276]	; 0x114
 80003f2:	f8cd 8108 	str.w	r8, [sp, #264]	; 0x108
 80003f6:	9344      	str	r3, [sp, #272]	; 0x110
 80003f8:	f001 ffae 	bl	8002358 <LL_GPIO_Init>
 80003fc:	6b23      	ldr	r3, [r4, #48]	; 0x30
 80003fe:	4f7e      	ldr	r7, [pc, #504]	; (80005f8 <main+0x328>)
 8000400:	f443 0380 	orr.w	r3, r3, #4194304	; 0x400000
 8000404:	6323      	str	r3, [r4, #48]	; 0x30
 8000406:	6b23      	ldr	r3, [r4, #48]	; 0x30
 8000408:	f403 0380 	and.w	r3, r3, #4194304	; 0x400000
 800040c:	9314      	str	r3, [sp, #80]	; 0x50
 800040e:	9b14      	ldr	r3, [sp, #80]	; 0x50
 8000410:	68f3      	ldr	r3, [r6, #12]
 8000412:	4e6e      	ldr	r6, [pc, #440]	; (80005cc <main+0x2fc>)
 8000414:	f3c3 2302 	ubfx	r3, r3, #8, #3
 8000418:	f1c3 0207 	rsb	r2, r3, #7
 800041c:	2a04      	cmp	r2, #4
 800041e:	f103 0104 	add.w	r1, r3, #4
 8000422:	bf28      	it	cs
 8000424:	2204      	movcs	r2, #4
 8000426:	2906      	cmp	r1, #6
 8000428:	bf88      	it	hi
 800042a:	1edd      	subhi	r5, r3, #3
 800042c:	f04f 33ff 	mov.w	r3, #4294967295
 8000430:	4093      	lsls	r3, r2
 8000432:	43db      	mvns	r3, r3
 8000434:	f003 0301 	and.w	r3, r3, #1
 8000438:	40ab      	lsls	r3, r5
 800043a:	4a70      	ldr	r2, [pc, #448]	; (80005fc <main+0x32c>)
 800043c:	011b      	lsls	r3, r3, #4
 800043e:	b2db      	uxtb	r3, r3
 8000440:	f04f 6100 	mov.w	r1, #134217728	; 0x8000000
 8000444:	2400      	movs	r4, #0
 8000446:	f882 333b 	strb.w	r3, [r2, #827]	; 0x33b
 800044a:	6051      	str	r1, [r2, #4]
 800044c:	f005 fc32 	bl	8005cb4 <MX_USB_DEVICE_Init>
 8000450:	2228      	movs	r2, #40	; 0x28
 8000452:	4621      	mov	r1, r4
 8000454:	a842      	add	r0, sp, #264	; 0x108
 8000456:	f005 ff6d 	bl	8006334 <memset>
 800045a:	942b      	str	r4, [sp, #172]	; 0xac
 800045c:	6c73      	ldr	r3, [r6, #68]	; 0x44
 800045e:	f443 5380 	orr.w	r3, r3, #4096	; 0x1000
 8000462:	6473      	str	r3, [r6, #68]	; 0x44
 8000464:	6c73      	ldr	r3, [r6, #68]	; 0x44
 8000466:	f403 5380 	and.w	r3, r3, #4096	; 0x1000
 800046a:	9312      	str	r3, [sp, #72]	; 0x48
 800046c:	9b12      	ldr	r3, [sp, #72]	; 0x48
 800046e:	6b33      	ldr	r3, [r6, #48]	; 0x30
 8000470:	f043 0301 	orr.w	r3, r3, #1
 8000474:	6333      	str	r3, [r6, #48]	; 0x30
 8000476:	6b33      	ldr	r3, [r6, #48]	; 0x30
 8000478:	f003 0301 	and.w	r3, r3, #1
 800047c:	9313      	str	r3, [sp, #76]	; 0x4c
 800047e:	22a0      	movs	r2, #160	; 0xa0
 8000480:	9b13      	ldr	r3, [sp, #76]	; 0x4c
 8000482:	2302      	movs	r3, #2
 8000484:	e9cd 2328 	strd	r2, r3, [sp, #160]	; 0xa0
 8000488:	a928      	add	r1, sp, #160	; 0xa0
 800048a:	2303      	movs	r3, #3
 800048c:	f04f 0801 	mov.w	r8, #1
 8000490:	f04f 0905 	mov.w	r9, #5
 8000494:	4650      	mov	r0, sl
 8000496:	e9cd 892c 	strd	r8, r9, [sp, #176]	; 0xb0
 800049a:	932a      	str	r3, [sp, #168]	; 0xa8
 800049c:	f001 ff5c 	bl	8002358 <LL_GPIO_Init>
 80004a0:	4957      	ldr	r1, [pc, #348]	; (8000600 <main+0x330>)
 80004a2:	4a58      	ldr	r2, [pc, #352]	; (8000604 <main+0x334>)
 80004a4:	6d88      	ldr	r0, [r1, #88]	; 0x58
 80004a6:	f8df 9160 	ldr.w	r9, [pc, #352]	; 8000608 <main+0x338>
 80004aa:	f020 6060 	bic.w	r0, r0, #234881024	; 0xe000000
 80004ae:	f040 60c0 	orr.w	r0, r0, #100663296	; 0x6000000
 80004b2:	6588      	str	r0, [r1, #88]	; 0x58
 80004b4:	6d88      	ldr	r0, [r1, #88]	; 0x58
 80004b6:	f020 00c0 	bic.w	r0, r0, #192	; 0xc0
 80004ba:	f040 0040 	orr.w	r0, r0, #64	; 0x40
 80004be:	6588      	str	r0, [r1, #88]	; 0x58
 80004c0:	6d88      	ldr	r0, [r1, #88]	; 0x58
 80004c2:	f420 3040 	bic.w	r0, r0, #196608	; 0x30000
 80004c6:	6588      	str	r0, [r1, #88]	; 0x58
 80004c8:	6d88      	ldr	r0, [r1, #88]	; 0x58
 80004ca:	f420 7090 	bic.w	r0, r0, #288	; 0x120
 80004ce:	6588      	str	r0, [r1, #88]	; 0x58
 80004d0:	6d88      	ldr	r0, [r1, #88]	; 0x58
 80004d2:	f420 7000 	bic.w	r0, r0, #512	; 0x200
 80004d6:	6588      	str	r0, [r1, #88]	; 0x58
 80004d8:	6d88      	ldr	r0, [r1, #88]	; 0x58
 80004da:	f440 6080 	orr.w	r0, r0, #1024	; 0x400
 80004de:	6588      	str	r0, [r1, #88]	; 0x58
 80004e0:	6d88      	ldr	r0, [r1, #88]	; 0x58
 80004e2:	f420 50c0 	bic.w	r0, r0, #6144	; 0x1800
 80004e6:	f440 6000 	orr.w	r0, r0, #2048	; 0x800
 80004ea:	6588      	str	r0, [r1, #88]	; 0x58
 80004ec:	6d88      	ldr	r0, [r1, #88]	; 0x58
 80004ee:	f420 40c0 	bic.w	r0, r0, #24576	; 0x6000
 80004f2:	f440 5000 	orr.w	r0, r0, #8192	; 0x2000
 80004f6:	6588      	str	r0, [r1, #88]	; 0x58
 80004f8:	6ec8      	ldr	r0, [r1, #108]	; 0x6c
 80004fa:	f020 0004 	bic.w	r0, r0, #4
 80004fe:	ed9f 7b30 	vldr	d7, [pc, #192]	; 80005c0 <main+0x2f0>
 8000502:	66c8      	str	r0, [r1, #108]	; 0x6c
 8000504:	f44f 7382 	mov.w	r3, #260	; 0x104
 8000508:	f44f 6000 	mov.w	r0, #2048	; 0x800
 800050c:	e9cd 3043 	strd	r3, r0, [sp, #268]	; 0x10c
 8000510:	f44f 7000 	mov.w	r0, #512	; 0x200
 8000514:	f04f 0802 	mov.w	r8, #2
 8000518:	a942      	add	r1, sp, #264	; 0x108
 800051a:	9047      	str	r0, [sp, #284]	; 0x11c
 800051c:	4610      	mov	r0, r2
 800051e:	ed8d 7b4a 	vstr	d7, [sp, #296]	; 0x128
 8000522:	e9cd 4448 	strd	r4, r4, [sp, #288]	; 0x120
 8000526:	9442      	str	r4, [sp, #264]	; 0x108
 8000528:	9446      	str	r4, [sp, #280]	; 0x118
 800052a:	f8cd 8114 	str.w	r8, [sp, #276]	; 0x114
 800052e:	f001 ffb7 	bl	80024a0 <LL_SPI_Init>
 8000532:	4a34      	ldr	r2, [pc, #208]	; (8000604 <main+0x334>)
 8000534:	6851      	ldr	r1, [r2, #4]
 8000536:	f021 0110 	bic.w	r1, r1, #16
 800053a:	6051      	str	r1, [r2, #4]
 800053c:	a842      	add	r0, sp, #264	; 0x108
 800053e:	2220      	movs	r2, #32
 8000540:	4621      	mov	r1, r4
 8000542:	e9cd 441e 	strd	r4, r4, [sp, #120]	; 0x78
 8000546:	e9cd 4420 	strd	r4, r4, [sp, #128]	; 0x80
 800054a:	9422      	str	r4, [sp, #136]	; 0x88
 800054c:	f005 fef2 	bl	8006334 <memset>
 8000550:	e9cd 4428 	strd	r4, r4, [sp, #160]	; 0xa0
 8000554:	e9cd 442a 	strd	r4, r4, [sp, #168]	; 0xa8
 8000558:	e9cd 442c 	strd	r4, r4, [sp, #176]	; 0xb0
 800055c:	6c32      	ldr	r2, [r6, #64]	; 0x40
 800055e:	ea42 0208 	orr.w	r2, r2, r8
 8000562:	6432      	str	r2, [r6, #64]	; 0x40
 8000564:	6c32      	ldr	r2, [r6, #64]	; 0x40
 8000566:	ea02 0208 	and.w	r2, r2, r8
 800056a:	9210      	str	r2, [sp, #64]	; 0x40
 800056c:	ad1e      	add	r5, sp, #120	; 0x78
 800056e:	9a10      	ldr	r2, [sp, #64]	; 0x40
 8000570:	f240 32e7 	movw	r2, #999	; 0x3e7
 8000574:	4629      	mov	r1, r5
 8000576:	f8ad 2078 	strh.w	r2, [sp, #120]	; 0x78
 800057a:	4638      	mov	r0, r7
 800057c:	22d1      	movs	r2, #209	; 0xd1
 800057e:	9220      	str	r2, [sp, #128]	; 0x80
 8000580:	f001 ffc6 	bl	8002510 <LL_TIM_Init>
 8000584:	683a      	ldr	r2, [r7, #0]
 8000586:	f04f 4b80 	mov.w	fp, #1073741824	; 0x40000000
 800058a:	f022 0280 	bic.w	r2, r2, #128	; 0x80
 800058e:	603a      	str	r2, [r7, #0]
 8000590:	f8db 2418 	ldr.w	r2, [fp, #1048]	; 0x418
 8000594:	2060      	movs	r0, #96	; 0x60
 8000596:	f042 0208 	orr.w	r2, r2, #8
 800059a:	f8cb 2418 	str.w	r2, [fp, #1048]	; 0x418
 800059e:	2101      	movs	r1, #1
 80005a0:	aa42      	add	r2, sp, #264	; 0x108
 80005a2:	9042      	str	r0, [sp, #264]	; 0x108
 80005a4:	4638      	mov	r0, r7
 80005a6:	e9cd 4443 	strd	r4, r4, [sp, #268]	; 0x10c
 80005aa:	e9cd 4445 	strd	r4, r4, [sp, #276]	; 0x114
 80005ae:	f001 fffb 	bl	80025a8 <LL_TIM_OC_Init>
 80005b2:	f8db 2418 	ldr.w	r2, [fp, #1048]	; 0x418
 80005b6:	f022 0204 	bic.w	r2, r2, #4
 80005ba:	e027      	b.n	800060c <main+0x33c>
 80005bc:	f3af 8000 	nop.w
 80005c0:	00000000 	.word	0x00000000
 80005c4:	0000000a 	.word	0x0000000a
 80005c8:	40023c00 	.word	0x40023c00
 80005cc:	40023800 	.word	0x40023800
 80005d0:	ffbf8000 	.word	0xffbf8000
 80005d4:	00406c19 	.word	0x00406c19
 80005d8:	f0bf8000 	.word	0xf0bf8000
 80005dc:	09406c19 	.word	0x09406c19
 80005e0:	20000000 	.word	0x20000000
 80005e4:	066ff300 	.word	0x066ff300
 80005e8:	e000ed00 	.word	0xe000ed00
 80005ec:	0001a5df 	.word	0x0001a5df
 80005f0:	40020000 	.word	0x40020000
 80005f4:	40020800 	.word	0x40020800
 80005f8:	40000400 	.word	0x40000400
 80005fc:	e000e100 	.word	0xe000e100
 8000600:	40026400 	.word	0x40026400
 8000604:	40013000 	.word	0x40013000
 8000608:	200001b8 	.word	0x200001b8
 800060c:	f8cb 2418 	str.w	r2, [fp, #1048]	; 0x418
 8000610:	687a      	ldr	r2, [r7, #4]
 8000612:	f8df b1c8 	ldr.w	fp, [pc, #456]	; 80007dc <main+0x50c>
 8000616:	f022 0270 	bic.w	r2, r2, #112	; 0x70
 800061a:	607a      	str	r2, [r7, #4]
 800061c:	68ba      	ldr	r2, [r7, #8]
 800061e:	f022 0280 	bic.w	r2, r2, #128	; 0x80
 8000622:	60ba      	str	r2, [r7, #8]
 8000624:	6b32      	ldr	r2, [r6, #48]	; 0x30
 8000626:	f042 0201 	orr.w	r2, r2, #1
 800062a:	6332      	str	r2, [r6, #48]	; 0x30
 800062c:	6b32      	ldr	r2, [r6, #48]	; 0x30
 800062e:	f8cd 80a4 	str.w	r8, [sp, #164]	; 0xa4
 8000632:	f002 0201 	and.w	r2, r2, #1
 8000636:	9211      	str	r2, [sp, #68]	; 0x44
 8000638:	9a11      	ldr	r2, [sp, #68]	; 0x44
 800063a:	a928      	add	r1, sp, #160	; 0xa0
 800063c:	2240      	movs	r2, #64	; 0x40
 800063e:	4650      	mov	r0, sl
 8000640:	2600      	movs	r6, #0
 8000642:	2702      	movs	r7, #2
 8000644:	e9cd 672c 	strd	r6, r7, [sp, #176]	; 0xb0
 8000648:	9228      	str	r2, [sp, #160]	; 0xa0
 800064a:	e9cd 442a 	strd	r4, r4, [sp, #168]	; 0xa8
 800064e:	f001 fe83 	bl	8002358 <LL_GPIO_Init>
 8000652:	a160      	add	r1, pc, #384	; (adr r1, 80007d4 <main+0x504>)
 8000654:	e9d1 0100 	ldrd	r0, r1, [r1]
 8000658:	2303      	movs	r3, #3
 800065a:	2208      	movs	r2, #8
 800065c:	e9cd 3a20 	strd	r3, sl, [sp, #128]	; 0x80
 8000660:	f8ad 2088 	strh.w	r2, [sp, #136]	; 0x88
 8000664:	4b50      	ldr	r3, [pc, #320]	; (80007a8 <main+0x4d8>)
 8000666:	f8cd a08c 	str.w	sl, [sp, #140]	; 0x8c
 800066a:	2204      	movs	r2, #4
 800066c:	f8ad 2090 	strh.w	r2, [sp, #144]	; 0x90
 8000670:	2210      	movs	r2, #16
 8000672:	e9cd 011e 	strd	r0, r1, [sp, #120]	; 0x78
 8000676:	f8ad 2098 	strh.w	r2, [sp, #152]	; 0x98
 800067a:	cb0f      	ldmia	r3, {r0, r1, r2, r3}
 800067c:	ae1a      	add	r6, sp, #104	; 0x68
 800067e:	af0b      	add	r7, sp, #44	; 0x2c
 8000680:	e886 000f 	stmia.w	r6, {r0, r1, r2, r3}
 8000684:	f8cd a094 	str.w	sl, [sp, #148]	; 0x94
 8000688:	e887 000f 	stmia.w	r7, {r0, r1, r2, r3}
 800068c:	f8df a150 	ldr.w	sl, [pc, #336]	; 80007e0 <main+0x510>
 8000690:	4b46      	ldr	r3, [pc, #280]	; (80007ac <main+0x4dc>)
 8000692:	9306      	str	r3, [sp, #24]
 8000694:	f44f 7ea0 	mov.w	lr, #320	; 0x140
 8000698:	e9cd e401 	strd	lr, r4, [sp, #4]
 800069c:	e9cd 5809 	strd	r5, r8, [sp, #36]	; 0x24
 80006a0:	e9cd ab07 	strd	sl, fp, [sp, #28]
 80006a4:	e9cd 4403 	strd	r4, r4, [sp, #12]
 80006a8:	f04f 0cf0 	mov.w	ip, #240	; 0xf0
 80006ac:	4b40      	ldr	r3, [pc, #256]	; (80007b0 <main+0x4e0>)
 80006ae:	f8cd c000 	str.w	ip, [sp]
 80006b2:	9305      	str	r3, [sp, #20]
 80006b4:	4662      	mov	r2, ip
 80006b6:	4663      	mov	r3, ip
 80006b8:	a942      	add	r1, sp, #264	; 0x108
 80006ba:	f8d9 0000 	ldr.w	r0, [r9]
 80006be:	f000 f99d 	bl	80009fc <LCD_DisplayAdd>
 80006c2:	4605      	mov	r5, r0
 80006c4:	f8c9 0000 	str.w	r0, [r9]
 80006c8:	f000 fa84 	bl	8000bd4 <LCD_Init>
 80006cc:	4939      	ldr	r1, [pc, #228]	; (80007b4 <main+0x4e4>)
 80006ce:	4628      	mov	r0, r5
 80006d0:	f000 fad4 	bl	8000c7c <LCD_Fill>
 80006d4:	4b38      	ldr	r3, [pc, #224]	; (80007b8 <main+0x4e8>)
 80006d6:	e893 0003 	ldmia.w	r3, {r0, r1}
 80006da:	f88d 10a4 	strb.w	r1, [sp, #164]	; 0xa4
 80006de:	9028      	str	r0, [sp, #160]	; 0xa0
 80006e0:	220a      	movs	r2, #10
 80006e2:	a929      	add	r1, sp, #164	; 0xa4
 80006e4:	88a8      	ldrh	r0, [r5, #4]
 80006e6:	f005 fe23 	bl	8006330 <utoa>
 80006ea:	a828      	add	r0, sp, #160	; 0xa0
 80006ec:	f7ff fd74 	bl	80001d8 <strlen>
 80006f0:	4b32      	ldr	r3, [pc, #200]	; (80007bc <main+0x4ec>)
 80006f2:	aa28      	add	r2, sp, #160	; 0xa0
 80006f4:	881b      	ldrh	r3, [r3, #0]
 80006f6:	5213      	strh	r3, [r2, r0]
 80006f8:	1c41      	adds	r1, r0, #1
 80006fa:	ab28      	add	r3, sp, #160	; 0xa0
 80006fc:	4419      	add	r1, r3
 80006fe:	220a      	movs	r2, #10
 8000700:	88e8      	ldrh	r0, [r5, #6]
 8000702:	f005 fe15 	bl	8006330 <utoa>
 8000706:	a828      	add	r0, sp, #160	; 0xa0
 8000708:	f7ff fd66 	bl	80001d8 <strlen>
 800070c:	4a2c      	ldr	r2, [pc, #176]	; (80007c0 <main+0x4f0>)
 800070e:	4603      	mov	r3, r0
 8000710:	6810      	ldr	r0, [r2, #0]
 8000712:	aa28      	add	r2, sp, #160	; 0xa0
 8000714:	1cd9      	adds	r1, r3, #3
 8000716:	50d0      	str	r0, [r2, r3]
 8000718:	ab28      	add	r3, sp, #160	; 0xa0
 800071a:	220a      	movs	r2, #10
 800071c:	4419      	add	r1, r3
 800071e:	f642 60e0 	movw	r0, #12000	; 0x2ee0
 8000722:	f005 fe05 	bl	8006330 <utoa>
 8000726:	a828      	add	r0, sp, #160	; 0xa0
 8000728:	f7ff fd56 	bl	80001d8 <strlen>
 800072c:	4b25      	ldr	r3, [pc, #148]	; (80007c4 <main+0x4f4>)
 800072e:	aa28      	add	r2, sp, #160	; 0xa0
 8000730:	881b      	ldrh	r3, [r3, #0]
 8000732:	5213      	strh	r3, [r2, r0]
 8000734:	a828      	add	r0, sp, #160	; 0xa0
 8000736:	f7ff fd4f 	bl	80001d8 <strlen>
 800073a:	b281      	uxth	r1, r0
 800073c:	a828      	add	r0, sp, #160	; 0xa0
 800073e:	f005 fb5d 	bl	8005dfc <CDC_Transmit_FS>
 8000742:	2800      	cmp	r0, #0
 8000744:	d1f6      	bne.n	8000734 <main+0x464>
 8000746:	4c20      	ldr	r4, [pc, #128]	; (80007c8 <main+0x4f8>)
 8000748:	4f20      	ldr	r7, [pc, #128]	; (80007cc <main+0x4fc>)
 800074a:	f8df 9098 	ldr.w	r9, [pc, #152]	; 80007e4 <main+0x514>
 800074e:	f8df a098 	ldr.w	sl, [pc, #152]	; 80007e8 <main+0x518>
 8000752:	4680      	mov	r8, r0
 8000754:	ae18      	add	r6, sp, #96	; 0x60
 8000756:	f642 6be0 	movw	fp, #12000	; 0x2ee0
 800075a:	7823      	ldrb	r3, [r4, #0]
 800075c:	2b00      	cmp	r3, #0
 800075e:	d0fc      	beq.n	800075a <main+0x48a>
 8000760:	8839      	ldrh	r1, [r7, #0]
 8000762:	f8b9 2000 	ldrh.w	r2, [r9]
 8000766:	883b      	ldrh	r3, [r7, #0]
 8000768:	4819      	ldr	r0, [pc, #100]	; (80007d0 <main+0x500>)
 800076a:	ebab 0303 	sub.w	r3, fp, r3
 800076e:	fa10 f181 	uxtah	r1, r0, r1
 8000772:	b292      	uxth	r2, r2
 8000774:	b29b      	uxth	r3, r3
 8000776:	4650      	mov	r0, sl
 8000778:	803b      	strh	r3, [r7, #0]
 800077a:	6031      	str	r1, [r6, #0]
 800077c:	f884 8000 	strb.w	r8, [r4]
 8000780:	6072      	str	r2, [r6, #4]
 8000782:	f8a9 8000 	strh.w	r8, [r9]
 8000786:	f004 fd99 	bl	80052bc <USBD_CDC_ReceivePacket>
 800078a:	2201      	movs	r2, #1
 800078c:	88ab      	ldrh	r3, [r5, #4]
 800078e:	e9cd 6201 	strd	r6, r2, [sp, #4]
 8000792:	2200      	movs	r2, #0
 8000794:	88e9      	ldrh	r1, [r5, #6]
 8000796:	9100      	str	r1, [sp, #0]
 8000798:	4628      	mov	r0, r5
 800079a:	4611      	mov	r1, r2
 800079c:	f002 fea2 	bl	80034e4 <LCD_Load_JPG_chan>
 80007a0:	e7db      	b.n	800075a <main+0x48a>
 80007a2:	bf00      	nop
 80007a4:	f3af 8000 	nop.w
 80007a8:	080063c0 	.word	0x080063c0
 80007ac:	08000fe5 	.word	0x08000fe5
 80007b0:	08000fc5 	.word	0x08000fc5
 80007b4:	00319bb1 	.word	0x00319bb1
 80007b8:	080063d0 	.word	0x080063d0
 80007bc:	080063d8 	.word	0x080063d8
 80007c0:	080063dc 	.word	0x080063dc
 80007c4:	080063e0 	.word	0x080063e0
 80007c8:	200001b4 	.word	0x200001b4
 80007cc:	200001ac 	.word	0x200001ac
 80007d0:	200033c0 	.word	0x200033c0
 80007d4:	40013000 	.word	0x40013000
 80007d8:	40026400 	.word	0x40026400
 80007dc:	08001035 	.word	0x08001035
 80007e0:	0800102d 	.word	0x0800102d
 80007e4:	200001ae 	.word	0x200001ae
 80007e8:	200030a4 	.word	0x200030a4

080007ec <Error_Handler>:
 80007ec:	b672      	cpsid	i
 80007ee:	e7fe      	b.n	80007ee <Error_Handler+0x2>

080007f0 <HAL_MspInit>:
 80007f0:	b082      	sub	sp, #8
 80007f2:	4b0c      	ldr	r3, [pc, #48]	; (8000824 <HAL_MspInit+0x34>)
 80007f4:	2100      	movs	r1, #0
 80007f6:	9100      	str	r1, [sp, #0]
 80007f8:	6c5a      	ldr	r2, [r3, #68]	; 0x44
 80007fa:	f442 4280 	orr.w	r2, r2, #16384	; 0x4000
 80007fe:	645a      	str	r2, [r3, #68]	; 0x44
 8000800:	6c5a      	ldr	r2, [r3, #68]	; 0x44
 8000802:	f402 4280 	and.w	r2, r2, #16384	; 0x4000
 8000806:	9200      	str	r2, [sp, #0]
 8000808:	9a00      	ldr	r2, [sp, #0]
 800080a:	9101      	str	r1, [sp, #4]
 800080c:	6c1a      	ldr	r2, [r3, #64]	; 0x40
 800080e:	f042 5280 	orr.w	r2, r2, #268435456	; 0x10000000
 8000812:	641a      	str	r2, [r3, #64]	; 0x40
 8000814:	6c1b      	ldr	r3, [r3, #64]	; 0x40
 8000816:	f003 5380 	and.w	r3, r3, #268435456	; 0x10000000
 800081a:	9301      	str	r3, [sp, #4]
 800081c:	9b01      	ldr	r3, [sp, #4]
 800081e:	b002      	add	sp, #8
 8000820:	4770      	bx	lr
 8000822:	bf00      	nop
 8000824:	40023800 	.word	0x40023800

08000828 <NMI_Handler>:
 8000828:	e7fe      	b.n	8000828 <NMI_Handler>
 800082a:	bf00      	nop

0800082c <HardFault_Handler>:
 800082c:	e7fe      	b.n	800082c <HardFault_Handler>
 800082e:	bf00      	nop

08000830 <MemManage_Handler>:
 8000830:	e7fe      	b.n	8000830 <MemManage_Handler>
 8000832:	bf00      	nop

08000834 <BusFault_Handler>:
 8000834:	e7fe      	b.n	8000834 <BusFault_Handler>
 8000836:	bf00      	nop

08000838 <UsageFault_Handler>:
 8000838:	e7fe      	b.n	8000838 <UsageFault_Handler>
 800083a:	bf00      	nop

0800083c <SVC_Handler>:
 800083c:	4770      	bx	lr
 800083e:	bf00      	nop

08000840 <DebugMon_Handler>:
 8000840:	4770      	bx	lr
 8000842:	bf00      	nop

08000844 <PendSV_Handler>:
 8000844:	4770      	bx	lr
 8000846:	bf00      	nop

08000848 <SysTick_Handler>:
 8000848:	4a02      	ldr	r2, [pc, #8]	; (8000854 <SysTick_Handler+0xc>)
 800084a:	6813      	ldr	r3, [r2, #0]
 800084c:	3301      	adds	r3, #1
 800084e:	6013      	str	r3, [r2, #0]
 8000850:	f000 bc32 	b.w	80010b8 <HAL_IncTick>
 8000854:	200001b0 	.word	0x200001b0

08000858 <DMA2_Stream3_IRQHandler>:
 8000858:	4801      	ldr	r0, [pc, #4]	; (8000860 <DMA2_Stream3_IRQHandler+0x8>)
 800085a:	2103      	movs	r1, #3
 800085c:	f000 bb6a 	b.w	8000f34 <Display_TC_Callback>
 8000860:	40026400 	.word	0x40026400

08000864 <OTG_FS_IRQHandler>:
 8000864:	4801      	ldr	r0, [pc, #4]	; (800086c <OTG_FS_IRQHandler+0x8>)
 8000866:	f000 be65 	b.w	8001534 <HAL_PCD_IRQHandler>
 800086a:	bf00      	nop
 800086c:	20009380 	.word	0x20009380

08000870 <SystemInit>:
 8000870:	4a03      	ldr	r2, [pc, #12]	; (8000880 <SystemInit+0x10>)
 8000872:	f8d2 3088 	ldr.w	r3, [r2, #136]	; 0x88
 8000876:	f443 0370 	orr.w	r3, r3, #15728640	; 0xf00000
 800087a:	f8c2 3088 	str.w	r3, [r2, #136]	; 0x88
 800087e:	4770      	bx	lr
 8000880:	e000ed00 	.word	0xe000ed00

08000884 <Reset_Handler>:
 8000884:	f8df d034 	ldr.w	sp, [pc, #52]	; 80008bc <LoopFillZerobss+0x12>
 8000888:	480d      	ldr	r0, [pc, #52]	; (80008c0 <LoopFillZerobss+0x16>)
 800088a:	490e      	ldr	r1, [pc, #56]	; (80008c4 <LoopFillZerobss+0x1a>)
 800088c:	4a0e      	ldr	r2, [pc, #56]	; (80008c8 <LoopFillZerobss+0x1e>)
 800088e:	2300      	movs	r3, #0
 8000890:	e002      	b.n	8000898 <LoopCopyDataInit>

08000892 <CopyDataInit>:
 8000892:	58d4      	ldr	r4, [r2, r3]
 8000894:	50c4      	str	r4, [r0, r3]
 8000896:	3304      	adds	r3, #4

08000898 <LoopCopyDataInit>:
 8000898:	18c4      	adds	r4, r0, r3
 800089a:	428c      	cmp	r4, r1
 800089c:	d3f9      	bcc.n	8000892 <CopyDataInit>
 800089e:	4a0b      	ldr	r2, [pc, #44]	; (80008cc <LoopFillZerobss+0x22>)
 80008a0:	4c0b      	ldr	r4, [pc, #44]	; (80008d0 <LoopFillZerobss+0x26>)
 80008a2:	2300      	movs	r3, #0
 80008a4:	e001      	b.n	80008aa <LoopFillZerobss>

080008a6 <FillZerobss>:
 80008a6:	6013      	str	r3, [r2, #0]
 80008a8:	3204      	adds	r2, #4

080008aa <LoopFillZerobss>:
 80008aa:	42a2      	cmp	r2, r4
 80008ac:	d3fb      	bcc.n	80008a6 <FillZerobss>
 80008ae:	f7ff ffdf 	bl	8000870 <SystemInit>
 80008b2:	f005 fd47 	bl	8006344 <__libc_init_array>
 80008b6:	f7ff fd0b 	bl	80002d0 <main>
 80008ba:	4770      	bx	lr
 80008bc:	20010000 	.word	0x20010000
 80008c0:	20000000 	.word	0x20000000
 80008c4:	2000018c 	.word	0x2000018c
 80008c8:	0800652c 	.word	0x0800652c
 80008cc:	20000190 	.word	0x20000190
 80008d0:	20009aac 	.word	0x20009aac

080008d4 <ADC_IRQHandler>:
 80008d4:	e7fe      	b.n	80008d4 <ADC_IRQHandler>
	...

080008d8 <LCD_String_Interpretator>:
 80008d8:	b5f8      	push	{r3, r4, r5, r6, r7, lr}
 80008da:	6a45      	ldr	r5, [r0, #36]	; 0x24
 80008dc:	682b      	ldr	r3, [r5, #0]
 80008de:	065b      	lsls	r3, r3, #25
 80008e0:	4604      	mov	r4, r0
 80008e2:	d423      	bmi.n	800092c <LCD_String_Interpretator+0x54>
 80008e4:	f894 3065 	ldrb.w	r3, [r4, #101]	; 0x65
 80008e8:	b92b      	cbnz	r3, 80008f6 <LCD_String_Interpretator+0x1e>
 80008ea:	6c23      	ldr	r3, [r4, #64]	; 0x40
 80008ec:	b11b      	cbz	r3, 80008f6 <LCD_String_Interpretator+0x1e>
 80008ee:	f8b4 2044 	ldrh.w	r2, [r4, #68]	; 0x44
 80008f2:	0412      	lsls	r2, r2, #16
 80008f4:	619a      	str	r2, [r3, #24]
 80008f6:	682b      	ldr	r3, [r5, #0]
 80008f8:	f423 432c 	bic.w	r3, r3, #44032	; 0xac00
 80008fc:	602b      	str	r3, [r5, #0]
 80008fe:	682b      	ldr	r3, [r5, #0]
 8000900:	f043 0340 	orr.w	r3, r3, #64	; 0x40
 8000904:	602b      	str	r3, [r5, #0]
 8000906:	780b      	ldrb	r3, [r1, #0]
 8000908:	2b01      	cmp	r3, #1
 800090a:	d04e      	beq.n	80009aa <LCD_String_Interpretator+0xd2>
 800090c:	2b02      	cmp	r3, #2
 800090e:	d06d      	beq.n	80009ec <LCD_String_Interpretator+0x114>
 8000910:	b193      	cbz	r3, 8000938 <LCD_String_Interpretator+0x60>
 8000912:	f894 3065 	ldrb.w	r3, [r4, #101]	; 0x65
 8000916:	b923      	cbnz	r3, 8000922 <LCD_String_Interpretator+0x4a>
 8000918:	6c23      	ldr	r3, [r4, #64]	; 0x40
 800091a:	b113      	cbz	r3, 8000922 <LCD_String_Interpretator+0x4a>
 800091c:	f8b4 2044 	ldrh.w	r2, [r4, #68]	; 0x44
 8000920:	619a      	str	r2, [r3, #24]
 8000922:	682b      	ldr	r3, [r5, #0]
 8000924:	f023 0340 	bic.w	r3, r3, #64	; 0x40
 8000928:	602b      	str	r3, [r5, #0]
 800092a:	bdf8      	pop	{r3, r4, r5, r6, r7, pc}
 800092c:	bf00      	nop
 800092e:	6a63      	ldr	r3, [r4, #36]	; 0x24
 8000930:	681b      	ldr	r3, [r3, #0]
 8000932:	065f      	lsls	r7, r3, #25
 8000934:	d5d6      	bpl.n	80008e4 <LCD_String_Interpretator+0xc>
 8000936:	e7f9      	b.n	800092c <LCD_String_Interpretator+0x54>
 8000938:	8fa2      	ldrh	r2, [r4, #60]	; 0x3c
 800093a:	6a63      	ldr	r3, [r4, #36]	; 0x24
 800093c:	6ba6      	ldr	r6, [r4, #56]	; 0x38
 800093e:	7848      	ldrb	r0, [r1, #1]
 8000940:	0412      	lsls	r2, r2, #16
 8000942:	61b2      	str	r2, [r6, #24]
 8000944:	7318      	strb	r0, [r3, #12]
 8000946:	689a      	ldr	r2, [r3, #8]
 8000948:	0796      	lsls	r6, r2, #30
 800094a:	d407      	bmi.n	800095c <LCD_String_Interpretator+0x84>
 800094c:	bf00      	nop
 800094e:	689a      	ldr	r2, [r3, #8]
 8000950:	0790      	lsls	r0, r2, #30
 8000952:	d5fb      	bpl.n	800094c <LCD_String_Interpretator+0x74>
 8000954:	689a      	ldr	r2, [r3, #8]
 8000956:	0612      	lsls	r2, r2, #24
 8000958:	d503      	bpl.n	8000962 <LCD_String_Interpretator+0x8a>
 800095a:	bf00      	nop
 800095c:	689a      	ldr	r2, [r3, #8]
 800095e:	0612      	lsls	r2, r2, #24
 8000960:	d4fb      	bmi.n	800095a <LCD_String_Interpretator+0x82>
 8000962:	788e      	ldrb	r6, [r1, #2]
 8000964:	f101 0e03 	add.w	lr, r1, #3
 8000968:	2e00      	cmp	r6, #0
 800096a:	d045      	beq.n	80009f8 <LCD_String_Interpretator+0x120>
 800096c:	4670      	mov	r0, lr
 800096e:	eb0e 0c06 	add.w	ip, lr, r6
 8000972:	6a63      	ldr	r3, [r4, #36]	; 0x24
 8000974:	6ba7      	ldr	r7, [r4, #56]	; 0x38
 8000976:	f810 2b01 	ldrb.w	r2, [r0], #1
 800097a:	8fa1      	ldrh	r1, [r4, #60]	; 0x3c
 800097c:	61b9      	str	r1, [r7, #24]
 800097e:	731a      	strb	r2, [r3, #12]
 8000980:	689a      	ldr	r2, [r3, #8]
 8000982:	0797      	lsls	r7, r2, #30
 8000984:	d407      	bmi.n	8000996 <LCD_String_Interpretator+0xbe>
 8000986:	bf00      	nop
 8000988:	689a      	ldr	r2, [r3, #8]
 800098a:	0791      	lsls	r1, r2, #30
 800098c:	d5fb      	bpl.n	8000986 <LCD_String_Interpretator+0xae>
 800098e:	689a      	ldr	r2, [r3, #8]
 8000990:	0612      	lsls	r2, r2, #24
 8000992:	d503      	bpl.n	800099c <LCD_String_Interpretator+0xc4>
 8000994:	bf00      	nop
 8000996:	689a      	ldr	r2, [r3, #8]
 8000998:	0612      	lsls	r2, r2, #24
 800099a:	d4fb      	bmi.n	8000994 <LCD_String_Interpretator+0xbc>
 800099c:	4560      	cmp	r0, ip
 800099e:	d1e8      	bne.n	8000972 <LCD_String_Interpretator+0x9a>
 80009a0:	eb0e 0106 	add.w	r1, lr, r6
 80009a4:	780b      	ldrb	r3, [r1, #0]
 80009a6:	2b01      	cmp	r3, #1
 80009a8:	d1b0      	bne.n	800090c <LCD_String_Interpretator+0x34>
 80009aa:	784e      	ldrb	r6, [r1, #1]
 80009ac:	f101 0e02 	add.w	lr, r1, #2
 80009b0:	b316      	cbz	r6, 80009f8 <LCD_String_Interpretator+0x120>
 80009b2:	4670      	mov	r0, lr
 80009b4:	eb0e 0c06 	add.w	ip, lr, r6
 80009b8:	6a63      	ldr	r3, [r4, #36]	; 0x24
 80009ba:	6ba7      	ldr	r7, [r4, #56]	; 0x38
 80009bc:	f810 2b01 	ldrb.w	r2, [r0], #1
 80009c0:	8fa1      	ldrh	r1, [r4, #60]	; 0x3c
 80009c2:	61b9      	str	r1, [r7, #24]
 80009c4:	731a      	strb	r2, [r3, #12]
 80009c6:	689a      	ldr	r2, [r3, #8]
 80009c8:	0797      	lsls	r7, r2, #30
 80009ca:	d407      	bmi.n	80009dc <LCD_String_Interpretator+0x104>
 80009cc:	bf00      	nop
 80009ce:	689a      	ldr	r2, [r3, #8]
 80009d0:	0791      	lsls	r1, r2, #30
 80009d2:	d5fb      	bpl.n	80009cc <LCD_String_Interpretator+0xf4>
 80009d4:	689a      	ldr	r2, [r3, #8]
 80009d6:	0612      	lsls	r2, r2, #24
 80009d8:	d503      	bpl.n	80009e2 <LCD_String_Interpretator+0x10a>
 80009da:	bf00      	nop
 80009dc:	689a      	ldr	r2, [r3, #8]
 80009de:	0612      	lsls	r2, r2, #24
 80009e0:	d4fb      	bmi.n	80009da <LCD_String_Interpretator+0x102>
 80009e2:	4560      	cmp	r0, ip
 80009e4:	d1e8      	bne.n	80009b8 <LCD_String_Interpretator+0xe0>
 80009e6:	eb0e 0106 	add.w	r1, lr, r6
 80009ea:	e7db      	b.n	80009a4 <LCD_String_Interpretator+0xcc>
 80009ec:	7848      	ldrb	r0, [r1, #1]
 80009ee:	1c8e      	adds	r6, r1, #2
 80009f0:	f002 fd26 	bl	8003440 <LL_mDelay>
 80009f4:	4631      	mov	r1, r6
 80009f6:	e786      	b.n	8000906 <LCD_String_Interpretator+0x2e>
 80009f8:	4671      	mov	r1, lr
 80009fa:	e784      	b.n	8000906 <LCD_String_Interpretator+0x2e>

080009fc <LCD_DisplayAdd>:
 80009fc:	e92d 4ff0 	stmdb	sp!, {r4, r5, r6, r7, r8, r9, sl, fp, lr}
 8000a00:	b083      	sub	sp, #12
 8000a02:	e9cd 2300 	strd	r2, r3, [sp]
 8000a06:	f8bd 9030 	ldrh.w	r9, [sp, #48]	; 0x30
 8000a0a:	f8bd 8034 	ldrh.w	r8, [sp, #52]	; 0x34
 8000a0e:	f9bd 6038 	ldrsh.w	r6, [sp, #56]	; 0x38
 8000a12:	f9bd 703c 	ldrsh.w	r7, [sp, #60]	; 0x3c
 8000a16:	f89d b040 	ldrb.w	fp, [sp, #64]	; 0x40
 8000a1a:	f89d a058 	ldrb.w	sl, [sp, #88]	; 0x58
 8000a1e:	460c      	mov	r4, r1
 8000a20:	2900      	cmp	r1, #0
 8000a22:	f000 80b3 	beq.w	8000b8c <LCD_DisplayAdd+0x190>
 8000a26:	2274      	movs	r2, #116	; 0x74
 8000a28:	2100      	movs	r1, #0
 8000a2a:	4605      	mov	r5, r0
 8000a2c:	4620      	mov	r0, r4
 8000a2e:	f005 fc81 	bl	8006334 <memset>
 8000a32:	f8dd c054 	ldr.w	ip, [sp, #84]	; 0x54
 8000a36:	f884 a048 	strb.w	sl, [r4, #72]	; 0x48
 8000a3a:	e8bc 000f 	ldmia.w	ip!, {r0, r1, r2, r3}
 8000a3e:	f104 0e24 	add.w	lr, r4, #36	; 0x24
 8000a42:	e8ae 000f 	stmia.w	lr!, {r0, r1, r2, r3}
 8000a46:	e8bc 000f 	ldmia.w	ip!, {r0, r1, r2, r3}
 8000a4a:	e8ae 000f 	stmia.w	lr!, {r0, r1, r2, r3}
 8000a4e:	f8dc 3000 	ldr.w	r3, [ip]
 8000a52:	f8ce 3000 	str.w	r3, [lr]
 8000a56:	6aa3      	ldr	r3, [r4, #40]	; 0x28
 8000a58:	2b00      	cmp	r3, #0
 8000a5a:	d03c      	beq.n	8000ad6 <LCD_DisplayAdd+0xda>
 8000a5c:	6ae2      	ldr	r2, [r4, #44]	; 0x2c
 8000a5e:	495c      	ldr	r1, [pc, #368]	; (8000bd0 <LCD_DisplayAdd+0x1d4>)
 8000a60:	5c89      	ldrb	r1, [r1, r2]
 8000a62:	585a      	ldr	r2, [r3, r1]
 8000a64:	f022 0201 	bic.w	r2, r2, #1
 8000a68:	505a      	str	r2, [r3, r1]
 8000a6a:	585a      	ldr	r2, [r3, r1]
 8000a6c:	07d2      	lsls	r2, r2, #31
 8000a6e:	eb03 0001 	add.w	r0, r3, r1
 8000a72:	d505      	bpl.n	8000a80 <LCD_DisplayAdd+0x84>
 8000a74:	bf00      	nop
 8000a76:	6802      	ldr	r2, [r0, #0]
 8000a78:	07d2      	lsls	r2, r2, #31
 8000a7a:	d4fb      	bmi.n	8000a74 <LCD_DisplayAdd+0x78>
 8000a7c:	f894 a048 	ldrb.w	sl, [r4, #72]	; 0x48
 8000a80:	f1ba 0f01 	cmp.w	sl, #1
 8000a84:	d00b      	beq.n	8000a9e <LCD_DisplayAdd+0xa2>
 8000a86:	f1ba 0f02 	cmp.w	sl, #2
 8000a8a:	d10e      	bne.n	8000aaa <LCD_DisplayAdd+0xae>
 8000a8c:	585a      	ldr	r2, [r3, r1]
 8000a8e:	f422 42f0 	bic.w	r2, r2, #30720	; 0x7800
 8000a92:	505a      	str	r2, [r3, r1]
 8000a94:	585a      	ldr	r2, [r3, r1]
 8000a96:	f442 5220 	orr.w	r2, r2, #10240	; 0x2800
 8000a9a:	505a      	str	r2, [r3, r1]
 8000a9c:	e005      	b.n	8000aaa <LCD_DisplayAdd+0xae>
 8000a9e:	585a      	ldr	r2, [r3, r1]
 8000aa0:	f422 42f0 	bic.w	r2, r2, #30720	; 0x7800
 8000aa4:	505a      	str	r2, [r3, r1]
 8000aa6:	585a      	ldr	r2, [r3, r1]
 8000aa8:	505a      	str	r2, [r3, r1]
 8000aaa:	585a      	ldr	r2, [r3, r1]
 8000aac:	f422 2280 	bic.w	r2, r2, #262144	; 0x40000
 8000ab0:	f022 020e 	bic.w	r2, r2, #14
 8000ab4:	505a      	str	r2, [r3, r1]
 8000ab6:	6942      	ldr	r2, [r0, #20]
 8000ab8:	f022 0280 	bic.w	r2, r2, #128	; 0x80
 8000abc:	6142      	str	r2, [r0, #20]
 8000abe:	585a      	ldr	r2, [r3, r1]
 8000ac0:	f042 0210 	orr.w	r2, r2, #16
 8000ac4:	505a      	str	r2, [r3, r1]
 8000ac6:	585a      	ldr	r2, [r3, r1]
 8000ac8:	f422 7200 	bic.w	r2, r2, #512	; 0x200
 8000acc:	505a      	str	r2, [r3, r1]
 8000ace:	585a      	ldr	r2, [r3, r1]
 8000ad0:	f442 6280 	orr.w	r2, r2, #1024	; 0x400
 8000ad4:	505a      	str	r2, [r3, r1]
 8000ad6:	9a01      	ldr	r2, [sp, #4]
 8000ad8:	9900      	ldr	r1, [sp, #0]
 8000ada:	428a      	cmp	r2, r1
 8000adc:	4613      	mov	r3, r2
 8000ade:	bf38      	it	cc
 8000ae0:	460b      	movcc	r3, r1
 8000ae2:	428a      	cmp	r2, r1
 8000ae4:	bf28      	it	cs
 8000ae6:	460a      	movcs	r2, r1
 8000ae8:	f1bb 0f00 	cmp.w	fp, #0
 8000aec:	d139      	bne.n	8000b62 <LCD_DisplayAdd+0x166>
 8000aee:	454a      	cmp	r2, r9
 8000af0:	8166      	strh	r6, [r4, #10]
 8000af2:	81a7      	strh	r7, [r4, #12]
 8000af4:	80a2      	strh	r2, [r4, #4]
 8000af6:	80e3      	strh	r3, [r4, #6]
 8000af8:	f8a4 9000 	strh.w	r9, [r4]
 8000afc:	f8a4 8002 	strh.w	r8, [r4, #2]
 8000b00:	d848      	bhi.n	8000b94 <LCD_DisplayAdd+0x198>
 8000b02:	4598      	cmp	r8, r3
 8000b04:	d346      	bcc.n	8000b94 <LCD_DisplayAdd+0x198>
 8000b06:	9b11      	ldr	r3, [sp, #68]	; 0x44
 8000b08:	2b00      	cmp	r3, #0
 8000b0a:	d043      	beq.n	8000b94 <LCD_DisplayAdd+0x198>
 8000b0c:	9b12      	ldr	r3, [sp, #72]	; 0x48
 8000b0e:	2b00      	cmp	r3, #0
 8000b10:	d040      	beq.n	8000b94 <LCD_DisplayAdd+0x198>
 8000b12:	9a11      	ldr	r2, [sp, #68]	; 0x44
 8000b14:	6162      	str	r2, [r4, #20]
 8000b16:	9a12      	ldr	r2, [sp, #72]	; 0x48
 8000b18:	61a2      	str	r2, [r4, #24]
 8000b1a:	9a13      	ldr	r2, [sp, #76]	; 0x4c
 8000b1c:	61e2      	str	r2, [r4, #28]
 8000b1e:	ab17      	add	r3, sp, #92	; 0x5c
 8000b20:	9a14      	ldr	r2, [sp, #80]	; 0x50
 8000b22:	6222      	str	r2, [r4, #32]
 8000b24:	cb0f      	ldmia	r3, {r0, r1, r2, r3}
 8000b26:	2700      	movs	r7, #0
 8000b28:	f104 064c 	add.w	r6, r4, #76	; 0x4c
 8000b2c:	f884 b008 	strb.w	fp, [r4, #8]
 8000b30:	e886 000f 	stmia.w	r6, {r0, r1, r2, r3}
 8000b34:	e9c4 771b 	strd	r7, r7, [r4, #108]	; 0x6c
 8000b38:	f884 7064 	strb.w	r7, [r4, #100]	; 0x64
 8000b3c:	b335      	cbz	r5, 8000b8c <LCD_DisplayAdd+0x190>
 8000b3e:	6f2b      	ldr	r3, [r5, #112]	; 0x70
 8000b40:	b14b      	cbz	r3, 8000b56 <LCD_DisplayAdd+0x15a>
 8000b42:	2201      	movs	r2, #1
 8000b44:	461d      	mov	r5, r3
 8000b46:	6f1b      	ldr	r3, [r3, #112]	; 0x70
 8000b48:	1c51      	adds	r1, r2, #1
 8000b4a:	4610      	mov	r0, r2
 8000b4c:	b2ca      	uxtb	r2, r1
 8000b4e:	2b00      	cmp	r3, #0
 8000b50:	d1f8      	bne.n	8000b44 <LCD_DisplayAdd+0x148>
 8000b52:	f884 0064 	strb.w	r0, [r4, #100]	; 0x64
 8000b56:	4620      	mov	r0, r4
 8000b58:	66e5      	str	r5, [r4, #108]	; 0x6c
 8000b5a:	672c      	str	r4, [r5, #112]	; 0x70
 8000b5c:	b003      	add	sp, #12
 8000b5e:	e8bd 8ff0 	ldmia.w	sp!, {r4, r5, r6, r7, r8, r9, sl, fp, pc}
 8000b62:	f1bb 0f02 	cmp.w	fp, #2
 8000b66:	d01e      	beq.n	8000ba6 <LCD_DisplayAdd+0x1aa>
 8000b68:	f1bb 0f01 	cmp.w	fp, #1
 8000b6c:	d024      	beq.n	8000bb8 <LCD_DisplayAdd+0x1bc>
 8000b6e:	f1bb 0f03 	cmp.w	fp, #3
 8000b72:	d10f      	bne.n	8000b94 <LCD_DisplayAdd+0x198>
 8000b74:	eba8 0107 	sub.w	r1, r8, r7
 8000b78:	1ac9      	subs	r1, r1, r3
 8000b7a:	4694      	mov	ip, r2
 8000b7c:	4648      	mov	r0, r9
 8000b7e:	4637      	mov	r7, r6
 8000b80:	461a      	mov	r2, r3
 8000b82:	46c1      	mov	r9, r8
 8000b84:	b20e      	sxth	r6, r1
 8000b86:	4663      	mov	r3, ip
 8000b88:	4680      	mov	r8, r0
 8000b8a:	e7b0      	b.n	8000aee <LCD_DisplayAdd+0xf2>
 8000b8c:	4620      	mov	r0, r4
 8000b8e:	b003      	add	sp, #12
 8000b90:	e8bd 8ff0 	ldmia.w	sp!, {r4, r5, r6, r7, r8, r9, sl, fp, pc}
 8000b94:	2274      	movs	r2, #116	; 0x74
 8000b96:	2100      	movs	r1, #0
 8000b98:	4620      	mov	r0, r4
 8000b9a:	f005 fbcb 	bl	8006334 <memset>
 8000b9e:	2000      	movs	r0, #0
 8000ba0:	b003      	add	sp, #12
 8000ba2:	e8bd 8ff0 	ldmia.w	sp!, {r4, r5, r6, r7, r8, r9, sl, fp, pc}
 8000ba6:	eba9 0606 	sub.w	r6, r9, r6
 8000baa:	eba8 0707 	sub.w	r7, r8, r7
 8000bae:	1ab6      	subs	r6, r6, r2
 8000bb0:	1aff      	subs	r7, r7, r3
 8000bb2:	b236      	sxth	r6, r6
 8000bb4:	b23f      	sxth	r7, r7
 8000bb6:	e79a      	b.n	8000aee <LCD_DisplayAdd+0xf2>
 8000bb8:	eba9 0106 	sub.w	r1, r9, r6
 8000bbc:	1a89      	subs	r1, r1, r2
 8000bbe:	4694      	mov	ip, r2
 8000bc0:	4648      	mov	r0, r9
 8000bc2:	463e      	mov	r6, r7
 8000bc4:	461a      	mov	r2, r3
 8000bc6:	46c1      	mov	r9, r8
 8000bc8:	b20f      	sxth	r7, r1
 8000bca:	4663      	mov	r3, ip
 8000bcc:	4680      	mov	r8, r0
 8000bce:	e78e      	b.n	8000aee <LCD_DisplayAdd+0xf2>
 8000bd0:	080063e4 	.word	0x080063e4

08000bd4 <LCD_Init>:
 8000bd4:	6b03      	ldr	r3, [r0, #48]	; 0x30
 8000bd6:	b510      	push	{r4, lr}
 8000bd8:	4604      	mov	r4, r0
 8000bda:	b15b      	cbz	r3, 8000bf4 <LCD_Init+0x20>
 8000bdc:	8e82      	ldrh	r2, [r0, #52]	; 0x34
 8000bde:	0412      	lsls	r2, r2, #16
 8000be0:	619a      	str	r2, [r3, #24]
 8000be2:	2019      	movs	r0, #25
 8000be4:	f002 fc2c 	bl	8003440 <LL_mDelay>
 8000be8:	6b23      	ldr	r3, [r4, #48]	; 0x30
 8000bea:	8ea2      	ldrh	r2, [r4, #52]	; 0x34
 8000bec:	619a      	str	r2, [r3, #24]
 8000bee:	2019      	movs	r0, #25
 8000bf0:	f002 fc26 	bl	8003440 <LL_mDelay>
 8000bf4:	6963      	ldr	r3, [r4, #20]
 8000bf6:	7a20      	ldrb	r0, [r4, #8]
 8000bf8:	4798      	blx	r3
 8000bfa:	4601      	mov	r1, r0
 8000bfc:	4620      	mov	r0, r4
 8000bfe:	f7ff fe6b 	bl	80008d8 <LCD_String_Interpretator>
 8000c02:	f894 105a 	ldrb.w	r1, [r4, #90]	; 0x5a
 8000c06:	6ce2      	ldr	r2, [r4, #76]	; 0x4c
 8000c08:	2964      	cmp	r1, #100	; 0x64
 8000c0a:	460b      	mov	r3, r1
 8000c0c:	bf28      	it	cs
 8000c0e:	2364      	movcs	r3, #100	; 0x64
 8000c10:	f884 305a 	strb.w	r3, [r4, #90]	; 0x5a
 8000c14:	b30a      	cbz	r2, 8000c5a <LCD_Init+0x86>
 8000c16:	6ad1      	ldr	r1, [r2, #44]	; 0x2c
 8000c18:	4817      	ldr	r0, [pc, #92]	; (8000c78 <LCD_Init+0xa4>)
 8000c1a:	fb01 f303 	mul.w	r3, r1, r3
 8000c1e:	6d21      	ldr	r1, [r4, #80]	; 0x50
 8000c20:	fba0 0303 	umull	r0, r3, r0, r3
 8000c24:	f5b1 7f80 	cmp.w	r1, #256	; 0x100
 8000c28:	ea4f 1353 	mov.w	r3, r3, lsr #5
 8000c2c:	d022      	beq.n	8000c74 <LCD_Init+0xa0>
 8000c2e:	d80f      	bhi.n	8000c50 <LCD_Init+0x7c>
 8000c30:	2901      	cmp	r1, #1
 8000c32:	d01a      	beq.n	8000c6a <LCD_Init+0x96>
 8000c34:	2910      	cmp	r1, #16
 8000c36:	bf08      	it	eq
 8000c38:	6393      	streq	r3, [r2, #56]	; 0x38
 8000c3a:	6813      	ldr	r3, [r2, #0]
 8000c3c:	07db      	lsls	r3, r3, #31
 8000c3e:	d406      	bmi.n	8000c4e <LCD_Init+0x7a>
 8000c40:	6a13      	ldr	r3, [r2, #32]
 8000c42:	4319      	orrs	r1, r3
 8000c44:	6211      	str	r1, [r2, #32]
 8000c46:	6813      	ldr	r3, [r2, #0]
 8000c48:	f043 0301 	orr.w	r3, r3, #1
 8000c4c:	6013      	str	r3, [r2, #0]
 8000c4e:	bd10      	pop	{r4, pc}
 8000c50:	f5b1 5f80 	cmp.w	r1, #4096	; 0x1000
 8000c54:	d1f1      	bne.n	8000c3a <LCD_Init+0x66>
 8000c56:	6413      	str	r3, [r2, #64]	; 0x40
 8000c58:	e7ef      	b.n	8000c3a <LCD_Init+0x66>
 8000c5a:	6d63      	ldr	r3, [r4, #84]	; 0x54
 8000c5c:	2b00      	cmp	r3, #0
 8000c5e:	d0f6      	beq.n	8000c4e <LCD_Init+0x7a>
 8000c60:	f8b4 2058 	ldrh.w	r2, [r4, #88]	; 0x58
 8000c64:	b119      	cbz	r1, 8000c6e <LCD_Init+0x9a>
 8000c66:	619a      	str	r2, [r3, #24]
 8000c68:	bd10      	pop	{r4, pc}
 8000c6a:	6353      	str	r3, [r2, #52]	; 0x34
 8000c6c:	e7e5      	b.n	8000c3a <LCD_Init+0x66>
 8000c6e:	0412      	lsls	r2, r2, #16
 8000c70:	619a      	str	r2, [r3, #24]
 8000c72:	e7f9      	b.n	8000c68 <LCD_Init+0x94>
 8000c74:	63d3      	str	r3, [r2, #60]	; 0x3c
 8000c76:	e7e0      	b.n	8000c3a <LCD_Init+0x66>
 8000c78:	51eb851f 	.word	0x51eb851f

08000c7c <LCD_Fill>:
 8000c7c:	b510      	push	{r4, lr}
 8000c7e:	88c4      	ldrh	r4, [r0, #6]
 8000c80:	8883      	ldrh	r3, [r0, #4]
 8000c82:	3c01      	subs	r4, #1
 8000c84:	b082      	sub	sp, #8
 8000c86:	2200      	movs	r2, #0
 8000c88:	b2a4      	uxth	r4, r4
 8000c8a:	3b01      	subs	r3, #1
 8000c8c:	e9cd 4100 	strd	r4, r1, [sp]
 8000c90:	b29b      	uxth	r3, r3
 8000c92:	4611      	mov	r1, r2
 8000c94:	f000 f8df 	bl	8000e56 <LCD_FillWindow>
 8000c98:	b002      	add	sp, #8
 8000c9a:	bd10      	pop	{r4, pc}

08000c9c <LCD_SetActiveWindow>:
 8000c9c:	b530      	push	{r4, r5, lr}
 8000c9e:	252c      	movs	r5, #44	; 0x2c
 8000ca0:	f8b0 e00c 	ldrh.w	lr, [r0, #12]
 8000ca4:	f8bd 400c 	ldrh.w	r4, [sp, #12]
 8000ca8:	4474      	add	r4, lr
 8000caa:	4472      	add	r2, lr
 8000cac:	b434      	push	{r2, r4, r5}
 8000cae:	252b      	movs	r5, #43	; 0x2b
 8000cb0:	f8b0 e00a 	ldrh.w	lr, [r0, #10]
 8000cb4:	eb03 040e 	add.w	r4, r3, lr
 8000cb8:	eb01 030e 	add.w	r3, r1, lr
 8000cbc:	222a      	movs	r2, #42	; 0x2a
 8000cbe:	b43c      	push	{r2, r3, r4, r5}
 8000cc0:	f8d0 e024 	ldr.w	lr, [r0, #36]	; 0x24
 8000cc4:	6c03      	ldr	r3, [r0, #64]	; 0x40
 8000cc6:	6b84      	ldr	r4, [r0, #56]	; 0x38
 8000cc8:	f8b0 5044 	ldrh.w	r5, [r0, #68]	; 0x44
 8000ccc:	f8b0 c03c 	ldrh.w	ip, [r0, #60]	; 0x3c
 8000cd0:	f8de 0000 	ldr.w	r0, [lr]
 8000cd4:	0001      	movs	r1, r0
 8000cd6:	f010 0040 	ands.w	r0, r0, #64	; 0x40
 8000cda:	d1f9      	bne.n	8000cd0 <LCD_SetActiveWindow+0x34>
 8000cdc:	f421 412c 	bic.w	r1, r1, #44032	; 0xac00
 8000ce0:	f041 0140 	orr.w	r1, r1, #64	; 0x40
 8000ce4:	f8ce 1000 	str.w	r1, [lr]
 8000ce8:	b113      	cbz	r3, 8000cf0 <LCD_SetActiveWindow+0x54>
 8000cea:	ea4f 4005 	mov.w	r0, r5, lsl #16
 8000cee:	6198      	str	r0, [r3, #24]
 8000cf0:	ea4f 400c 	mov.w	r0, ip, lsl #16
 8000cf4:	61a0      	str	r0, [r4, #24]
 8000cf6:	bc01      	pop	{r0}
 8000cf8:	f88e 000c 	strb.w	r0, [lr, #12]
 8000cfc:	f8de 1008 	ldr.w	r1, [lr, #8]
 8000d00:	f011 0102 	ands.w	r1, r1, #2
 8000d04:	d0fa      	beq.n	8000cfc <LCD_SetActiveWindow+0x60>
 8000d06:	f8de 1008 	ldr.w	r1, [lr, #8]
 8000d0a:	f011 0180 	ands.w	r1, r1, #128	; 0x80
 8000d0e:	d1fa      	bne.n	8000d06 <LCD_SetActiveWindow+0x6a>
 8000d10:	282c      	cmp	r0, #44	; 0x2c
 8000d12:	d01a      	beq.n	8000d4a <LCD_SetActiveWindow+0xae>
 8000d14:	f8c4 c018 	str.w	ip, [r4, #24]
 8000d18:	2202      	movs	r2, #2
 8000d1a:	bc01      	pop	{r0}
 8000d1c:	ea4f 2110 	mov.w	r1, r0, lsr #8
 8000d20:	f88e 100c 	strb.w	r1, [lr, #12]
 8000d24:	f8de 1008 	ldr.w	r1, [lr, #8]
 8000d28:	f011 0102 	ands.w	r1, r1, #2
 8000d2c:	d0fa      	beq.n	8000d24 <LCD_SetActiveWindow+0x88>
 8000d2e:	f88e 000c 	strb.w	r0, [lr, #12]
 8000d32:	f8de 1008 	ldr.w	r1, [lr, #8]
 8000d36:	0089      	lsls	r1, r1, #2
 8000d38:	d0fb      	beq.n	8000d32 <LCD_SetActiveWindow+0x96>
 8000d3a:	3a01      	subs	r2, #1
 8000d3c:	d1ed      	bne.n	8000d1a <LCD_SetActiveWindow+0x7e>
 8000d3e:	f8de 1008 	ldr.w	r1, [lr, #8]
 8000d42:	f011 0180 	ands.w	r1, r1, #128	; 0x80
 8000d46:	d1fa      	bne.n	8000d3e <LCD_SetActiveWindow+0xa2>
 8000d48:	e7d2      	b.n	8000cf0 <LCD_SetActiveWindow+0x54>
 8000d4a:	b103      	cbz	r3, 8000d4e <LCD_SetActiveWindow+0xb2>
 8000d4c:	619d      	str	r5, [r3, #24]
 8000d4e:	f8de 0000 	ldr.w	r0, [lr]
 8000d52:	f020 0040 	bic.w	r0, r0, #64	; 0x40
 8000d56:	f440 6000 	orr.w	r0, r0, #2048	; 0x800
 8000d5a:	f8ce 0000 	str.w	r0, [lr]
 8000d5e:	bd30      	pop	{r4, r5, pc}

08000d60 <LCD_WriteData>:
 8000d60:	b530      	push	{r4, r5, lr}
 8000d62:	406d      	eors	r5, r5
 8000d64:	f8d0 e024 	ldr.w	lr, [r0, #36]	; 0x24
 8000d68:	f8de 3000 	ldr.w	r3, [lr]
 8000d6c:	469c      	mov	ip, r3
 8000d6e:	f013 0340 	ands.w	r3, r3, #64	; 0x40
 8000d72:	d1f9      	bne.n	8000d68 <LCD_WriteData+0x8>
 8000d74:	f04c 0c40 	orr.w	ip, ip, #64	; 0x40
 8000d78:	f8ce c000 	str.w	ip, [lr]
 8000d7c:	6c03      	ldr	r3, [r0, #64]	; 0x40
 8000d7e:	b123      	cbz	r3, 8000d8a <LCD_WriteData+0x2a>
 8000d80:	f8b0 c044 	ldrh.w	ip, [r0, #68]	; 0x44
 8000d84:	ea4f 440c 	mov.w	r4, ip, lsl #16
 8000d88:	619c      	str	r4, [r3, #24]
 8000d8a:	6b84      	ldr	r4, [r0, #56]	; 0x38
 8000d8c:	8f80      	ldrh	r0, [r0, #60]	; 0x3c
 8000d8e:	61a0      	str	r0, [r4, #24]
 8000d90:	8808      	ldrh	r0, [r1, #0]
 8000d92:	f8ce 000c 	str.w	r0, [lr, #12]
 8000d96:	432d      	orrs	r5, r5
 8000d98:	b905      	cbnz	r5, 8000d9c <LCD_WriteData+0x3c>
 8000d9a:	3102      	adds	r1, #2
 8000d9c:	f8de 0008 	ldr.w	r0, [lr, #8]
 8000da0:	f010 0002 	ands.w	r0, r0, #2
 8000da4:	d0fa      	beq.n	8000d9c <LCD_WriteData+0x3c>
 8000da6:	3a01      	subs	r2, #1
 8000da8:	d1f2      	bne.n	8000d90 <LCD_WriteData+0x30>
 8000daa:	f8de 0008 	ldr.w	r0, [lr, #8]
 8000dae:	f010 0080 	ands.w	r0, r0, #128	; 0x80
 8000db2:	d1fa      	bne.n	8000daa <LCD_WriteData+0x4a>
 8000db4:	b10b      	cbz	r3, 8000dba <LCD_WriteData+0x5a>
 8000db6:	f8c3 c018 	str.w	ip, [r3, #24]
 8000dba:	f8de 0000 	ldr.w	r0, [lr]
 8000dbe:	f020 0040 	bic.w	r0, r0, #64	; 0x40
 8000dc2:	f8ce 0000 	str.w	r0, [lr]
 8000dc6:	bd30      	pop	{r4, r5, pc}

08000dc8 <LCD_WriteDataDMA>:
 8000dc8:	f8d0 c028 	ldr.w	ip, [r0, #40]	; 0x28
 8000dcc:	ea5c 0c0c 	orrs.w	ip, ip, ip
 8000dd0:	f43f afc6 	beq.w	8000d60 <LCD_WriteData>
 8000dd4:	b530      	push	{r4, r5, lr}
 8000dd6:	406d      	eors	r5, r5
 8000dd8:	f8d0 e024 	ldr.w	lr, [r0, #36]	; 0x24
 8000ddc:	f8de 3000 	ldr.w	r3, [lr]
 8000de0:	001c      	movs	r4, r3
 8000de2:	f013 0340 	ands.w	r3, r3, #64	; 0x40
 8000de6:	f47f afbf 	bne.w	8000d68 <LCD_WriteData+0x8>
 8000dea:	f044 0440 	orr.w	r4, r4, #64	; 0x40
 8000dee:	f8ce 4000 	str.w	r4, [lr]
 8000df2:	f8de 4004 	ldr.w	r4, [lr, #4]
 8000df6:	f044 0402 	orr.w	r4, r4, #2
 8000dfa:	f8ce 4004 	str.w	r4, [lr, #4]
 8000dfe:	6c03      	ldr	r3, [r0, #64]	; 0x40
 8000e00:	b11b      	cbz	r3, 8000e0a <LCD_WriteDataDMA+0x42>
 8000e02:	f8b0 4044 	ldrh.w	r4, [r0, #68]	; 0x44
 8000e06:	0424      	lsls	r4, r4, #16
 8000e08:	619c      	str	r4, [r3, #24]
 8000e0a:	6b83      	ldr	r3, [r0, #56]	; 0x38
 8000e0c:	8f84      	ldrh	r4, [r0, #60]	; 0x3c
 8000e0e:	619c      	str	r4, [r3, #24]
 8000e10:	f100 0460 	add.w	r4, r0, #96	; 0x60
 8000e14:	6ac0      	ldr	r0, [r0, #44]	; 0x2c
 8000e16:	2318      	movs	r3, #24
 8000e18:	fb00 cc03 	mla	ip, r0, r3, ip
 8000e1c:	f10c 0010 	add.w	r0, ip, #16
 8000e20:	f64f 73ff 	movw	r3, #65535	; 0xffff
 8000e24:	429a      	cmp	r2, r3
 8000e26:	bfce      	itee	gt
 8000e28:	1ad2      	subgt	r2, r2, r3
 8000e2a:	4613      	movle	r3, r2
 8000e2c:	2200      	movle	r2, #0
 8000e2e:	6022      	str	r2, [r4, #0]
 8000e30:	6043      	str	r3, [r0, #4]
 8000e32:	f10e 0e0c 	add.w	lr, lr, #12
 8000e36:	f8c0 e008 	str.w	lr, [r0, #8]
 8000e3a:	60c1      	str	r1, [r0, #12]
 8000e3c:	6801      	ldr	r1, [r0, #0]
 8000e3e:	432d      	orrs	r5, r5
 8000e40:	bf0c      	ite	eq
 8000e42:	f441 6180 	orreq.w	r1, r1, #1024	; 0x400
 8000e46:	f421 6180 	bicne.w	r1, r1, #1024	; 0x400
 8000e4a:	f041 0101 	orr.w	r1, r1, #1
 8000e4e:	f421 7100 	bic.w	r1, r1, #512	; 0x200
 8000e52:	6001      	str	r1, [r0, #0]
 8000e54:	bd30      	pop	{r4, r5, pc}

08000e56 <LCD_FillWindow>:
 8000e56:	b530      	push	{r4, r5, lr}
 8000e58:	4299      	cmp	r1, r3
 8000e5a:	bfc2      	ittt	gt
 8000e5c:	468e      	movgt	lr, r1
 8000e5e:	4619      	movgt	r1, r3
 8000e60:	4673      	movgt	r3, lr
 8000e62:	f8bd 400c 	ldrh.w	r4, [sp, #12]
 8000e66:	42a2      	cmp	r2, r4
 8000e68:	bfc2      	ittt	gt
 8000e6a:	4696      	movgt	lr, r2
 8000e6c:	4622      	movgt	r2, r4
 8000e6e:	4674      	movgt	r4, lr
 8000e70:	f8b0 e004 	ldrh.w	lr, [r0, #4]
 8000e74:	f1ae 0e01 	sub.w	lr, lr, #1
 8000e78:	4571      	cmp	r1, lr
 8000e7a:	dc31      	bgt.n	8000ee0 <LCD_FillWindow+0x8a>
 8000e7c:	f8b0 c006 	ldrh.w	ip, [r0, #6]
 8000e80:	f1ac 0c01 	sub.w	ip, ip, #1
 8000e84:	4562      	cmp	r2, ip
 8000e86:	dc2b      	bgt.n	8000ee0 <LCD_FillWindow+0x8a>
 8000e88:	4573      	cmp	r3, lr
 8000e8a:	bfc8      	it	gt
 8000e8c:	4673      	movgt	r3, lr
 8000e8e:	4564      	cmp	r4, ip
 8000e90:	bfc8      	it	gt
 8000e92:	4664      	movgt	r4, ip
 8000e94:	b082      	sub	sp, #8
 8000e96:	9400      	str	r4, [sp, #0]
 8000e98:	1a5d      	subs	r5, r3, r1
 8000e9a:	f105 0501 	add.w	r5, r5, #1
 8000e9e:	1aa4      	subs	r4, r4, r2
 8000ea0:	fb05 5504 	mla	r5, r5, r4, r5
 8000ea4:	0004      	movs	r4, r0
 8000ea6:	f7ff fef9 	bl	8000c9c <LCD_SetActiveWindow>
 8000eaa:	b002      	add	sp, #8
 8000eac:	9804      	ldr	r0, [sp, #16]
 8000eae:	f3c0 01c4 	ubfx	r1, r0, #3, #5
 8000eb2:	f3c0 2285 	ubfx	r2, r0, #10, #6
 8000eb6:	ea41 1142 	orr.w	r1, r1, r2, lsl #5
 8000eba:	f3c0 42c4 	ubfx	r2, r0, #19, #5
 8000ebe:	ea41 21c2 	orr.w	r1, r1, r2, lsl #11
 8000ec2:	f8a4 1068 	strh.w	r1, [r4, #104]	; 0x68
 8000ec6:	0020      	movs	r0, r4
 8000ec8:	f100 0168 	add.w	r1, r0, #104	; 0x68
 8000ecc:	002a      	movs	r2, r5
 8000ece:	2501      	movs	r5, #1
 8000ed0:	f8d0 c028 	ldr.w	ip, [r0, #40]	; 0x28
 8000ed4:	ea5c 0c0c 	orrs.w	ip, ip, ip
 8000ed8:	f43f af44 	beq.w	8000d64 <LCD_WriteData+0x4>
 8000edc:	f7ff bf7c 	b.w	8000dd8 <LCD_WriteDataDMA+0x10>
 8000ee0:	bd30      	pop	{r4, r5, pc}

08000ee2 <LCD_DrawImage>:
 8000ee2:	b530      	push	{r4, r5, lr}
 8000ee4:	f8b0 e004 	ldrh.w	lr, [r0, #4]
 8000ee8:	4571      	cmp	r1, lr
 8000eea:	d221      	bcs.n	8000f30 <LCD_DrawImage+0x4e>
 8000eec:	eb01 0c03 	add.w	ip, r1, r3
 8000ef0:	45f4      	cmp	ip, lr
 8000ef2:	d81d      	bhi.n	8000f30 <LCD_DrawImage+0x4e>
 8000ef4:	f8b0 e006 	ldrh.w	lr, [r0, #6]
 8000ef8:	4572      	cmp	r2, lr
 8000efa:	d219      	bcs.n	8000f30 <LCD_DrawImage+0x4e>
 8000efc:	9c03      	ldr	r4, [sp, #12]
 8000efe:	1915      	adds	r5, r2, r4
 8000f00:	4575      	cmp	r5, lr
 8000f02:	d815      	bhi.n	8000f30 <LCD_DrawImage+0x4e>
 8000f04:	fb04 f403 	mul.w	r4, r4, r3
 8000f08:	3d01      	subs	r5, #1
 8000f0a:	b082      	sub	sp, #8
 8000f0c:	9500      	str	r5, [sp, #0]
 8000f0e:	f1ac 0301 	sub.w	r3, ip, #1
 8000f12:	0005      	movs	r5, r0
 8000f14:	f7ff fec2 	bl	8000c9c <LCD_SetActiveWindow>
 8000f18:	b002      	add	sp, #8
 8000f1a:	0028      	movs	r0, r5
 8000f1c:	9904      	ldr	r1, [sp, #16]
 8000f1e:	0022      	movs	r2, r4
 8000f20:	9b05      	ldr	r3, [sp, #20]
 8000f22:	e8bd 4030 	ldmia.w	sp!, {r4, r5, lr}
 8000f26:	431b      	orrs	r3, r3
 8000f28:	f43f af1a 	beq.w	8000d60 <LCD_WriteData>
 8000f2c:	f7ff bf4c 	b.w	8000dc8 <LCD_WriteDataDMA>
 8000f30:	bd30      	pop	{r4, r5, pc}
	...

08000f34 <Display_TC_Callback>:
 8000f34:	b500      	push	{lr}
 8000f36:	000b      	movs	r3, r1
 8000f38:	2b03      	cmp	r3, #3
 8000f3a:	bfc6      	itte	gt
 8000f3c:	3b04      	subgt	r3, #4
 8000f3e:	f04f 0e0c 	movgt.w	lr, #12
 8000f42:	f04f 0e08 	movle.w	lr, #8
 8000f46:	f20f 0c74 	addw	ip, pc, #116	; 0x74
 8000f4a:	f81c c003 	ldrb.w	ip, [ip, r3]
 8000f4e:	223f      	movs	r2, #63	; 0x3f
 8000f50:	fa02 f20c 	lsl.w	r2, r2, ip
 8000f54:	f840 200e 	str.w	r2, [r0, lr]
 8000f58:	2218      	movs	r2, #24
 8000f5a:	fb01 0002 	mla	r0, r1, r2, r0
 8000f5e:	f100 0010 	add.w	r0, r0, #16
 8000f62:	6801      	ldr	r1, [r0, #0]
 8000f64:	f021 0101 	bic.w	r1, r1, #1
 8000f68:	6001      	str	r1, [r0, #0]

08000f6a <.Display_TC_Callback1>:
 8000f6a:	6801      	ldr	r1, [r0, #0]
 8000f6c:	f011 0101 	ands.w	r1, r1, #1
 8000f70:	d1fb      	bne.n	8000f6a <.Display_TC_Callback1>
 8000f72:	4b13      	ldr	r3, [pc, #76]	; (8000fc0 <.DMA_ShiftTbl+0x4>)
 8000f74:	681b      	ldr	r3, [r3, #0]
 8000f76:	6e1a      	ldr	r2, [r3, #96]	; 0x60
 8000f78:	b16a      	cbz	r2, 8000f96 <.Display_TC_Callback2>
 8000f7a:	f64f 71ff 	movw	r1, #65535	; 0xffff
 8000f7e:	428a      	cmp	r2, r1
 8000f80:	bfce      	itee	gt
 8000f82:	1a52      	subgt	r2, r2, r1
 8000f84:	4611      	movle	r1, r2
 8000f86:	2200      	movle	r2, #0
 8000f88:	6041      	str	r1, [r0, #4]
 8000f8a:	661a      	str	r2, [r3, #96]	; 0x60
 8000f8c:	6801      	ldr	r1, [r0, #0]
 8000f8e:	f041 0101 	orr.w	r1, r1, #1
 8000f92:	6001      	str	r1, [r0, #0]
 8000f94:	bd00      	pop	{pc}

08000f96 <.Display_TC_Callback2>:
 8000f96:	6a58      	ldr	r0, [r3, #36]	; 0x24
 8000f98:	6841      	ldr	r1, [r0, #4]
 8000f9a:	f021 0102 	bic.w	r1, r1, #2
 8000f9e:	6041      	str	r1, [r0, #4]

08000fa0 <.Display_TC_Callback3>:
 8000fa0:	6881      	ldr	r1, [r0, #8]
 8000fa2:	f011 0180 	ands.w	r1, r1, #128	; 0x80
 8000fa6:	d1fb      	bne.n	8000fa0 <.Display_TC_Callback3>
 8000fa8:	6c1a      	ldr	r2, [r3, #64]	; 0x40
 8000faa:	b112      	cbz	r2, 8000fb2 <.Display_TC_Callback4>
 8000fac:	f8b3 1044 	ldrh.w	r1, [r3, #68]	; 0x44
 8000fb0:	6191      	str	r1, [r2, #24]

08000fb2 <.Display_TC_Callback4>:
 8000fb2:	6801      	ldr	r1, [r0, #0]
 8000fb4:	f021 0140 	bic.w	r1, r1, #64	; 0x40
 8000fb8:	6001      	str	r1, [r0, #0]
 8000fba:	bd00      	pop	{pc}

08000fbc <.DMA_ShiftTbl>:
 8000fbc:	16100600 	.word	0x16100600
 8000fc0:	200001b8 	.word	0x200001b8

08000fc4 <ST7789_Init>:
 8000fc4:	3801      	subs	r0, #1
 8000fc6:	b2c0      	uxtb	r0, r0
 8000fc8:	2802      	cmp	r0, #2
 8000fca:	bf9c      	itt	ls
 8000fcc:	4b03      	ldrls	r3, [pc, #12]	; (8000fdc <ST7789_Init+0x18>)
 8000fce:	5c1b      	ldrbls	r3, [r3, r0]
 8000fd0:	4803      	ldr	r0, [pc, #12]	; (8000fe0 <ST7789_Init+0x1c>)
 8000fd2:	bf88      	it	hi
 8000fd4:	2300      	movhi	r3, #0
 8000fd6:	75c3      	strb	r3, [r0, #23]
 8000fd8:	4770      	bx	lr
 8000fda:	bf00      	nop
 8000fdc:	080063ec 	.word	0x080063ec
 8000fe0:	20000004 	.word	0x20000004

08000fe4 <ST7789_SetWindow>:
 8000fe4:	b500      	push	{lr}
 8000fe6:	ea4f 2c10 	mov.w	ip, r0, lsr #8
 8000fea:	f04f 0e00 	mov.w	lr, #0
 8000fee:	f36c 0e07 	bfi	lr, ip, #0, #8
 8000ff2:	f360 2e0f 	bfi	lr, r0, #8, #8
 8000ff6:	0a10      	lsrs	r0, r2, #8
 8000ff8:	f360 4e17 	bfi	lr, r0, #16, #8
 8000ffc:	f362 6e1f 	bfi	lr, r2, #24, #8
 8001000:	f04f 0c00 	mov.w	ip, #0
 8001004:	0a0a      	lsrs	r2, r1, #8
 8001006:	f362 0c07 	bfi	ip, r2, #0, #8
 800100a:	f361 2c0f 	bfi	ip, r1, #8, #8
 800100e:	0a1a      	lsrs	r2, r3, #8
 8001010:	4805      	ldr	r0, [pc, #20]	; (8001028 <ST7789_SetWindow+0x44>)
 8001012:	f362 4c17 	bfi	ip, r2, #16, #8
 8001016:	f363 6c1f 	bfi	ip, r3, #24, #8
 800101a:	f8c0 e003 	str.w	lr, [r0, #3]
 800101e:	f8c0 c00a 	str.w	ip, [r0, #10]
 8001022:	f85d fb04 	ldr.w	pc, [sp], #4
 8001026:	bf00      	nop
 8001028:	20000074 	.word	0x20000074

0800102c <ST7789_SleepIn>:
 800102c:	4800      	ldr	r0, [pc, #0]	; (8001030 <ST7789_SleepIn+0x4>)
 800102e:	4770      	bx	lr
 8001030:	20000088 	.word	0x20000088

08001034 <ST7789_SleepOut>:
 8001034:	4800      	ldr	r0, [pc, #0]	; (8001038 <ST7789_SleepOut+0x4>)
 8001036:	4770      	bx	lr
 8001038:	20000090 	.word	0x20000090

0800103c <HAL_InitTick>:
 800103c:	b538      	push	{r3, r4, r5, lr}
 800103e:	4a0e      	ldr	r2, [pc, #56]	; (8001078 <HAL_InitTick+0x3c>)
 8001040:	4b0e      	ldr	r3, [pc, #56]	; (800107c <HAL_InitTick+0x40>)
 8001042:	7812      	ldrb	r2, [r2, #0]
 8001044:	681b      	ldr	r3, [r3, #0]
 8001046:	4605      	mov	r5, r0
 8001048:	f44f 707a 	mov.w	r0, #1000	; 0x3e8
 800104c:	fbb0 f0f2 	udiv	r0, r0, r2
 8001050:	fbb3 f0f0 	udiv	r0, r3, r0
 8001054:	f000 f8b2 	bl	80011bc <HAL_SYSTICK_Config>
 8001058:	b908      	cbnz	r0, 800105e <HAL_InitTick+0x22>
 800105a:	2d0f      	cmp	r5, #15
 800105c:	d901      	bls.n	8001062 <HAL_InitTick+0x26>
 800105e:	2001      	movs	r0, #1
 8001060:	bd38      	pop	{r3, r4, r5, pc}
 8001062:	4604      	mov	r4, r0
 8001064:	4602      	mov	r2, r0
 8001066:	4629      	mov	r1, r5
 8001068:	f04f 30ff 	mov.w	r0, #4294967295
 800106c:	f000 f85a 	bl	8001124 <HAL_NVIC_SetPriority>
 8001070:	4b03      	ldr	r3, [pc, #12]	; (8001080 <HAL_InitTick+0x44>)
 8001072:	4620      	mov	r0, r4
 8001074:	601d      	str	r5, [r3, #0]
 8001076:	bd38      	pop	{r3, r4, r5, pc}
 8001078:	20000096 	.word	0x20000096
 800107c:	20000000 	.word	0x20000000
 8001080:	20000098 	.word	0x20000098

08001084 <HAL_Init>:
 8001084:	b508      	push	{r3, lr}
 8001086:	4b0b      	ldr	r3, [pc, #44]	; (80010b4 <HAL_Init+0x30>)
 8001088:	681a      	ldr	r2, [r3, #0]
 800108a:	f442 7200 	orr.w	r2, r2, #512	; 0x200
 800108e:	601a      	str	r2, [r3, #0]
 8001090:	681a      	ldr	r2, [r3, #0]
 8001092:	f442 6280 	orr.w	r2, r2, #1024	; 0x400
 8001096:	601a      	str	r2, [r3, #0]
 8001098:	681a      	ldr	r2, [r3, #0]
 800109a:	f442 7280 	orr.w	r2, r2, #256	; 0x100
 800109e:	601a      	str	r2, [r3, #0]
 80010a0:	2003      	movs	r0, #3
 80010a2:	f000 f82d 	bl	8001100 <HAL_NVIC_SetPriorityGrouping>
 80010a6:	200f      	movs	r0, #15
 80010a8:	f7ff ffc8 	bl	800103c <HAL_InitTick>
 80010ac:	f7ff fba0 	bl	80007f0 <HAL_MspInit>
 80010b0:	2000      	movs	r0, #0
 80010b2:	bd08      	pop	{r3, pc}
 80010b4:	40023c00 	.word	0x40023c00

080010b8 <HAL_IncTick>:
 80010b8:	4a03      	ldr	r2, [pc, #12]	; (80010c8 <HAL_IncTick+0x10>)
 80010ba:	4b04      	ldr	r3, [pc, #16]	; (80010cc <HAL_IncTick+0x14>)
 80010bc:	6811      	ldr	r1, [r2, #0]
 80010be:	781b      	ldrb	r3, [r3, #0]
 80010c0:	440b      	add	r3, r1
 80010c2:	6013      	str	r3, [r2, #0]
 80010c4:	4770      	bx	lr
 80010c6:	bf00      	nop
 80010c8:	200001bc 	.word	0x200001bc
 80010cc:	20000096 	.word	0x20000096

080010d0 <HAL_GetTick>:
 80010d0:	4b01      	ldr	r3, [pc, #4]	; (80010d8 <HAL_GetTick+0x8>)
 80010d2:	6818      	ldr	r0, [r3, #0]
 80010d4:	4770      	bx	lr
 80010d6:	bf00      	nop
 80010d8:	200001bc 	.word	0x200001bc

080010dc <HAL_Delay>:
 80010dc:	b538      	push	{r3, r4, r5, lr}
 80010de:	4604      	mov	r4, r0
 80010e0:	f7ff fff6 	bl	80010d0 <HAL_GetTick>
 80010e4:	1c63      	adds	r3, r4, #1
 80010e6:	4605      	mov	r5, r0
 80010e8:	d002      	beq.n	80010f0 <HAL_Delay+0x14>
 80010ea:	4b04      	ldr	r3, [pc, #16]	; (80010fc <HAL_Delay+0x20>)
 80010ec:	781b      	ldrb	r3, [r3, #0]
 80010ee:	441c      	add	r4, r3
 80010f0:	f7ff ffee 	bl	80010d0 <HAL_GetTick>
 80010f4:	1b43      	subs	r3, r0, r5
 80010f6:	42a3      	cmp	r3, r4
 80010f8:	d3fa      	bcc.n	80010f0 <HAL_Delay+0x14>
 80010fa:	bd38      	pop	{r3, r4, r5, pc}
 80010fc:	20000096 	.word	0x20000096

08001100 <HAL_NVIC_SetPriorityGrouping>:
 8001100:	4907      	ldr	r1, [pc, #28]	; (8001120 <HAL_NVIC_SetPriorityGrouping+0x20>)
 8001102:	68ca      	ldr	r2, [r1, #12]
 8001104:	0203      	lsls	r3, r0, #8
 8001106:	f64f 00ff 	movw	r0, #63743	; 0xf8ff
 800110a:	f403 63e0 	and.w	r3, r3, #1792	; 0x700
 800110e:	4002      	ands	r2, r0
 8001110:	4313      	orrs	r3, r2
 8001112:	f043 63bf 	orr.w	r3, r3, #100139008	; 0x5f80000
 8001116:	f443 3300 	orr.w	r3, r3, #131072	; 0x20000
 800111a:	60cb      	str	r3, [r1, #12]
 800111c:	4770      	bx	lr
 800111e:	bf00      	nop
 8001120:	e000ed00 	.word	0xe000ed00

08001124 <HAL_NVIC_SetPriority>:
 8001124:	4b1c      	ldr	r3, [pc, #112]	; (8001198 <HAL_NVIC_SetPriority+0x74>)
 8001126:	68db      	ldr	r3, [r3, #12]
 8001128:	f3c3 2302 	ubfx	r3, r3, #8, #3
 800112c:	b500      	push	{lr}
 800112e:	f1c3 0e07 	rsb	lr, r3, #7
 8001132:	f1be 0f04 	cmp.w	lr, #4
 8001136:	f103 0c04 	add.w	ip, r3, #4
 800113a:	bf28      	it	cs
 800113c:	f04f 0e04 	movcs.w	lr, #4
 8001140:	f1bc 0f06 	cmp.w	ip, #6
 8001144:	d91b      	bls.n	800117e <HAL_NVIC_SetPriority+0x5a>
 8001146:	3b03      	subs	r3, #3
 8001148:	f04f 3cff 	mov.w	ip, #4294967295
 800114c:	fa0c fc03 	lsl.w	ip, ip, r3
 8001150:	ea22 020c 	bic.w	r2, r2, ip
 8001154:	f04f 3cff 	mov.w	ip, #4294967295
 8001158:	fa0c fc0e 	lsl.w	ip, ip, lr
 800115c:	ea21 010c 	bic.w	r1, r1, ip
 8001160:	4099      	lsls	r1, r3
 8001162:	2800      	cmp	r0, #0
 8001164:	ea41 0102 	orr.w	r1, r1, r2
 8001168:	db0c      	blt.n	8001184 <HAL_NVIC_SetPriority+0x60>
 800116a:	f100 4060 	add.w	r0, r0, #3758096384	; 0xe0000000
 800116e:	0109      	lsls	r1, r1, #4
 8001170:	f500 4061 	add.w	r0, r0, #57600	; 0xe100
 8001174:	b2c9      	uxtb	r1, r1
 8001176:	f880 1300 	strb.w	r1, [r0, #768]	; 0x300
 800117a:	f85d fb04 	ldr.w	pc, [sp], #4
 800117e:	2200      	movs	r2, #0
 8001180:	4613      	mov	r3, r2
 8001182:	e7e7      	b.n	8001154 <HAL_NVIC_SetPriority+0x30>
 8001184:	4b05      	ldr	r3, [pc, #20]	; (800119c <HAL_NVIC_SetPriority+0x78>)
 8001186:	f000 000f 	and.w	r0, r0, #15
 800118a:	0109      	lsls	r1, r1, #4
 800118c:	4403      	add	r3, r0
 800118e:	b2c9      	uxtb	r1, r1
 8001190:	7619      	strb	r1, [r3, #24]
 8001192:	f85d fb04 	ldr.w	pc, [sp], #4
 8001196:	bf00      	nop
 8001198:	e000ed00 	.word	0xe000ed00
 800119c:	e000ecfc 	.word	0xe000ecfc

080011a0 <HAL_NVIC_EnableIRQ>:
 80011a0:	2800      	cmp	r0, #0
 80011a2:	db07      	blt.n	80011b4 <HAL_NVIC_EnableIRQ+0x14>
 80011a4:	0941      	lsrs	r1, r0, #5
 80011a6:	4a04      	ldr	r2, [pc, #16]	; (80011b8 <HAL_NVIC_EnableIRQ+0x18>)
 80011a8:	f000 001f 	and.w	r0, r0, #31
 80011ac:	2301      	movs	r3, #1
 80011ae:	4083      	lsls	r3, r0
 80011b0:	f842 3021 	str.w	r3, [r2, r1, lsl #2]
 80011b4:	4770      	bx	lr
 80011b6:	bf00      	nop
 80011b8:	e000e100 	.word	0xe000e100

080011bc <HAL_SYSTICK_Config>:
 80011bc:	3801      	subs	r0, #1
 80011be:	f1b0 7f80 	cmp.w	r0, #16777216	; 0x1000000
 80011c2:	d210      	bcs.n	80011e6 <HAL_SYSTICK_Config+0x2a>
 80011c4:	b410      	push	{r4}
 80011c6:	f04f 23e0 	mov.w	r3, #3758153728	; 0xe000e000
 80011ca:	4c08      	ldr	r4, [pc, #32]	; (80011ec <HAL_SYSTICK_Config+0x30>)
 80011cc:	6158      	str	r0, [r3, #20]
 80011ce:	f04f 0cf0 	mov.w	ip, #240	; 0xf0
 80011d2:	f884 c023 	strb.w	ip, [r4, #35]	; 0x23
 80011d6:	2200      	movs	r2, #0
 80011d8:	2107      	movs	r1, #7
 80011da:	4610      	mov	r0, r2
 80011dc:	619a      	str	r2, [r3, #24]
 80011de:	f85d 4b04 	ldr.w	r4, [sp], #4
 80011e2:	6119      	str	r1, [r3, #16]
 80011e4:	4770      	bx	lr
 80011e6:	2001      	movs	r0, #1
 80011e8:	4770      	bx	lr
 80011ea:	bf00      	nop
 80011ec:	e000ed00 	.word	0xe000ed00

080011f0 <HAL_GPIO_Init>:
 80011f0:	e92d 4ff0 	stmdb	sp!, {r4, r5, r6, r7, r8, r9, sl, fp, lr}
 80011f4:	2200      	movs	r2, #0
 80011f6:	680c      	ldr	r4, [r1, #0]
 80011f8:	4e71      	ldr	r6, [pc, #452]	; (80013c0 <HAL_GPIO_Init+0x1d0>)
 80011fa:	b085      	sub	sp, #20
 80011fc:	4613      	mov	r3, r2
 80011fe:	f04f 0a01 	mov.w	sl, #1
 8001202:	4689      	mov	r9, r1
 8001204:	e004      	b.n	8001210 <HAL_GPIO_Init+0x20>
 8001206:	3301      	adds	r3, #1
 8001208:	2b10      	cmp	r3, #16
 800120a:	f102 0202 	add.w	r2, r2, #2
 800120e:	d079      	beq.n	8001304 <HAL_GPIO_Init+0x114>
 8001210:	fa0a f103 	lsl.w	r1, sl, r3
 8001214:	ea01 0b04 	and.w	fp, r1, r4
 8001218:	43a1      	bics	r1, r4
 800121a:	d1f4      	bne.n	8001206 <HAL_GPIO_Init+0x16>
 800121c:	f8d9 c004 	ldr.w	ip, [r9, #4]
 8001220:	f00c 0103 	and.w	r1, ip, #3
 8001224:	1e4d      	subs	r5, r1, #1
 8001226:	2d01      	cmp	r5, #1
 8001228:	d96f      	bls.n	800130a <HAL_GPIO_Init+0x11a>
 800122a:	2903      	cmp	r1, #3
 800122c:	f040 80b0 	bne.w	8001390 <HAL_GPIO_Init+0x1a0>
 8001230:	4091      	lsls	r1, r2
 8001232:	43cd      	mvns	r5, r1
 8001234:	6807      	ldr	r7, [r0, #0]
 8001236:	403d      	ands	r5, r7
 8001238:	4329      	orrs	r1, r5
 800123a:	f41c 3f40 	tst.w	ip, #196608	; 0x30000
 800123e:	6001      	str	r1, [r0, #0]
 8001240:	d0e1      	beq.n	8001206 <HAL_GPIO_Init+0x16>
 8001242:	4d60      	ldr	r5, [pc, #384]	; (80013c4 <HAL_GPIO_Init+0x1d4>)
 8001244:	2100      	movs	r1, #0
 8001246:	9103      	str	r1, [sp, #12]
 8001248:	6c69      	ldr	r1, [r5, #68]	; 0x44
 800124a:	f441 4180 	orr.w	r1, r1, #16384	; 0x4000
 800124e:	6469      	str	r1, [r5, #68]	; 0x44
 8001250:	6c69      	ldr	r1, [r5, #68]	; 0x44
 8001252:	f401 4180 	and.w	r1, r1, #16384	; 0x4000
 8001256:	9103      	str	r1, [sp, #12]
 8001258:	9903      	ldr	r1, [sp, #12]
 800125a:	f023 0103 	bic.w	r1, r3, #3
 800125e:	f101 4180 	add.w	r1, r1, #1073741824	; 0x40000000
 8001262:	f501 319c 	add.w	r1, r1, #79872	; 0x13800
 8001266:	f003 0703 	and.w	r7, r3, #3
 800126a:	688d      	ldr	r5, [r1, #8]
 800126c:	00bf      	lsls	r7, r7, #2
 800126e:	f04f 0e0f 	mov.w	lr, #15
 8001272:	fa0e fe07 	lsl.w	lr, lr, r7
 8001276:	ea25 080e 	bic.w	r8, r5, lr
 800127a:	4d53      	ldr	r5, [pc, #332]	; (80013c8 <HAL_GPIO_Init+0x1d8>)
 800127c:	42a8      	cmp	r0, r5
 800127e:	d017      	beq.n	80012b0 <HAL_GPIO_Init+0xc0>
 8001280:	f505 6580 	add.w	r5, r5, #1024	; 0x400
 8001284:	42a8      	cmp	r0, r5
 8001286:	f000 8087 	beq.w	8001398 <HAL_GPIO_Init+0x1a8>
 800128a:	4d50      	ldr	r5, [pc, #320]	; (80013cc <HAL_GPIO_Init+0x1dc>)
 800128c:	42a8      	cmp	r0, r5
 800128e:	f000 8088 	beq.w	80013a2 <HAL_GPIO_Init+0x1b2>
 8001292:	4d4f      	ldr	r5, [pc, #316]	; (80013d0 <HAL_GPIO_Init+0x1e0>)
 8001294:	42a8      	cmp	r0, r5
 8001296:	f000 808b 	beq.w	80013b0 <HAL_GPIO_Init+0x1c0>
 800129a:	4d4e      	ldr	r5, [pc, #312]	; (80013d4 <HAL_GPIO_Init+0x1e4>)
 800129c:	42a8      	cmp	r0, r5
 800129e:	bf0c      	ite	eq
 80012a0:	f04f 0e04 	moveq.w	lr, #4
 80012a4:	f04f 0e07 	movne.w	lr, #7
 80012a8:	fa0e f707 	lsl.w	r7, lr, r7
 80012ac:	ea48 0807 	orr.w	r8, r8, r7
 80012b0:	f8c1 8008 	str.w	r8, [r1, #8]
 80012b4:	68b1      	ldr	r1, [r6, #8]
 80012b6:	ea6f 050b 	mvn.w	r5, fp
 80012ba:	f41c 1f80 	tst.w	ip, #1048576	; 0x100000
 80012be:	bf0c      	ite	eq
 80012c0:	4029      	andeq	r1, r5
 80012c2:	ea4b 0101 	orrne.w	r1, fp, r1
 80012c6:	60b1      	str	r1, [r6, #8]
 80012c8:	68f1      	ldr	r1, [r6, #12]
 80012ca:	f41c 1f00 	tst.w	ip, #2097152	; 0x200000
 80012ce:	bf0c      	ite	eq
 80012d0:	4029      	andeq	r1, r5
 80012d2:	ea4b 0101 	orrne.w	r1, fp, r1
 80012d6:	60f1      	str	r1, [r6, #12]
 80012d8:	6871      	ldr	r1, [r6, #4]
 80012da:	f41c 3f00 	tst.w	ip, #131072	; 0x20000
 80012de:	bf0c      	ite	eq
 80012e0:	4029      	andeq	r1, r5
 80012e2:	ea4b 0101 	orrne.w	r1, fp, r1
 80012e6:	6071      	str	r1, [r6, #4]
 80012e8:	6831      	ldr	r1, [r6, #0]
 80012ea:	f41c 3f80 	tst.w	ip, #65536	; 0x10000
 80012ee:	f103 0301 	add.w	r3, r3, #1
 80012f2:	bf0c      	ite	eq
 80012f4:	4029      	andeq	r1, r5
 80012f6:	ea4b 0101 	orrne.w	r1, fp, r1
 80012fa:	2b10      	cmp	r3, #16
 80012fc:	6031      	str	r1, [r6, #0]
 80012fe:	f102 0202 	add.w	r2, r2, #2
 8001302:	d185      	bne.n	8001210 <HAL_GPIO_Init+0x20>
 8001304:	b005      	add	sp, #20
 8001306:	e8bd 8ff0 	ldmia.w	sp!, {r4, r5, r6, r7, r8, r9, sl, fp, pc}
 800130a:	f8d9 500c 	ldr.w	r5, [r9, #12]
 800130e:	f8d0 e008 	ldr.w	lr, [r0, #8]
 8001312:	fa05 f702 	lsl.w	r7, r5, r2
 8001316:	2503      	movs	r5, #3
 8001318:	fa05 f802 	lsl.w	r8, r5, r2
 800131c:	ea2e 0e08 	bic.w	lr, lr, r8
 8001320:	ea47 070e 	orr.w	r7, r7, lr
 8001324:	6087      	str	r7, [r0, #8]
 8001326:	6847      	ldr	r7, [r0, #4]
 8001328:	ea27 0e0b 	bic.w	lr, r7, fp
 800132c:	f3cc 1700 	ubfx	r7, ip, #4, #1
 8001330:	409f      	lsls	r7, r3
 8001332:	ea47 070e 	orr.w	r7, r7, lr
 8001336:	ea6f 0508 	mvn.w	r5, r8
 800133a:	6047      	str	r7, [r0, #4]
 800133c:	68c7      	ldr	r7, [r0, #12]
 800133e:	ea07 0e05 	and.w	lr, r7, r5
 8001342:	f8d9 7008 	ldr.w	r7, [r9, #8]
 8001346:	4097      	lsls	r7, r2
 8001348:	ea47 070e 	orr.w	r7, r7, lr
 800134c:	2902      	cmp	r1, #2
 800134e:	60c7      	str	r7, [r0, #12]
 8001350:	fa01 f102 	lsl.w	r1, r1, r2
 8001354:	f47f af6e 	bne.w	8001234 <HAL_GPIO_Init+0x44>
 8001358:	ea4f 0ed3 	mov.w	lr, r3, lsr #3
 800135c:	eb00 0e8e 	add.w	lr, r0, lr, lsl #2
 8001360:	f003 0807 	and.w	r8, r3, #7
 8001364:	f8de 7020 	ldr.w	r7, [lr, #32]
 8001368:	9700      	str	r7, [sp, #0]
 800136a:	f8d9 7010 	ldr.w	r7, [r9, #16]
 800136e:	ea4f 0888 	mov.w	r8, r8, lsl #2
 8001372:	fa07 f708 	lsl.w	r7, r7, r8
 8001376:	9701      	str	r7, [sp, #4]
 8001378:	270f      	movs	r7, #15
 800137a:	fa07 f808 	lsl.w	r8, r7, r8
 800137e:	9f00      	ldr	r7, [sp, #0]
 8001380:	ea27 0808 	bic.w	r8, r7, r8
 8001384:	9f01      	ldr	r7, [sp, #4]
 8001386:	ea47 0708 	orr.w	r7, r7, r8
 800138a:	f8ce 7020 	str.w	r7, [lr, #32]
 800138e:	e751      	b.n	8001234 <HAL_GPIO_Init+0x44>
 8001390:	2503      	movs	r5, #3
 8001392:	4095      	lsls	r5, r2
 8001394:	43ed      	mvns	r5, r5
 8001396:	e7d1      	b.n	800133c <HAL_GPIO_Init+0x14c>
 8001398:	fa0a f707 	lsl.w	r7, sl, r7
 800139c:	ea48 0807 	orr.w	r8, r8, r7
 80013a0:	e786      	b.n	80012b0 <HAL_GPIO_Init+0xc0>
 80013a2:	f04f 0e02 	mov.w	lr, #2
 80013a6:	fa0e f707 	lsl.w	r7, lr, r7
 80013aa:	ea48 0807 	orr.w	r8, r8, r7
 80013ae:	e77f      	b.n	80012b0 <HAL_GPIO_Init+0xc0>
 80013b0:	f04f 0e03 	mov.w	lr, #3
 80013b4:	fa0e f707 	lsl.w	r7, lr, r7
 80013b8:	ea48 0807 	orr.w	r8, r8, r7
 80013bc:	e778      	b.n	80012b0 <HAL_GPIO_Init+0xc0>
 80013be:	bf00      	nop
 80013c0:	40013c00 	.word	0x40013c00
 80013c4:	40023800 	.word	0x40023800
 80013c8:	40020000 	.word	0x40020000
 80013cc:	40020800 	.word	0x40020800
 80013d0:	40020c00 	.word	0x40020c00
 80013d4:	40021000 	.word	0x40021000

080013d8 <HAL_PCD_Init>:
 80013d8:	b5f0      	push	{r4, r5, r6, r7, lr}
 80013da:	b08b      	sub	sp, #44	; 0x2c
 80013dc:	2800      	cmp	r0, #0
 80013de:	f000 8085 	beq.w	80014ec <HAL_PCD_Init+0x114>
 80013e2:	f890 34bd 	ldrb.w	r3, [r0, #1213]	; 0x4bd
 80013e6:	6804      	ldr	r4, [r0, #0]
 80013e8:	4605      	mov	r5, r0
 80013ea:	f003 02ff 	and.w	r2, r3, #255	; 0xff
 80013ee:	2b00      	cmp	r3, #0
 80013f0:	d076      	beq.n	80014e0 <HAL_PCD_Init+0x108>
 80013f2:	4620      	mov	r0, r4
 80013f4:	2303      	movs	r3, #3
 80013f6:	f885 34bd 	strb.w	r3, [r5, #1213]	; 0x4bd
 80013fa:	6be3      	ldr	r3, [r4, #60]	; 0x3c
 80013fc:	462e      	mov	r6, r5
 80013fe:	f413 7380 	ands.w	r3, r3, #256	; 0x100
 8001402:	bf08      	it	eq
 8001404:	612b      	streq	r3, [r5, #16]
 8001406:	f001 faab 	bl	8002960 <USB_DisableGlobalInt>
 800140a:	f856 eb10 	ldr.w	lr, [r6], #16
 800140e:	46b4      	mov	ip, r6
 8001410:	e8bc 000f 	ldmia.w	ip!, {r0, r1, r2, r3}
 8001414:	466c      	mov	r4, sp
 8001416:	c40f      	stmia	r4!, {r0, r1, r2, r3}
 8001418:	e8bc 000f 	ldmia.w	ip!, {r0, r1, r2, r3}
 800141c:	c40f      	stmia	r4!, {r0, r1, r2, r3}
 800141e:	e89c 0003 	ldmia.w	ip, {r0, r1}
 8001422:	e884 0003 	stmia.w	r4, {r0, r1}
 8001426:	1d2f      	adds	r7, r5, #4
 8001428:	e897 000e 	ldmia.w	r7, {r1, r2, r3}
 800142c:	4670      	mov	r0, lr
 800142e:	f001 f993 	bl	8002758 <USB_CoreInit>
 8001432:	4604      	mov	r4, r0
 8001434:	b130      	cbz	r0, 8001444 <HAL_PCD_Init+0x6c>
 8001436:	2401      	movs	r4, #1
 8001438:	2302      	movs	r3, #2
 800143a:	4620      	mov	r0, r4
 800143c:	f885 34bd 	strb.w	r3, [r5, #1213]	; 0x4bd
 8001440:	b00b      	add	sp, #44	; 0x2c
 8001442:	bdf0      	pop	{r4, r5, r6, r7, pc}
 8001444:	4601      	mov	r1, r0
 8001446:	6828      	ldr	r0, [r5, #0]
 8001448:	f001 fa92 	bl	8002970 <USB_SetCurrentMode>
 800144c:	6868      	ldr	r0, [r5, #4]
 800144e:	b358      	cbz	r0, 80014a8 <HAL_PCD_Init+0xd0>
 8001450:	4622      	mov	r2, r4
 8001452:	f04f 0e01 	mov.w	lr, #1
 8001456:	4621      	mov	r1, r4
 8001458:	eb02 03c2 	add.w	r3, r2, r2, lsl #3
 800145c:	eb05 0383 	add.w	r3, r5, r3, lsl #2
 8001460:	f102 0c01 	add.w	ip, r2, #1
 8001464:	f883 203c 	strb.w	r2, [r3, #60]	; 0x3c
 8001468:	f8a3 2044 	strh.w	r2, [r3, #68]	; 0x44
 800146c:	fa5f f28c 	uxtb.w	r2, ip
 8001470:	4282      	cmp	r2, r0
 8001472:	e9c3 1112 	strd	r1, r1, [r3, #72]	; 0x48
 8001476:	f883 e03d 	strb.w	lr, [r3, #61]	; 0x3d
 800147a:	f883 1040 	strb.w	r1, [r3, #64]	; 0x40
 800147e:	6559      	str	r1, [r3, #84]	; 0x54
 8001480:	d3ea      	bcc.n	8001458 <HAL_PCD_Init+0x80>
 8001482:	2200      	movs	r2, #0
 8001484:	eb04 03c4 	add.w	r3, r4, r4, lsl #3
 8001488:	eb05 0383 	add.w	r3, r5, r3, lsl #2
 800148c:	1c61      	adds	r1, r4, #1
 800148e:	f883 427c 	strb.w	r4, [r3, #636]	; 0x27c
 8001492:	b2cc      	uxtb	r4, r1
 8001494:	4284      	cmp	r4, r0
 8001496:	e9c3 22a2 	strd	r2, r2, [r3, #648]	; 0x288
 800149a:	f883 227d 	strb.w	r2, [r3, #637]	; 0x27d
 800149e:	f883 2280 	strb.w	r2, [r3, #640]	; 0x280
 80014a2:	f8c3 2294 	str.w	r2, [r3, #660]	; 0x294
 80014a6:	d3ed      	bcc.n	8001484 <HAL_PCD_Init+0xac>
 80014a8:	ce0f      	ldmia	r6!, {r0, r1, r2, r3}
 80014aa:	466c      	mov	r4, sp
 80014ac:	c40f      	stmia	r4!, {r0, r1, r2, r3}
 80014ae:	ce0f      	ldmia	r6!, {r0, r1, r2, r3}
 80014b0:	c40f      	stmia	r4!, {r0, r1, r2, r3}
 80014b2:	e896 0003 	ldmia.w	r6, {r0, r1}
 80014b6:	e884 0003 	stmia.w	r4, {r0, r1}
 80014ba:	e897 000e 	ldmia.w	r7, {r1, r2, r3}
 80014be:	6828      	ldr	r0, [r5, #0]
 80014c0:	f001 fa8e 	bl	80029e0 <USB_DevInit>
 80014c4:	4604      	mov	r4, r0
 80014c6:	2800      	cmp	r0, #0
 80014c8:	d1b5      	bne.n	8001436 <HAL_PCD_Init+0x5e>
 80014ca:	2301      	movs	r3, #1
 80014cc:	f885 0038 	strb.w	r0, [r5, #56]	; 0x38
 80014d0:	6828      	ldr	r0, [r5, #0]
 80014d2:	f885 34bd 	strb.w	r3, [r5, #1213]	; 0x4bd
 80014d6:	f001 ff33 	bl	8003340 <USB_DevDisconnect>
 80014da:	4620      	mov	r0, r4
 80014dc:	b00b      	add	sp, #44	; 0x2c
 80014de:	bdf0      	pop	{r4, r5, r6, r7, pc}
 80014e0:	f880 24bc 	strb.w	r2, [r0, #1212]	; 0x4bc
 80014e4:	f004 fd74 	bl	8005fd0 <HAL_PCD_MspInit>
 80014e8:	6828      	ldr	r0, [r5, #0]
 80014ea:	e783      	b.n	80013f4 <HAL_PCD_Init+0x1c>
 80014ec:	2401      	movs	r4, #1
 80014ee:	4620      	mov	r0, r4
 80014f0:	b00b      	add	sp, #44	; 0x2c
 80014f2:	bdf0      	pop	{r4, r5, r6, r7, pc}

080014f4 <HAL_PCD_Start>:
 80014f4:	b510      	push	{r4, lr}
 80014f6:	f890 34bc 	ldrb.w	r3, [r0, #1212]	; 0x4bc
 80014fa:	2b01      	cmp	r3, #1
 80014fc:	4604      	mov	r4, r0
 80014fe:	6800      	ldr	r0, [r0, #0]
 8001500:	d016      	beq.n	8001530 <HAL_PCD_Start+0x3c>
 8001502:	6aa3      	ldr	r3, [r4, #40]	; 0x28
 8001504:	2201      	movs	r2, #1
 8001506:	4293      	cmp	r3, r2
 8001508:	f884 24bc 	strb.w	r2, [r4, #1212]	; 0x4bc
 800150c:	d008      	beq.n	8001520 <HAL_PCD_Start+0x2c>
 800150e:	f001 fa1f 	bl	8002950 <USB_EnableGlobalInt>
 8001512:	6820      	ldr	r0, [r4, #0]
 8001514:	f001 ff04 	bl	8003320 <USB_DevConnect>
 8001518:	2000      	movs	r0, #0
 800151a:	f884 04bc 	strb.w	r0, [r4, #1212]	; 0x4bc
 800151e:	bd10      	pop	{r4, pc}
 8001520:	69a3      	ldr	r3, [r4, #24]
 8001522:	4293      	cmp	r3, r2
 8001524:	d0f3      	beq.n	800150e <HAL_PCD_Start+0x1a>
 8001526:	6b83      	ldr	r3, [r0, #56]	; 0x38
 8001528:	f443 3380 	orr.w	r3, r3, #65536	; 0x10000
 800152c:	6383      	str	r3, [r0, #56]	; 0x38
 800152e:	e7ee      	b.n	800150e <HAL_PCD_Start+0x1a>
 8001530:	2002      	movs	r0, #2
 8001532:	bd10      	pop	{r4, pc}

08001534 <HAL_PCD_IRQHandler>:
 8001534:	e92d 4ff0 	stmdb	sp!, {r4, r5, r6, r7, r8, r9, sl, fp, lr}
 8001538:	6805      	ldr	r5, [r0, #0]
 800153a:	b089      	sub	sp, #36	; 0x24
 800153c:	4604      	mov	r4, r0
 800153e:	4628      	mov	r0, r5
 8001540:	f001 ff3c 	bl	80033bc <USB_GetMode>
 8001544:	b110      	cbz	r0, 800154c <HAL_PCD_IRQHandler+0x18>
 8001546:	b009      	add	sp, #36	; 0x24
 8001548:	e8bd 8ff0 	ldmia.w	sp!, {r4, r5, r6, r7, r8, r9, sl, fp, pc}
 800154c:	4683      	mov	fp, r0
 800154e:	6820      	ldr	r0, [r4, #0]
 8001550:	f001 ff06 	bl	8003360 <USB_ReadInterrupts>
 8001554:	2800      	cmp	r0, #0
 8001556:	d0f6      	beq.n	8001546 <HAL_PCD_IRQHandler+0x12>
 8001558:	f8d5 3808 	ldr.w	r3, [r5, #2056]	; 0x808
 800155c:	6820      	ldr	r0, [r4, #0]
 800155e:	f3c3 230d 	ubfx	r3, r3, #8, #14
 8001562:	f8c4 34fc 	str.w	r3, [r4, #1276]	; 0x4fc
 8001566:	f001 fefb 	bl	8003360 <USB_ReadInterrupts>
 800156a:	f010 0f02 	tst.w	r0, #2
 800156e:	6820      	ldr	r0, [r4, #0]
 8001570:	f505 6300 	add.w	r3, r5, #2048	; 0x800
 8001574:	9303      	str	r3, [sp, #12]
 8001576:	bf1e      	ittt	ne
 8001578:	6943      	ldrne	r3, [r0, #20]
 800157a:	f003 0302 	andne.w	r3, r3, #2
 800157e:	6143      	strne	r3, [r0, #20]
 8001580:	f001 feee 	bl	8003360 <USB_ReadInterrupts>
 8001584:	f010 0f10 	tst.w	r0, #16
 8001588:	6820      	ldr	r0, [r4, #0]
 800158a:	d012      	beq.n	80015b2 <HAL_PCD_IRQHandler+0x7e>
 800158c:	6983      	ldr	r3, [r0, #24]
 800158e:	f023 0310 	bic.w	r3, r3, #16
 8001592:	6183      	str	r3, [r0, #24]
 8001594:	6a2e      	ldr	r6, [r5, #32]
 8001596:	f3c6 4343 	ubfx	r3, r6, #17, #4
 800159a:	2b02      	cmp	r3, #2
 800159c:	f006 070f 	and.w	r7, r6, #15
 80015a0:	f000 83ca 	beq.w	8001d38 <HAL_PCD_IRQHandler+0x804>
 80015a4:	2b06      	cmp	r3, #6
 80015a6:	f000 8307 	beq.w	8001bb8 <HAL_PCD_IRQHandler+0x684>
 80015aa:	6983      	ldr	r3, [r0, #24]
 80015ac:	f043 0310 	orr.w	r3, r3, #16
 80015b0:	6183      	str	r3, [r0, #24]
 80015b2:	f001 fed5 	bl	8003360 <USB_ReadInterrupts>
 80015b6:	0307      	lsls	r7, r0, #12
 80015b8:	f100 8269 	bmi.w	8001a8e <HAL_PCD_IRQHandler+0x55a>
 80015bc:	6820      	ldr	r0, [r4, #0]
 80015be:	f001 fecf 	bl	8003360 <USB_ReadInterrupts>
 80015c2:	0346      	lsls	r6, r0, #13
 80015c4:	f100 8211 	bmi.w	80019ea <HAL_PCD_IRQHandler+0x4b6>
 80015c8:	6820      	ldr	r0, [r4, #0]
 80015ca:	f001 fec9 	bl	8003360 <USB_ReadInterrupts>
 80015ce:	2800      	cmp	r0, #0
 80015d0:	f2c0 8182 	blt.w	80018d8 <HAL_PCD_IRQHandler+0x3a4>
 80015d4:	6820      	ldr	r0, [r4, #0]
 80015d6:	f001 fec3 	bl	8003360 <USB_ReadInterrupts>
 80015da:	0507      	lsls	r7, r0, #20
 80015dc:	f100 813d 	bmi.w	800185a <HAL_PCD_IRQHandler+0x326>
 80015e0:	6820      	ldr	r0, [r4, #0]
 80015e2:	f001 febd 	bl	8003360 <USB_ReadInterrupts>
 80015e6:	04c0      	lsls	r0, r0, #19
 80015e8:	f100 81a0 	bmi.w	800192c <HAL_PCD_IRQHandler+0x3f8>
 80015ec:	6820      	ldr	r0, [r4, #0]
 80015ee:	f001 feb7 	bl	8003360 <USB_ReadInterrupts>
 80015f2:	f410 5f00 	tst.w	r0, #8192	; 0x2000
 80015f6:	6820      	ldr	r0, [r4, #0]
 80015f8:	f040 8181 	bne.w	80018fe <HAL_PCD_IRQHandler+0x3ca>
 80015fc:	f001 feb0 	bl	8003360 <USB_ReadInterrupts>
 8001600:	0701      	lsls	r1, r0, #28
 8001602:	f100 81e9 	bmi.w	80019d8 <HAL_PCD_IRQHandler+0x4a4>
 8001606:	6820      	ldr	r0, [r4, #0]
 8001608:	f001 feaa 	bl	8003360 <USB_ReadInterrupts>
 800160c:	0602      	lsls	r2, r0, #24
 800160e:	d571      	bpl.n	80016f4 <HAL_PCD_IRQHandler+0x1c0>
 8001610:	69aa      	ldr	r2, [r5, #24]
 8001612:	6863      	ldr	r3, [r4, #4]
 8001614:	f022 0280 	bic.w	r2, r2, #128	; 0x80
 8001618:	2b01      	cmp	r3, #1
 800161a:	61aa      	str	r2, [r5, #24]
 800161c:	d96a      	bls.n	80016f4 <HAL_PCD_IRQHandler+0x1c0>
 800161e:	f894 22a3 	ldrb.w	r2, [r4, #675]	; 0x2a3
 8001622:	2a01      	cmp	r2, #1
 8001624:	f000 83e9 	beq.w	8001dfa <HAL_PCD_IRQHandler+0x8c6>
 8001628:	2b02      	cmp	r3, #2
 800162a:	d963      	bls.n	80016f4 <HAL_PCD_IRQHandler+0x1c0>
 800162c:	f894 22c7 	ldrb.w	r2, [r4, #711]	; 0x2c7
 8001630:	2a01      	cmp	r2, #1
 8001632:	f000 83fd 	beq.w	8001e30 <HAL_PCD_IRQHandler+0x8fc>
 8001636:	2b03      	cmp	r3, #3
 8001638:	d95c      	bls.n	80016f4 <HAL_PCD_IRQHandler+0x1c0>
 800163a:	f894 22eb 	ldrb.w	r2, [r4, #747]	; 0x2eb
 800163e:	2a01      	cmp	r2, #1
 8001640:	f000 82b3 	beq.w	8001baa <HAL_PCD_IRQHandler+0x676>
 8001644:	2b04      	cmp	r3, #4
 8001646:	d955      	bls.n	80016f4 <HAL_PCD_IRQHandler+0x1c0>
 8001648:	f894 230f 	ldrb.w	r2, [r4, #783]	; 0x30f
 800164c:	2a01      	cmp	r2, #1
 800164e:	f000 82c6 	beq.w	8001bde <HAL_PCD_IRQHandler+0x6aa>
 8001652:	2b05      	cmp	r3, #5
 8001654:	d94e      	bls.n	80016f4 <HAL_PCD_IRQHandler+0x1c0>
 8001656:	f894 2333 	ldrb.w	r2, [r4, #819]	; 0x333
 800165a:	2a01      	cmp	r2, #1
 800165c:	f000 8425 	beq.w	8001eaa <HAL_PCD_IRQHandler+0x976>
 8001660:	2b06      	cmp	r3, #6
 8001662:	d947      	bls.n	80016f4 <HAL_PCD_IRQHandler+0x1c0>
 8001664:	f894 2357 	ldrb.w	r2, [r4, #855]	; 0x357
 8001668:	2a01      	cmp	r2, #1
 800166a:	f000 8432 	beq.w	8001ed2 <HAL_PCD_IRQHandler+0x99e>
 800166e:	2b07      	cmp	r3, #7
 8001670:	d940      	bls.n	80016f4 <HAL_PCD_IRQHandler+0x1c0>
 8001672:	f894 237b 	ldrb.w	r2, [r4, #891]	; 0x37b
 8001676:	2a01      	cmp	r2, #1
 8001678:	f000 8448 	beq.w	8001f0c <HAL_PCD_IRQHandler+0x9d8>
 800167c:	2b08      	cmp	r3, #8
 800167e:	d939      	bls.n	80016f4 <HAL_PCD_IRQHandler+0x1c0>
 8001680:	f894 239f 	ldrb.w	r2, [r4, #927]	; 0x39f
 8001684:	2a01      	cmp	r2, #1
 8001686:	f000 8455 	beq.w	8001f34 <HAL_PCD_IRQHandler+0xa00>
 800168a:	2b09      	cmp	r3, #9
 800168c:	d932      	bls.n	80016f4 <HAL_PCD_IRQHandler+0x1c0>
 800168e:	f894 23c3 	ldrb.w	r2, [r4, #963]	; 0x3c3
 8001692:	2a01      	cmp	r2, #1
 8001694:	f000 8462 	beq.w	8001f5c <HAL_PCD_IRQHandler+0xa28>
 8001698:	2b0a      	cmp	r3, #10
 800169a:	d92b      	bls.n	80016f4 <HAL_PCD_IRQHandler+0x1c0>
 800169c:	f894 23e7 	ldrb.w	r2, [r4, #999]	; 0x3e7
 80016a0:	2a01      	cmp	r2, #1
 80016a2:	f000 846f 	beq.w	8001f84 <HAL_PCD_IRQHandler+0xa50>
 80016a6:	2b0b      	cmp	r3, #11
 80016a8:	d924      	bls.n	80016f4 <HAL_PCD_IRQHandler+0x1c0>
 80016aa:	f894 240b 	ldrb.w	r2, [r4, #1035]	; 0x40b
 80016ae:	2a01      	cmp	r2, #1
 80016b0:	f000 847c 	beq.w	8001fac <HAL_PCD_IRQHandler+0xa78>
 80016b4:	2b0c      	cmp	r3, #12
 80016b6:	d91d      	bls.n	80016f4 <HAL_PCD_IRQHandler+0x1c0>
 80016b8:	f894 242f 	ldrb.w	r2, [r4, #1071]	; 0x42f
 80016bc:	2a01      	cmp	r2, #1
 80016be:	f000 847d 	beq.w	8001fbc <HAL_PCD_IRQHandler+0xa88>
 80016c2:	2b0d      	cmp	r3, #13
 80016c4:	d916      	bls.n	80016f4 <HAL_PCD_IRQHandler+0x1c0>
 80016c6:	f894 2453 	ldrb.w	r2, [r4, #1107]	; 0x453
 80016ca:	2a01      	cmp	r2, #1
 80016cc:	f000 849d 	beq.w	800200a <HAL_PCD_IRQHandler+0xad6>
 80016d0:	2b0e      	cmp	r3, #14
 80016d2:	d90f      	bls.n	80016f4 <HAL_PCD_IRQHandler+0x1c0>
 80016d4:	f894 2477 	ldrb.w	r2, [r4, #1143]	; 0x477
 80016d8:	2a01      	cmp	r2, #1
 80016da:	f000 84a4 	beq.w	8002026 <HAL_PCD_IRQHandler+0xaf2>
 80016de:	2b0f      	cmp	r3, #15
 80016e0:	d908      	bls.n	80016f4 <HAL_PCD_IRQHandler+0x1c0>
 80016e2:	f894 349b 	ldrb.w	r3, [r4, #1179]	; 0x49b
 80016e6:	2b01      	cmp	r3, #1
 80016e8:	d104      	bne.n	80016f4 <HAL_PCD_IRQHandler+0x1c0>
 80016ea:	6820      	ldr	r0, [r4, #0]
 80016ec:	f504 6193 	add.w	r1, r4, #1176	; 0x498
 80016f0:	f001 fd2c 	bl	800314c <USB_EPStopXfer>
 80016f4:	6820      	ldr	r0, [r4, #0]
 80016f6:	f001 fe33 	bl	8003360 <USB_ReadInterrupts>
 80016fa:	02c3      	lsls	r3, r0, #11
 80016fc:	f140 80ab 	bpl.w	8001856 <HAL_PCD_IRQHandler+0x322>
 8001700:	6863      	ldr	r3, [r4, #4]
 8001702:	2b01      	cmp	r3, #1
 8001704:	f240 8089 	bls.w	800181a <HAL_PCD_IRQHandler+0x2e6>
 8001708:	f894 2064 	ldrb.w	r2, [r4, #100]	; 0x64
 800170c:	f8d5 1920 	ldr.w	r1, [r5, #2336]	; 0x920
 8001710:	2a01      	cmp	r2, #1
 8001712:	f000 8213 	beq.w	8001b3c <HAL_PCD_IRQHandler+0x608>
 8001716:	2b02      	cmp	r3, #2
 8001718:	d97f      	bls.n	800181a <HAL_PCD_IRQHandler+0x2e6>
 800171a:	f894 2088 	ldrb.w	r2, [r4, #136]	; 0x88
 800171e:	f8d5 1940 	ldr.w	r1, [r5, #2368]	; 0x940
 8001722:	2a01      	cmp	r2, #1
 8001724:	f000 821d 	beq.w	8001b62 <HAL_PCD_IRQHandler+0x62e>
 8001728:	2b03      	cmp	r3, #3
 800172a:	d976      	bls.n	800181a <HAL_PCD_IRQHandler+0x2e6>
 800172c:	f894 20ac 	ldrb.w	r2, [r4, #172]	; 0xac
 8001730:	f8d5 1960 	ldr.w	r1, [r5, #2400]	; 0x960
 8001734:	2a01      	cmp	r2, #1
 8001736:	f000 8220 	beq.w	8001b7a <HAL_PCD_IRQHandler+0x646>
 800173a:	2b04      	cmp	r3, #4
 800173c:	d96d      	bls.n	800181a <HAL_PCD_IRQHandler+0x2e6>
 800173e:	f894 20d0 	ldrb.w	r2, [r4, #208]	; 0xd0
 8001742:	f8d5 1980 	ldr.w	r1, [r5, #2432]	; 0x980
 8001746:	2a01      	cmp	r2, #1
 8001748:	f000 8223 	beq.w	8001b92 <HAL_PCD_IRQHandler+0x65e>
 800174c:	2b05      	cmp	r3, #5
 800174e:	d964      	bls.n	800181a <HAL_PCD_IRQHandler+0x2e6>
 8001750:	f894 20f4 	ldrb.w	r2, [r4, #244]	; 0xf4
 8001754:	f8d5 19a0 	ldr.w	r1, [r5, #2464]	; 0x9a0
 8001758:	2a01      	cmp	r2, #1
 800175a:	f000 8342 	beq.w	8001de2 <HAL_PCD_IRQHandler+0x8ae>
 800175e:	2b06      	cmp	r3, #6
 8001760:	d95b      	bls.n	800181a <HAL_PCD_IRQHandler+0x2e6>
 8001762:	f894 2118 	ldrb.w	r2, [r4, #280]	; 0x118
 8001766:	f8d5 19c0 	ldr.w	r1, [r5, #2496]	; 0x9c0
 800176a:	2a01      	cmp	r2, #1
 800176c:	f000 8354 	beq.w	8001e18 <HAL_PCD_IRQHandler+0x8e4>
 8001770:	2b07      	cmp	r3, #7
 8001772:	d952      	bls.n	800181a <HAL_PCD_IRQHandler+0x2e6>
 8001774:	f894 213c 	ldrb.w	r2, [r4, #316]	; 0x13c
 8001778:	f8d5 19e0 	ldr.w	r1, [r5, #2528]	; 0x9e0
 800177c:	2a01      	cmp	r2, #1
 800177e:	f000 835f 	beq.w	8001e40 <HAL_PCD_IRQHandler+0x90c>
 8001782:	2b08      	cmp	r3, #8
 8001784:	d949      	bls.n	800181a <HAL_PCD_IRQHandler+0x2e6>
 8001786:	f894 2160 	ldrb.w	r2, [r4, #352]	; 0x160
 800178a:	f8d5 1a00 	ldr.w	r1, [r5, #2560]	; 0xa00
 800178e:	2a01      	cmp	r2, #1
 8001790:	f000 8362 	beq.w	8001e58 <HAL_PCD_IRQHandler+0x924>
 8001794:	2b09      	cmp	r3, #9
 8001796:	d940      	bls.n	800181a <HAL_PCD_IRQHandler+0x2e6>
 8001798:	f894 2184 	ldrb.w	r2, [r4, #388]	; 0x184
 800179c:	f8d5 1a20 	ldr.w	r1, [r5, #2592]	; 0xa20
 80017a0:	2a01      	cmp	r2, #1
 80017a2:	f000 8376 	beq.w	8001e92 <HAL_PCD_IRQHandler+0x95e>
 80017a6:	2b0a      	cmp	r3, #10
 80017a8:	d937      	bls.n	800181a <HAL_PCD_IRQHandler+0x2e6>
 80017aa:	f894 21a8 	ldrb.w	r2, [r4, #424]	; 0x1a8
 80017ae:	f8d5 1a40 	ldr.w	r1, [r5, #2624]	; 0xa40
 80017b2:	2a01      	cmp	r2, #1
 80017b4:	f000 8381 	beq.w	8001eba <HAL_PCD_IRQHandler+0x986>
 80017b8:	2b0b      	cmp	r3, #11
 80017ba:	d92e      	bls.n	800181a <HAL_PCD_IRQHandler+0x2e6>
 80017bc:	f894 21cc 	ldrb.w	r2, [r4, #460]	; 0x1cc
 80017c0:	f8d5 1a60 	ldr.w	r1, [r5, #2656]	; 0xa60
 80017c4:	2a01      	cmp	r2, #1
 80017c6:	f000 8395 	beq.w	8001ef4 <HAL_PCD_IRQHandler+0x9c0>
 80017ca:	2b0c      	cmp	r3, #12
 80017cc:	d925      	bls.n	800181a <HAL_PCD_IRQHandler+0x2e6>
 80017ce:	f894 21f0 	ldrb.w	r2, [r4, #496]	; 0x1f0
 80017d2:	f8d5 1a80 	ldr.w	r1, [r5, #2688]	; 0xa80
 80017d6:	2a01      	cmp	r2, #1
 80017d8:	f000 83a0 	beq.w	8001f1c <HAL_PCD_IRQHandler+0x9e8>
 80017dc:	2b0d      	cmp	r3, #13
 80017de:	d91c      	bls.n	800181a <HAL_PCD_IRQHandler+0x2e6>
 80017e0:	f894 2214 	ldrb.w	r2, [r4, #532]	; 0x214
 80017e4:	f8d5 1aa0 	ldr.w	r1, [r5, #2720]	; 0xaa0
 80017e8:	2a01      	cmp	r2, #1
 80017ea:	f000 83ab 	beq.w	8001f44 <HAL_PCD_IRQHandler+0xa10>
 80017ee:	2b0e      	cmp	r3, #14
 80017f0:	d913      	bls.n	800181a <HAL_PCD_IRQHandler+0x2e6>
 80017f2:	f894 2238 	ldrb.w	r2, [r4, #568]	; 0x238
 80017f6:	f8d5 1ac0 	ldr.w	r1, [r5, #2752]	; 0xac0
 80017fa:	2a01      	cmp	r2, #1
 80017fc:	f000 83b6 	beq.w	8001f6c <HAL_PCD_IRQHandler+0xa38>
 8001800:	2b0f      	cmp	r3, #15
 8001802:	d90a      	bls.n	800181a <HAL_PCD_IRQHandler+0x2e6>
 8001804:	f894 225c 	ldrb.w	r2, [r4, #604]	; 0x25c
 8001808:	f8d5 1ae0 	ldr.w	r1, [r5, #2784]	; 0xae0
 800180c:	2a01      	cmp	r2, #1
 800180e:	f000 83c1 	beq.w	8001f94 <HAL_PCD_IRQHandler+0xa60>
 8001812:	2b10      	cmp	r3, #16
 8001814:	d901      	bls.n	800181a <HAL_PCD_IRQHandler+0x2e6>
 8001816:	f8d5 3b00 	ldr.w	r3, [r5, #2816]	; 0xb00
 800181a:	6820      	ldr	r0, [r4, #0]
 800181c:	6943      	ldr	r3, [r0, #20]
 800181e:	f403 1380 	and.w	r3, r3, #1048576	; 0x100000
 8001822:	6143      	str	r3, [r0, #20]
 8001824:	f001 fd9c 	bl	8003360 <USB_ReadInterrupts>
 8001828:	0287      	lsls	r7, r0, #10
 800182a:	d421      	bmi.n	8001870 <HAL_PCD_IRQHandler+0x33c>
 800182c:	6820      	ldr	r0, [r4, #0]
 800182e:	f001 fd97 	bl	8003360 <USB_ReadInterrupts>
 8001832:	0040      	lsls	r0, r0, #1
 8001834:	f100 80c7 	bmi.w	80019c6 <HAL_PCD_IRQHandler+0x492>
 8001838:	6820      	ldr	r0, [r4, #0]
 800183a:	f001 fd91 	bl	8003360 <USB_ReadInterrupts>
 800183e:	0741      	lsls	r1, r0, #29
 8001840:	f57f ae81 	bpl.w	8001546 <HAL_PCD_IRQHandler+0x12>
 8001844:	6823      	ldr	r3, [r4, #0]
 8001846:	685d      	ldr	r5, [r3, #4]
 8001848:	076a      	lsls	r2, r5, #29
 800184a:	f100 8296 	bmi.w	8001d7a <HAL_PCD_IRQHandler+0x846>
 800184e:	685a      	ldr	r2, [r3, #4]
 8001850:	432a      	orrs	r2, r5
 8001852:	605a      	str	r2, [r3, #4]
 8001854:	e677      	b.n	8001546 <HAL_PCD_IRQHandler+0x12>
 8001856:	6820      	ldr	r0, [r4, #0]
 8001858:	e7e4      	b.n	8001824 <HAL_PCD_IRQHandler+0x2f0>
 800185a:	9b03      	ldr	r3, [sp, #12]
 800185c:	689b      	ldr	r3, [r3, #8]
 800185e:	07de      	lsls	r6, r3, #31
 8001860:	f100 8287 	bmi.w	8001d72 <HAL_PCD_IRQHandler+0x83e>
 8001864:	6820      	ldr	r0, [r4, #0]
 8001866:	6943      	ldr	r3, [r0, #20]
 8001868:	f403 6300 	and.w	r3, r3, #2048	; 0x800
 800186c:	6143      	str	r3, [r0, #20]
 800186e:	e6b8      	b.n	80015e2 <HAL_PCD_IRQHandler+0xae>
 8001870:	f8d4 c004 	ldr.w	ip, [r4, #4]
 8001874:	f1bc 0f01 	cmp.w	ip, #1
 8001878:	d928      	bls.n	80018cc <HAL_PCD_IRQHandler+0x398>
 800187a:	f505 6232 	add.w	r2, r5, #2848	; 0xb20
 800187e:	4623      	mov	r3, r4
 8001880:	2101      	movs	r1, #1
 8001882:	e006      	b.n	8001892 <HAL_PCD_IRQHandler+0x35e>
 8001884:	3101      	adds	r1, #1
 8001886:	4561      	cmp	r1, ip
 8001888:	f102 0220 	add.w	r2, r2, #32
 800188c:	f103 0324 	add.w	r3, r3, #36	; 0x24
 8001890:	d01c      	beq.n	80018cc <HAL_PCD_IRQHandler+0x398>
 8001892:	f893 02a4 	ldrb.w	r0, [r3, #676]	; 0x2a4
 8001896:	6816      	ldr	r6, [r2, #0]
 8001898:	2801      	cmp	r0, #1
 800189a:	d1f3      	bne.n	8001884 <HAL_PCD_IRQHandler+0x350>
 800189c:	2e00      	cmp	r6, #0
 800189e:	daf1      	bge.n	8001884 <HAL_PCD_IRQHandler+0x350>
 80018a0:	f8d4 74fc 	ldr.w	r7, [r4, #1276]	; 0x4fc
 80018a4:	f406 3680 	and.w	r6, r6, #65536	; 0x10000
 80018a8:	f007 0701 	and.w	r7, r7, #1
 80018ac:	42be      	cmp	r6, r7
 80018ae:	d1e9      	bne.n	8001884 <HAL_PCD_IRQHandler+0x350>
 80018b0:	f883 02a3 	strb.w	r0, [r3, #675]	; 0x2a3
 80018b4:	69a8      	ldr	r0, [r5, #24]
 80018b6:	f040 0080 	orr.w	r0, r0, #128	; 0x80
 80018ba:	61a8      	str	r0, [r5, #24]
 80018bc:	6968      	ldr	r0, [r5, #20]
 80018be:	0606      	lsls	r6, r0, #24
 80018c0:	d4e0      	bmi.n	8001884 <HAL_PCD_IRQHandler+0x350>
 80018c2:	9a03      	ldr	r2, [sp, #12]
 80018c4:	6853      	ldr	r3, [r2, #4]
 80018c6:	f443 7300 	orr.w	r3, r3, #512	; 0x200
 80018ca:	6053      	str	r3, [r2, #4]
 80018cc:	6820      	ldr	r0, [r4, #0]
 80018ce:	6943      	ldr	r3, [r0, #20]
 80018d0:	f403 1300 	and.w	r3, r3, #2097152	; 0x200000
 80018d4:	6143      	str	r3, [r0, #20]
 80018d6:	e7aa      	b.n	800182e <HAL_PCD_IRQHandler+0x2fa>
 80018d8:	9a03      	ldr	r2, [sp, #12]
 80018da:	6853      	ldr	r3, [r2, #4]
 80018dc:	f023 0301 	bic.w	r3, r3, #1
 80018e0:	6053      	str	r3, [r2, #4]
 80018e2:	f894 34f4 	ldrb.w	r3, [r4, #1268]	; 0x4f4
 80018e6:	2b01      	cmp	r3, #1
 80018e8:	f000 8134 	beq.w	8001b54 <HAL_PCD_IRQHandler+0x620>
 80018ec:	4620      	mov	r0, r4
 80018ee:	f004 fbf9 	bl	80060e4 <HAL_PCD_ResumeCallback>
 80018f2:	6820      	ldr	r0, [r4, #0]
 80018f4:	6943      	ldr	r3, [r0, #20]
 80018f6:	f003 4300 	and.w	r3, r3, #2147483648	; 0x80000000
 80018fa:	6143      	str	r3, [r0, #20]
 80018fc:	e66b      	b.n	80015d6 <HAL_PCD_IRQHandler+0xa2>
 80018fe:	f001 fd61 	bl	80033c4 <USB_ActivateSetup>
 8001902:	6820      	ldr	r0, [r4, #0]
 8001904:	f001 f9b0 	bl	8002c68 <USB_GetDevSpeed>
 8001908:	60e0      	str	r0, [r4, #12]
 800190a:	6826      	ldr	r6, [r4, #0]
 800190c:	f000 fd1e 	bl	800234c <HAL_RCC_GetHCLKFreq>
 8001910:	7b22      	ldrb	r2, [r4, #12]
 8001912:	4601      	mov	r1, r0
 8001914:	4630      	mov	r0, r6
 8001916:	f000 ffa1 	bl	800285c <USB_SetTurnaroundTime>
 800191a:	4620      	mov	r0, r4
 800191c:	f004 fbb8 	bl	8006090 <HAL_PCD_ResetCallback>
 8001920:	6820      	ldr	r0, [r4, #0]
 8001922:	6943      	ldr	r3, [r0, #20]
 8001924:	f403 5300 	and.w	r3, r3, #8192	; 0x2000
 8001928:	6143      	str	r3, [r0, #20]
 800192a:	e667      	b.n	80015fc <HAL_PCD_IRQHandler+0xc8>
 800192c:	9a03      	ldr	r2, [sp, #12]
 800192e:	6820      	ldr	r0, [r4, #0]
 8001930:	6853      	ldr	r3, [r2, #4]
 8001932:	f023 0301 	bic.w	r3, r3, #1
 8001936:	6053      	str	r3, [r2, #4]
 8001938:	2110      	movs	r1, #16
 800193a:	f001 f96b 	bl	8002c14 <USB_FlushTxFifo>
 800193e:	6860      	ldr	r0, [r4, #4]
 8001940:	b1e0      	cbz	r0, 800197c <HAL_PCD_IRQHandler+0x448>
 8001942:	f505 6310 	add.w	r3, r5, #2304	; 0x900
 8001946:	f64f 317f 	movw	r1, #64383	; 0xfb7f
 800194a:	6099      	str	r1, [r3, #8]
 800194c:	681a      	ldr	r2, [r3, #0]
 800194e:	f422 1200 	bic.w	r2, r2, #2097152	; 0x200000
 8001952:	601a      	str	r2, [r3, #0]
 8001954:	f8c3 1208 	str.w	r1, [r3, #520]	; 0x208
 8001958:	f8d3 2200 	ldr.w	r2, [r3, #512]	; 0x200
 800195c:	f422 1200 	bic.w	r2, r2, #2097152	; 0x200000
 8001960:	f8c3 2200 	str.w	r2, [r3, #512]	; 0x200
 8001964:	f8d3 2200 	ldr.w	r2, [r3, #512]	; 0x200
 8001968:	f10b 0b01 	add.w	fp, fp, #1
 800196c:	f042 6200 	orr.w	r2, r2, #134217728	; 0x8000000
 8001970:	4583      	cmp	fp, r0
 8001972:	f8c3 2200 	str.w	r2, [r3, #512]	; 0x200
 8001976:	f103 0320 	add.w	r3, r3, #32
 800197a:	d1e6      	bne.n	800194a <HAL_PCD_IRQHandler+0x416>
 800197c:	9903      	ldr	r1, [sp, #12]
 800197e:	6b22      	ldr	r2, [r4, #48]	; 0x30
 8001980:	69cb      	ldr	r3, [r1, #28]
 8001982:	f043 1301 	orr.w	r3, r3, #65537	; 0x10001
 8001986:	61cb      	str	r3, [r1, #28]
 8001988:	2a00      	cmp	r2, #0
 800198a:	f040 80cc 	bne.w	8001b26 <HAL_PCD_IRQHandler+0x5f2>
 800198e:	694b      	ldr	r3, [r1, #20]
 8001990:	f443 5300 	orr.w	r3, r3, #8192	; 0x2000
 8001994:	f043 032b 	orr.w	r3, r3, #43	; 0x2b
 8001998:	614b      	str	r3, [r1, #20]
 800199a:	690b      	ldr	r3, [r1, #16]
 800199c:	f043 030b 	orr.w	r3, r3, #11
 80019a0:	610b      	str	r3, [r1, #16]
 80019a2:	f8d5 3800 	ldr.w	r3, [r5, #2048]	; 0x800
 80019a6:	7c21      	ldrb	r1, [r4, #16]
 80019a8:	6820      	ldr	r0, [r4, #0]
 80019aa:	f423 63fe 	bic.w	r3, r3, #2032	; 0x7f0
 80019ae:	f8c5 3800 	str.w	r3, [r5, #2048]	; 0x800
 80019b2:	f204 42c4 	addw	r2, r4, #1220	; 0x4c4
 80019b6:	f001 fd17 	bl	80033e8 <USB_EP0_OutStart>
 80019ba:	6820      	ldr	r0, [r4, #0]
 80019bc:	6943      	ldr	r3, [r0, #20]
 80019be:	f403 5380 	and.w	r3, r3, #4096	; 0x1000
 80019c2:	6143      	str	r3, [r0, #20]
 80019c4:	e613      	b.n	80015ee <HAL_PCD_IRQHandler+0xba>
 80019c6:	4620      	mov	r0, r4
 80019c8:	f004 fb98 	bl	80060fc <HAL_PCD_ConnectCallback>
 80019cc:	6820      	ldr	r0, [r4, #0]
 80019ce:	6943      	ldr	r3, [r0, #20]
 80019d0:	f003 4380 	and.w	r3, r3, #1073741824	; 0x40000000
 80019d4:	6143      	str	r3, [r0, #20]
 80019d6:	e730      	b.n	800183a <HAL_PCD_IRQHandler+0x306>
 80019d8:	4620      	mov	r0, r4
 80019da:	f004 fb55 	bl	8006088 <HAL_PCD_SOFCallback>
 80019de:	6820      	ldr	r0, [r4, #0]
 80019e0:	6943      	ldr	r3, [r0, #20]
 80019e2:	f003 0308 	and.w	r3, r3, #8
 80019e6:	6143      	str	r3, [r0, #20]
 80019e8:	e60e      	b.n	8001608 <HAL_PCD_IRQHandler+0xd4>
 80019ea:	6820      	ldr	r0, [r4, #0]
 80019ec:	f001 fcc4 	bl	8003378 <USB_ReadDevAllInEpInterrupt>
 80019f0:	4680      	mov	r8, r0
 80019f2:	2800      	cmp	r0, #0
 80019f4:	f43f ade8 	beq.w	80015c8 <HAL_PCD_IRQHandler+0x94>
 80019f8:	f04f 0a00 	mov.w	sl, #0
 80019fc:	6820      	ldr	r0, [r4, #0]
 80019fe:	9504      	str	r5, [sp, #16]
 8001a00:	4627      	mov	r7, r4
 8001a02:	f505 6910 	add.w	r9, r5, #2304	; 0x900
 8001a06:	4656      	mov	r6, sl
 8001a08:	f8cd b014 	str.w	fp, [sp, #20]
 8001a0c:	e009      	b.n	8001a22 <HAL_PCD_IRQHandler+0x4ee>
 8001a0e:	ea5f 0858 	movs.w	r8, r8, lsr #1
 8001a12:	f106 0601 	add.w	r6, r6, #1
 8001a16:	f107 0724 	add.w	r7, r7, #36	; 0x24
 8001a1a:	f109 0920 	add.w	r9, r9, #32
 8001a1e:	f000 80e5 	beq.w	8001bec <HAL_PCD_IRQHandler+0x6b8>
 8001a22:	f018 0f01 	tst.w	r8, #1
 8001a26:	d0f2      	beq.n	8001a0e <HAL_PCD_IRQHandler+0x4da>
 8001a28:	fa5f fa86 	uxtb.w	sl, r6
 8001a2c:	4651      	mov	r1, sl
 8001a2e:	f001 fcb5 	bl	800339c <USB_ReadDevInEPInterrupt>
 8001a32:	07c2      	lsls	r2, r0, #31
 8001a34:	4605      	mov	r5, r0
 8001a36:	d513      	bpl.n	8001a60 <HAL_PCD_IRQHandler+0x52c>
 8001a38:	9903      	ldr	r1, [sp, #12]
 8001a3a:	2001      	movs	r0, #1
 8001a3c:	6b4b      	ldr	r3, [r1, #52]	; 0x34
 8001a3e:	f006 020f 	and.w	r2, r6, #15
 8001a42:	fa00 f202 	lsl.w	r2, r0, r2
 8001a46:	ea23 0302 	bic.w	r3, r3, r2
 8001a4a:	634b      	str	r3, [r1, #52]	; 0x34
 8001a4c:	6921      	ldr	r1, [r4, #16]
 8001a4e:	f8c9 0008 	str.w	r0, [r9, #8]
 8001a52:	4281      	cmp	r1, r0
 8001a54:	f000 8196 	beq.w	8001d84 <HAL_PCD_IRQHandler+0x850>
 8001a58:	4651      	mov	r1, sl
 8001a5a:	4620      	mov	r0, r4
 8001a5c:	f004 fb0a 	bl	8006074 <HAL_PCD_DataInStageCallback>
 8001a60:	072b      	lsls	r3, r5, #28
 8001a62:	bf44      	itt	mi
 8001a64:	2308      	movmi	r3, #8
 8001a66:	f8c9 3008 	strmi.w	r3, [r9, #8]
 8001a6a:	06e8      	lsls	r0, r5, #27
 8001a6c:	bf44      	itt	mi
 8001a6e:	2310      	movmi	r3, #16
 8001a70:	f8c9 3008 	strmi.w	r3, [r9, #8]
 8001a74:	0669      	lsls	r1, r5, #25
 8001a76:	bf44      	itt	mi
 8001a78:	2340      	movmi	r3, #64	; 0x40
 8001a7a:	f8c9 3008 	strmi.w	r3, [r9, #8]
 8001a7e:	07aa      	lsls	r2, r5, #30
 8001a80:	f100 814d 	bmi.w	8001d1e <HAL_PCD_IRQHandler+0x7ea>
 8001a84:	062b      	lsls	r3, r5, #24
 8001a86:	f100 80f5 	bmi.w	8001c74 <HAL_PCD_IRQHandler+0x740>
 8001a8a:	6820      	ldr	r0, [r4, #0]
 8001a8c:	e7bf      	b.n	8001a0e <HAL_PCD_IRQHandler+0x4da>
 8001a8e:	6820      	ldr	r0, [r4, #0]
 8001a90:	f001 fc6a 	bl	8003368 <USB_ReadDevAllOutEpInterrupt>
 8001a94:	4606      	mov	r6, r0
 8001a96:	2800      	cmp	r0, #0
 8001a98:	f43f ad90 	beq.w	80015bc <HAL_PCD_IRQHandler+0x88>
 8001a9c:	f505 6730 	add.w	r7, r5, #2816	; 0xb00
 8001aa0:	46a2      	mov	sl, r4
 8001aa2:	f04f 0900 	mov.w	r9, #0
 8001aa6:	f8cd b010 	str.w	fp, [sp, #16]
 8001aaa:	e008      	b.n	8001abe <HAL_PCD_IRQHandler+0x58a>
 8001aac:	0876      	lsrs	r6, r6, #1
 8001aae:	f109 0901 	add.w	r9, r9, #1
 8001ab2:	f107 0720 	add.w	r7, r7, #32
 8001ab6:	f10a 0a24 	add.w	sl, sl, #36	; 0x24
 8001aba:	f000 809a 	beq.w	8001bf2 <HAL_PCD_IRQHandler+0x6be>
 8001abe:	07f0      	lsls	r0, r6, #31
 8001ac0:	d5f4      	bpl.n	8001aac <HAL_PCD_IRQHandler+0x578>
 8001ac2:	fa5f fb89 	uxtb.w	fp, r9
 8001ac6:	6820      	ldr	r0, [r4, #0]
 8001ac8:	4659      	mov	r1, fp
 8001aca:	f001 fc5d 	bl	8003388 <USB_ReadDevOutEPInterrupt>
 8001ace:	f010 0f01 	tst.w	r0, #1
 8001ad2:	4680      	mov	r8, r0
 8001ad4:	f040 80af 	bne.w	8001c36 <HAL_PCD_IRQHandler+0x702>
 8001ad8:	f018 0f08 	tst.w	r8, #8
 8001adc:	f040 808c 	bne.w	8001bf8 <HAL_PCD_IRQHandler+0x6c4>
 8001ae0:	f018 0f10 	tst.w	r8, #16
 8001ae4:	bf1c      	itt	ne
 8001ae6:	2210      	movne	r2, #16
 8001ae8:	60ba      	strne	r2, [r7, #8]
 8001aea:	f018 0f02 	tst.w	r8, #2
 8001aee:	d00e      	beq.n	8001b0e <HAL_PCD_IRQHandler+0x5da>
 8001af0:	696a      	ldr	r2, [r5, #20]
 8001af2:	0611      	lsls	r1, r2, #24
 8001af4:	d504      	bpl.n	8001b00 <HAL_PCD_IRQHandler+0x5cc>
 8001af6:	9b03      	ldr	r3, [sp, #12]
 8001af8:	685a      	ldr	r2, [r3, #4]
 8001afa:	f442 6280 	orr.w	r2, r2, #1024	; 0x400
 8001afe:	605a      	str	r2, [r3, #4]
 8001b00:	f89a 227f 	ldrb.w	r2, [sl, #639]	; 0x27f
 8001b04:	2a01      	cmp	r2, #1
 8001b06:	f000 817f 	beq.w	8001e08 <HAL_PCD_IRQHandler+0x8d4>
 8001b0a:	2302      	movs	r3, #2
 8001b0c:	60bb      	str	r3, [r7, #8]
 8001b0e:	f018 0f20 	tst.w	r8, #32
 8001b12:	bf1c      	itt	ne
 8001b14:	2320      	movne	r3, #32
 8001b16:	60bb      	strne	r3, [r7, #8]
 8001b18:	f418 5f00 	tst.w	r8, #8192	; 0x2000
 8001b1c:	bf1c      	itt	ne
 8001b1e:	f44f 5300 	movne.w	r3, #8192	; 0x2000
 8001b22:	60bb      	strne	r3, [r7, #8]
 8001b24:	e7c2      	b.n	8001aac <HAL_PCD_IRQHandler+0x578>
 8001b26:	f8d1 3084 	ldr.w	r3, [r1, #132]	; 0x84
 8001b2a:	f043 030b 	orr.w	r3, r3, #11
 8001b2e:	f8c1 3084 	str.w	r3, [r1, #132]	; 0x84
 8001b32:	6c4b      	ldr	r3, [r1, #68]	; 0x44
 8001b34:	f043 030b 	orr.w	r3, r3, #11
 8001b38:	644b      	str	r3, [r1, #68]	; 0x44
 8001b3a:	e732      	b.n	80019a2 <HAL_PCD_IRQHandler+0x46e>
 8001b3c:	2900      	cmp	r1, #0
 8001b3e:	f6bf adea 	bge.w	8001716 <HAL_PCD_IRQHandler+0x1e2>
 8001b42:	4621      	mov	r1, r4
 8001b44:	f884 2063 	strb.w	r2, [r4, #99]	; 0x63
 8001b48:	f851 0b60 	ldr.w	r0, [r1], #96
 8001b4c:	f001 fafe 	bl	800314c <USB_EPStopXfer>
 8001b50:	6863      	ldr	r3, [r4, #4]
 8001b52:	e5e0      	b.n	8001716 <HAL_PCD_IRQHandler+0x1e2>
 8001b54:	2100      	movs	r1, #0
 8001b56:	f884 14f4 	strb.w	r1, [r4, #1268]	; 0x4f4
 8001b5a:	4620      	mov	r0, r4
 8001b5c:	f000 fbf4 	bl	8002348 <HAL_PCDEx_LPM_Callback>
 8001b60:	e6c7      	b.n	80018f2 <HAL_PCD_IRQHandler+0x3be>
 8001b62:	2900      	cmp	r1, #0
 8001b64:	f6bf ade0 	bge.w	8001728 <HAL_PCD_IRQHandler+0x1f4>
 8001b68:	4621      	mov	r1, r4
 8001b6a:	f884 2087 	strb.w	r2, [r4, #135]	; 0x87
 8001b6e:	f851 0b84 	ldr.w	r0, [r1], #132
 8001b72:	f001 faeb 	bl	800314c <USB_EPStopXfer>
 8001b76:	6863      	ldr	r3, [r4, #4]
 8001b78:	e5d6      	b.n	8001728 <HAL_PCD_IRQHandler+0x1f4>
 8001b7a:	2900      	cmp	r1, #0
 8001b7c:	f6bf addd 	bge.w	800173a <HAL_PCD_IRQHandler+0x206>
 8001b80:	4621      	mov	r1, r4
 8001b82:	f884 20ab 	strb.w	r2, [r4, #171]	; 0xab
 8001b86:	f851 0ba8 	ldr.w	r0, [r1], #168
 8001b8a:	f001 fadf 	bl	800314c <USB_EPStopXfer>
 8001b8e:	6863      	ldr	r3, [r4, #4]
 8001b90:	e5d3      	b.n	800173a <HAL_PCD_IRQHandler+0x206>
 8001b92:	2900      	cmp	r1, #0
 8001b94:	f6bf adda 	bge.w	800174c <HAL_PCD_IRQHandler+0x218>
 8001b98:	4621      	mov	r1, r4
 8001b9a:	f884 20cf 	strb.w	r2, [r4, #207]	; 0xcf
 8001b9e:	f851 0bcc 	ldr.w	r0, [r1], #204
 8001ba2:	f001 fad3 	bl	800314c <USB_EPStopXfer>
 8001ba6:	6863      	ldr	r3, [r4, #4]
 8001ba8:	e5d0      	b.n	800174c <HAL_PCD_IRQHandler+0x218>
 8001baa:	6820      	ldr	r0, [r4, #0]
 8001bac:	f504 713a 	add.w	r1, r4, #744	; 0x2e8
 8001bb0:	f001 facc 	bl	800314c <USB_EPStopXfer>
 8001bb4:	6863      	ldr	r3, [r4, #4]
 8001bb6:	e545      	b.n	8001644 <HAL_PCD_IRQHandler+0x110>
 8001bb8:	2208      	movs	r2, #8
 8001bba:	f204 41c4 	addw	r1, r4, #1220	; 0x4c4
 8001bbe:	4628      	mov	r0, r5
 8001bc0:	eb07 07c7 	add.w	r7, r7, r7, lsl #3
 8001bc4:	f001 fb1c 	bl	8003200 <USB_ReadPacket>
 8001bc8:	eb04 0287 	add.w	r2, r4, r7, lsl #2
 8001bcc:	f3c6 130a 	ubfx	r3, r6, #4, #11
 8001bd0:	f8d2 129c 	ldr.w	r1, [r2, #668]	; 0x29c
 8001bd4:	6820      	ldr	r0, [r4, #0]
 8001bd6:	440b      	add	r3, r1
 8001bd8:	f8c2 329c 	str.w	r3, [r2, #668]	; 0x29c
 8001bdc:	e4e5      	b.n	80015aa <HAL_PCD_IRQHandler+0x76>
 8001bde:	6820      	ldr	r0, [r4, #0]
 8001be0:	f504 7143 	add.w	r1, r4, #780	; 0x30c
 8001be4:	f001 fab2 	bl	800314c <USB_EPStopXfer>
 8001be8:	6863      	ldr	r3, [r4, #4]
 8001bea:	e532      	b.n	8001652 <HAL_PCD_IRQHandler+0x11e>
 8001bec:	e9dd 5b04 	ldrd	r5, fp, [sp, #16]
 8001bf0:	e4eb      	b.n	80015ca <HAL_PCD_IRQHandler+0x96>
 8001bf2:	f8dd b010 	ldr.w	fp, [sp, #16]
 8001bf6:	e4e1      	b.n	80015bc <HAL_PCD_IRQHandler+0x88>
 8001bf8:	6821      	ldr	r1, [r4, #0]
 8001bfa:	4bbc      	ldr	r3, [pc, #752]	; (8001eec <HAL_PCD_IRQHandler+0x9b8>)
 8001bfc:	2208      	movs	r2, #8
 8001bfe:	60ba      	str	r2, [r7, #8]
 8001c00:	f501 6230 	add.w	r2, r1, #2816	; 0xb00
 8001c04:	6c09      	ldr	r1, [r1, #64]	; 0x40
 8001c06:	eb02 1249 	add.w	r2, r2, r9, lsl #5
 8001c0a:	4299      	cmp	r1, r3
 8001c0c:	6890      	ldr	r0, [r2, #8]
 8001c0e:	f240 80ca 	bls.w	8001da6 <HAL_PCD_IRQHandler+0x872>
 8001c12:	0400      	lsls	r0, r0, #16
 8001c14:	d502      	bpl.n	8001c1c <HAL_PCD_IRQHandler+0x6e8>
 8001c16:	f44f 4100 	mov.w	r1, #32768	; 0x8000
 8001c1a:	6091      	str	r1, [r2, #8]
 8001c1c:	4620      	mov	r0, r4
 8001c1e:	f004 fa19 	bl	8006054 <HAL_PCD_SetupStageCallback>
 8001c22:	6921      	ldr	r1, [r4, #16]
 8001c24:	2901      	cmp	r1, #1
 8001c26:	f47f af5b 	bne.w	8001ae0 <HAL_PCD_IRQHandler+0x5ac>
 8001c2a:	6820      	ldr	r0, [r4, #0]
 8001c2c:	f204 42c4 	addw	r2, r4, #1220	; 0x4c4
 8001c30:	f001 fbda 	bl	80033e8 <USB_EP0_OutStart>
 8001c34:	e754      	b.n	8001ae0 <HAL_PCD_IRQHandler+0x5ac>
 8001c36:	6820      	ldr	r0, [r4, #0]
 8001c38:	6921      	ldr	r1, [r4, #16]
 8001c3a:	2201      	movs	r2, #1
 8001c3c:	60ba      	str	r2, [r7, #8]
 8001c3e:	f500 6230 	add.w	r2, r0, #2816	; 0xb00
 8001c42:	eb02 1249 	add.w	r2, r2, r9, lsl #5
 8001c46:	2901      	cmp	r1, #1
 8001c48:	f8d0 c040 	ldr.w	ip, [r0, #64]	; 0x40
 8001c4c:	6893      	ldr	r3, [r2, #8]
 8001c4e:	f000 80ae 	beq.w	8001dae <HAL_PCD_IRQHandler+0x87a>
 8001c52:	49a7      	ldr	r1, [pc, #668]	; (8001ef0 <HAL_PCD_IRQHandler+0x9bc>)
 8001c54:	458c      	cmp	ip, r1
 8001c56:	f000 810b 	beq.w	8001e70 <HAL_PCD_IRQHandler+0x93c>
 8001c5a:	f1b9 0f00 	cmp.w	r9, #0
 8001c5e:	d104      	bne.n	8001c6a <HAL_PCD_IRQHandler+0x736>
 8001c60:	f8d4 2294 	ldr.w	r2, [r4, #660]	; 0x294
 8001c64:	2a00      	cmp	r2, #0
 8001c66:	f000 81d8 	beq.w	800201a <HAL_PCD_IRQHandler+0xae6>
 8001c6a:	4659      	mov	r1, fp
 8001c6c:	4620      	mov	r0, r4
 8001c6e:	f004 f9f7 	bl	8006060 <HAL_PCD_DataOutStageCallback>
 8001c72:	e731      	b.n	8001ad8 <HAL_PCD_IRQHandler+0x5a4>
 8001c74:	6dfb      	ldr	r3, [r7, #92]	; 0x5c
 8001c76:	6d7d      	ldr	r5, [r7, #84]	; 0x54
 8001c78:	f8d4 b000 	ldr.w	fp, [r4]
 8001c7c:	42ab      	cmp	r3, r5
 8001c7e:	4658      	mov	r0, fp
 8001c80:	f63f aec5 	bhi.w	8001a0e <HAL_PCD_IRQHandler+0x4da>
 8001c84:	f50b 6210 	add.w	r2, fp, #2304	; 0x900
 8001c88:	eb02 1246 	add.w	r2, r2, r6, lsl #5
 8001c8c:	4696      	mov	lr, r2
 8001c8e:	6992      	ldr	r2, [r2, #24]
 8001c90:	6cb9      	ldr	r1, [r7, #72]	; 0x48
 8001c92:	f8cd b01c 	str.w	fp, [sp, #28]
 8001c96:	fa1f fc82 	uxth.w	ip, r2
 8001c9a:	1aea      	subs	r2, r5, r3
 8001c9c:	428a      	cmp	r2, r1
 8001c9e:	bf28      	it	cs
 8001ca0:	460a      	movcs	r2, r1
 8001ca2:	3203      	adds	r2, #3
 8001ca4:	ebbc 0f92 	cmp.w	ip, r2, lsr #2
 8001ca8:	f0c0 8097 	bcc.w	8001dda <HAL_PCD_IRQHandler+0x8a6>
 8001cac:	4652      	mov	r2, sl
 8001cae:	9606      	str	r6, [sp, #24]
 8001cb0:	46ca      	mov	sl, r9
 8001cb2:	4626      	mov	r6, r4
 8001cb4:	46c1      	mov	r9, r8
 8001cb6:	4674      	mov	r4, lr
 8001cb8:	4690      	mov	r8, r2
 8001cba:	e019      	b.n	8001cf0 <HAL_PCD_IRQHandler+0x7bc>
 8001cbc:	1aed      	subs	r5, r5, r3
 8001cbe:	6cbb      	ldr	r3, [r7, #72]	; 0x48
 8001cc0:	6cf9      	ldr	r1, [r7, #76]	; 0x4c
 8001cc2:	429d      	cmp	r5, r3
 8001cc4:	bf28      	it	cs
 8001cc6:	461d      	movcs	r5, r3
 8001cc8:	7c33      	ldrb	r3, [r6, #16]
 8001cca:	9300      	str	r3, [sp, #0]
 8001ccc:	4642      	mov	r2, r8
 8001cce:	b2ab      	uxth	r3, r5
 8001cd0:	4658      	mov	r0, fp
 8001cd2:	f001 fa7f 	bl	80031d4 <USB_WritePacket>
 8001cd6:	6cfb      	ldr	r3, [r7, #76]	; 0x4c
 8001cd8:	69a1      	ldr	r1, [r4, #24]
 8001cda:	442b      	add	r3, r5
 8001cdc:	64fb      	str	r3, [r7, #76]	; 0x4c
 8001cde:	6dfb      	ldr	r3, [r7, #92]	; 0x5c
 8001ce0:	b289      	uxth	r1, r1
 8001ce2:	442b      	add	r3, r5
 8001ce4:	3503      	adds	r5, #3
 8001ce6:	ebb1 0f95 	cmp.w	r1, r5, lsr #2
 8001cea:	65fb      	str	r3, [r7, #92]	; 0x5c
 8001cec:	d36d      	bcc.n	8001dca <HAL_PCD_IRQHandler+0x896>
 8001cee:	6d7d      	ldr	r5, [r7, #84]	; 0x54
 8001cf0:	42ab      	cmp	r3, r5
 8001cf2:	d3e3      	bcc.n	8001cbc <HAL_PCD_IRQHandler+0x788>
 8001cf4:	4634      	mov	r4, r6
 8001cf6:	9e06      	ldr	r6, [sp, #24]
 8001cf8:	f8d4 b000 	ldr.w	fp, [r4]
 8001cfc:	46c8      	mov	r8, r9
 8001cfe:	46d1      	mov	r9, sl
 8001d00:	9b07      	ldr	r3, [sp, #28]
 8001d02:	f006 020f 	and.w	r2, r6, #15
 8001d06:	f503 6100 	add.w	r1, r3, #2048	; 0x800
 8001d0a:	2501      	movs	r5, #1
 8001d0c:	f8d3 3834 	ldr.w	r3, [r3, #2100]	; 0x834
 8001d10:	fa05 f202 	lsl.w	r2, r5, r2
 8001d14:	ea23 0302 	bic.w	r3, r3, r2
 8001d18:	4658      	mov	r0, fp
 8001d1a:	634b      	str	r3, [r1, #52]	; 0x34
 8001d1c:	e677      	b.n	8001a0e <HAL_PCD_IRQHandler+0x4da>
 8001d1e:	9804      	ldr	r0, [sp, #16]
 8001d20:	4631      	mov	r1, r6
 8001d22:	f000 ff77 	bl	8002c14 <USB_FlushTxFifo>
 8001d26:	f897 303f 	ldrb.w	r3, [r7, #63]	; 0x3f
 8001d2a:	2b01      	cmp	r3, #1
 8001d2c:	f000 80a8 	beq.w	8001e80 <HAL_PCD_IRQHandler+0x94c>
 8001d30:	2302      	movs	r3, #2
 8001d32:	f8c9 3008 	str.w	r3, [r9, #8]
 8001d36:	e6a5      	b.n	8001a84 <HAL_PCD_IRQHandler+0x550>
 8001d38:	f647 73f0 	movw	r3, #32752	; 0x7ff0
 8001d3c:	421e      	tst	r6, r3
 8001d3e:	f43f ac34 	beq.w	80015aa <HAL_PCD_IRQHandler+0x76>
 8001d42:	eb07 07c7 	add.w	r7, r7, r7, lsl #3
 8001d46:	eb04 0787 	add.w	r7, r4, r7, lsl #2
 8001d4a:	f3c6 120a 	ubfx	r2, r6, #4, #11
 8001d4e:	f8d7 128c 	ldr.w	r1, [r7, #652]	; 0x28c
 8001d52:	4628      	mov	r0, r5
 8001d54:	4616      	mov	r6, r2
 8001d56:	f001 fa53 	bl	8003200 <USB_ReadPacket>
 8001d5a:	f8d7 328c 	ldr.w	r3, [r7, #652]	; 0x28c
 8001d5e:	6820      	ldr	r0, [r4, #0]
 8001d60:	4433      	add	r3, r6
 8001d62:	f8c7 328c 	str.w	r3, [r7, #652]	; 0x28c
 8001d66:	f8d7 329c 	ldr.w	r3, [r7, #668]	; 0x29c
 8001d6a:	4433      	add	r3, r6
 8001d6c:	f8c7 329c 	str.w	r3, [r7, #668]	; 0x29c
 8001d70:	e41b      	b.n	80015aa <HAL_PCD_IRQHandler+0x76>
 8001d72:	4620      	mov	r0, r4
 8001d74:	f004 f99e 	bl	80060b4 <HAL_PCD_SuspendCallback>
 8001d78:	e574      	b.n	8001864 <HAL_PCD_IRQHandler+0x330>
 8001d7a:	4620      	mov	r0, r4
 8001d7c:	f004 f9c2 	bl	8006104 <HAL_PCD_DisconnectCallback>
 8001d80:	6823      	ldr	r3, [r4, #0]
 8001d82:	e564      	b.n	800184e <HAL_PCD_IRQHandler+0x31a>
 8001d84:	e9d7 2312 	ldrd	r2, r3, [r7, #72]	; 0x48
 8001d88:	4413      	add	r3, r2
 8001d8a:	64fb      	str	r3, [r7, #76]	; 0x4c
 8001d8c:	2e00      	cmp	r6, #0
 8001d8e:	f47f ae63 	bne.w	8001a58 <HAL_PCD_IRQHandler+0x524>
 8001d92:	6d63      	ldr	r3, [r4, #84]	; 0x54
 8001d94:	2b00      	cmp	r3, #0
 8001d96:	f47f ae5f 	bne.w	8001a58 <HAL_PCD_IRQHandler+0x524>
 8001d9a:	6820      	ldr	r0, [r4, #0]
 8001d9c:	f204 42c4 	addw	r2, r4, #1220	; 0x4c4
 8001da0:	f001 fb22 	bl	80033e8 <USB_EP0_OutStart>
 8001da4:	e658      	b.n	8001a58 <HAL_PCD_IRQHandler+0x524>
 8001da6:	4620      	mov	r0, r4
 8001da8:	f004 f954 	bl	8006054 <HAL_PCD_SetupStageCallback>
 8001dac:	e698      	b.n	8001ae0 <HAL_PCD_IRQHandler+0x5ac>
 8001dae:	0719      	lsls	r1, r3, #28
 8001db0:	f140 8097 	bpl.w	8001ee2 <HAL_PCD_IRQHandler+0x9ae>
 8001db4:	494d      	ldr	r1, [pc, #308]	; (8001eec <HAL_PCD_IRQHandler+0x9b8>)
 8001db6:	458c      	cmp	ip, r1
 8001db8:	f67f ae8e 	bls.w	8001ad8 <HAL_PCD_IRQHandler+0x5a4>
 8001dbc:	0418      	lsls	r0, r3, #16
 8001dbe:	f57f ae8b 	bpl.w	8001ad8 <HAL_PCD_IRQHandler+0x5a4>
 8001dc2:	f44f 4100 	mov.w	r1, #32768	; 0x8000
 8001dc6:	6091      	str	r1, [r2, #8]
 8001dc8:	e686      	b.n	8001ad8 <HAL_PCD_IRQHandler+0x5a4>
 8001dca:	4634      	mov	r4, r6
 8001dcc:	6d7d      	ldr	r5, [r7, #84]	; 0x54
 8001dce:	f8d4 b000 	ldr.w	fp, [r4]
 8001dd2:	9e06      	ldr	r6, [sp, #24]
 8001dd4:	46c8      	mov	r8, r9
 8001dd6:	4658      	mov	r0, fp
 8001dd8:	46d1      	mov	r9, sl
 8001dda:	429d      	cmp	r5, r3
 8001ddc:	f63f ae17 	bhi.w	8001a0e <HAL_PCD_IRQHandler+0x4da>
 8001de0:	e78e      	b.n	8001d00 <HAL_PCD_IRQHandler+0x7cc>
 8001de2:	2900      	cmp	r1, #0
 8001de4:	f6bf acbb 	bge.w	800175e <HAL_PCD_IRQHandler+0x22a>
 8001de8:	4621      	mov	r1, r4
 8001dea:	f884 20f3 	strb.w	r2, [r4, #243]	; 0xf3
 8001dee:	f851 0bf0 	ldr.w	r0, [r1], #240
 8001df2:	f001 f9ab 	bl	800314c <USB_EPStopXfer>
 8001df6:	6863      	ldr	r3, [r4, #4]
 8001df8:	e4b1      	b.n	800175e <HAL_PCD_IRQHandler+0x22a>
 8001dfa:	6820      	ldr	r0, [r4, #0]
 8001dfc:	f504 7128 	add.w	r1, r4, #672	; 0x2a0
 8001e00:	f001 f9a4 	bl	800314c <USB_EPStopXfer>
 8001e04:	6863      	ldr	r3, [r4, #4]
 8001e06:	e40f      	b.n	8001628 <HAL_PCD_IRQHandler+0xf4>
 8001e08:	2300      	movs	r3, #0
 8001e0a:	4659      	mov	r1, fp
 8001e0c:	f88a 327f 	strb.w	r3, [sl, #639]	; 0x27f
 8001e10:	4620      	mov	r0, r4
 8001e12:	f004 f96b 	bl	80060ec <HAL_PCD_ISOOUTIncompleteCallback>
 8001e16:	e678      	b.n	8001b0a <HAL_PCD_IRQHandler+0x5d6>
 8001e18:	2900      	cmp	r1, #0
 8001e1a:	f6bf aca9 	bge.w	8001770 <HAL_PCD_IRQHandler+0x23c>
 8001e1e:	6820      	ldr	r0, [r4, #0]
 8001e20:	f884 2117 	strb.w	r2, [r4, #279]	; 0x117
 8001e24:	f504 718a 	add.w	r1, r4, #276	; 0x114
 8001e28:	f001 f990 	bl	800314c <USB_EPStopXfer>
 8001e2c:	6863      	ldr	r3, [r4, #4]
 8001e2e:	e49f      	b.n	8001770 <HAL_PCD_IRQHandler+0x23c>
 8001e30:	6820      	ldr	r0, [r4, #0]
 8001e32:	f504 7131 	add.w	r1, r4, #708	; 0x2c4
 8001e36:	f001 f989 	bl	800314c <USB_EPStopXfer>
 8001e3a:	6863      	ldr	r3, [r4, #4]
 8001e3c:	f7ff bbfb 	b.w	8001636 <HAL_PCD_IRQHandler+0x102>
 8001e40:	2900      	cmp	r1, #0
 8001e42:	f6bf ac9e 	bge.w	8001782 <HAL_PCD_IRQHandler+0x24e>
 8001e46:	6820      	ldr	r0, [r4, #0]
 8001e48:	f884 213b 	strb.w	r2, [r4, #315]	; 0x13b
 8001e4c:	f504 719c 	add.w	r1, r4, #312	; 0x138
 8001e50:	f001 f97c 	bl	800314c <USB_EPStopXfer>
 8001e54:	6863      	ldr	r3, [r4, #4]
 8001e56:	e494      	b.n	8001782 <HAL_PCD_IRQHandler+0x24e>
 8001e58:	2900      	cmp	r1, #0
 8001e5a:	f6bf ac9b 	bge.w	8001794 <HAL_PCD_IRQHandler+0x260>
 8001e5e:	6820      	ldr	r0, [r4, #0]
 8001e60:	f884 215f 	strb.w	r2, [r4, #351]	; 0x15f
 8001e64:	f504 71ae 	add.w	r1, r4, #348	; 0x15c
 8001e68:	f001 f970 	bl	800314c <USB_EPStopXfer>
 8001e6c:	6863      	ldr	r3, [r4, #4]
 8001e6e:	e491      	b.n	8001794 <HAL_PCD_IRQHandler+0x260>
 8001e70:	0419      	lsls	r1, r3, #16
 8001e72:	d4a6      	bmi.n	8001dc2 <HAL_PCD_IRQHandler+0x88e>
 8001e74:	069b      	lsls	r3, r3, #26
 8001e76:	f57f aef8 	bpl.w	8001c6a <HAL_PCD_IRQHandler+0x736>
 8001e7a:	2120      	movs	r1, #32
 8001e7c:	6091      	str	r1, [r2, #8]
 8001e7e:	e6f4      	b.n	8001c6a <HAL_PCD_IRQHandler+0x736>
 8001e80:	f04f 0300 	mov.w	r3, #0
 8001e84:	f887 303f 	strb.w	r3, [r7, #63]	; 0x3f
 8001e88:	4651      	mov	r1, sl
 8001e8a:	4620      	mov	r0, r4
 8001e8c:	f004 f932 	bl	80060f4 <HAL_PCD_ISOINIncompleteCallback>
 8001e90:	e74e      	b.n	8001d30 <HAL_PCD_IRQHandler+0x7fc>
 8001e92:	2900      	cmp	r1, #0
 8001e94:	f6bf ac87 	bge.w	80017a6 <HAL_PCD_IRQHandler+0x272>
 8001e98:	6820      	ldr	r0, [r4, #0]
 8001e9a:	f884 2183 	strb.w	r2, [r4, #387]	; 0x183
 8001e9e:	f504 71c0 	add.w	r1, r4, #384	; 0x180
 8001ea2:	f001 f953 	bl	800314c <USB_EPStopXfer>
 8001ea6:	6863      	ldr	r3, [r4, #4]
 8001ea8:	e47d      	b.n	80017a6 <HAL_PCD_IRQHandler+0x272>
 8001eaa:	6820      	ldr	r0, [r4, #0]
 8001eac:	f504 714c 	add.w	r1, r4, #816	; 0x330
 8001eb0:	f001 f94c 	bl	800314c <USB_EPStopXfer>
 8001eb4:	6863      	ldr	r3, [r4, #4]
 8001eb6:	f7ff bbd3 	b.w	8001660 <HAL_PCD_IRQHandler+0x12c>
 8001eba:	2900      	cmp	r1, #0
 8001ebc:	f6bf ac7c 	bge.w	80017b8 <HAL_PCD_IRQHandler+0x284>
 8001ec0:	6820      	ldr	r0, [r4, #0]
 8001ec2:	f884 21a7 	strb.w	r2, [r4, #423]	; 0x1a7
 8001ec6:	f504 71d2 	add.w	r1, r4, #420	; 0x1a4
 8001eca:	f001 f93f 	bl	800314c <USB_EPStopXfer>
 8001ece:	6863      	ldr	r3, [r4, #4]
 8001ed0:	e472      	b.n	80017b8 <HAL_PCD_IRQHandler+0x284>
 8001ed2:	6820      	ldr	r0, [r4, #0]
 8001ed4:	f504 7155 	add.w	r1, r4, #852	; 0x354
 8001ed8:	f001 f938 	bl	800314c <USB_EPStopXfer>
 8001edc:	6863      	ldr	r3, [r4, #4]
 8001ede:	f7ff bbc6 	b.w	800166e <HAL_PCD_IRQHandler+0x13a>
 8001ee2:	0699      	lsls	r1, r3, #26
 8001ee4:	d572      	bpl.n	8001fcc <HAL_PCD_IRQHandler+0xa98>
 8001ee6:	2120      	movs	r1, #32
 8001ee8:	6091      	str	r1, [r2, #8]
 8001eea:	e5f5      	b.n	8001ad8 <HAL_PCD_IRQHandler+0x5a4>
 8001eec:	4f54300a 	.word	0x4f54300a
 8001ef0:	4f54310a 	.word	0x4f54310a
 8001ef4:	2900      	cmp	r1, #0
 8001ef6:	f6bf ac68 	bge.w	80017ca <HAL_PCD_IRQHandler+0x296>
 8001efa:	6820      	ldr	r0, [r4, #0]
 8001efc:	f884 21cb 	strb.w	r2, [r4, #459]	; 0x1cb
 8001f00:	f504 71e4 	add.w	r1, r4, #456	; 0x1c8
 8001f04:	f001 f922 	bl	800314c <USB_EPStopXfer>
 8001f08:	6863      	ldr	r3, [r4, #4]
 8001f0a:	e45e      	b.n	80017ca <HAL_PCD_IRQHandler+0x296>
 8001f0c:	6820      	ldr	r0, [r4, #0]
 8001f0e:	f504 715e 	add.w	r1, r4, #888	; 0x378
 8001f12:	f001 f91b 	bl	800314c <USB_EPStopXfer>
 8001f16:	6863      	ldr	r3, [r4, #4]
 8001f18:	f7ff bbb0 	b.w	800167c <HAL_PCD_IRQHandler+0x148>
 8001f1c:	2900      	cmp	r1, #0
 8001f1e:	f6bf ac5d 	bge.w	80017dc <HAL_PCD_IRQHandler+0x2a8>
 8001f22:	6820      	ldr	r0, [r4, #0]
 8001f24:	f884 21ef 	strb.w	r2, [r4, #495]	; 0x1ef
 8001f28:	f504 71f6 	add.w	r1, r4, #492	; 0x1ec
 8001f2c:	f001 f90e 	bl	800314c <USB_EPStopXfer>
 8001f30:	6863      	ldr	r3, [r4, #4]
 8001f32:	e453      	b.n	80017dc <HAL_PCD_IRQHandler+0x2a8>
 8001f34:	6820      	ldr	r0, [r4, #0]
 8001f36:	f504 7167 	add.w	r1, r4, #924	; 0x39c
 8001f3a:	f001 f907 	bl	800314c <USB_EPStopXfer>
 8001f3e:	6863      	ldr	r3, [r4, #4]
 8001f40:	f7ff bba3 	b.w	800168a <HAL_PCD_IRQHandler+0x156>
 8001f44:	2900      	cmp	r1, #0
 8001f46:	f6bf ac52 	bge.w	80017ee <HAL_PCD_IRQHandler+0x2ba>
 8001f4a:	6820      	ldr	r0, [r4, #0]
 8001f4c:	f884 2213 	strb.w	r2, [r4, #531]	; 0x213
 8001f50:	f504 7104 	add.w	r1, r4, #528	; 0x210
 8001f54:	f001 f8fa 	bl	800314c <USB_EPStopXfer>
 8001f58:	6863      	ldr	r3, [r4, #4]
 8001f5a:	e448      	b.n	80017ee <HAL_PCD_IRQHandler+0x2ba>
 8001f5c:	6820      	ldr	r0, [r4, #0]
 8001f5e:	f504 7170 	add.w	r1, r4, #960	; 0x3c0
 8001f62:	f001 f8f3 	bl	800314c <USB_EPStopXfer>
 8001f66:	6863      	ldr	r3, [r4, #4]
 8001f68:	f7ff bb96 	b.w	8001698 <HAL_PCD_IRQHandler+0x164>
 8001f6c:	2900      	cmp	r1, #0
 8001f6e:	f6bf ac47 	bge.w	8001800 <HAL_PCD_IRQHandler+0x2cc>
 8001f72:	6820      	ldr	r0, [r4, #0]
 8001f74:	f884 2237 	strb.w	r2, [r4, #567]	; 0x237
 8001f78:	f504 710d 	add.w	r1, r4, #564	; 0x234
 8001f7c:	f001 f8e6 	bl	800314c <USB_EPStopXfer>
 8001f80:	6863      	ldr	r3, [r4, #4]
 8001f82:	e43d      	b.n	8001800 <HAL_PCD_IRQHandler+0x2cc>
 8001f84:	6820      	ldr	r0, [r4, #0]
 8001f86:	f504 7179 	add.w	r1, r4, #996	; 0x3e4
 8001f8a:	f001 f8df 	bl	800314c <USB_EPStopXfer>
 8001f8e:	6863      	ldr	r3, [r4, #4]
 8001f90:	f7ff bb89 	b.w	80016a6 <HAL_PCD_IRQHandler+0x172>
 8001f94:	2900      	cmp	r1, #0
 8001f96:	f6bf ac3c 	bge.w	8001812 <HAL_PCD_IRQHandler+0x2de>
 8001f9a:	6820      	ldr	r0, [r4, #0]
 8001f9c:	f884 225b 	strb.w	r2, [r4, #603]	; 0x25b
 8001fa0:	f504 7116 	add.w	r1, r4, #600	; 0x258
 8001fa4:	f001 f8d2 	bl	800314c <USB_EPStopXfer>
 8001fa8:	6863      	ldr	r3, [r4, #4]
 8001faa:	e432      	b.n	8001812 <HAL_PCD_IRQHandler+0x2de>
 8001fac:	6820      	ldr	r0, [r4, #0]
 8001fae:	f504 6181 	add.w	r1, r4, #1032	; 0x408
 8001fb2:	f001 f8cb 	bl	800314c <USB_EPStopXfer>
 8001fb6:	6863      	ldr	r3, [r4, #4]
 8001fb8:	f7ff bb7c 	b.w	80016b4 <HAL_PCD_IRQHandler+0x180>
 8001fbc:	6820      	ldr	r0, [r4, #0]
 8001fbe:	f204 412c 	addw	r1, r4, #1068	; 0x42c
 8001fc2:	f001 f8c3 	bl	800314c <USB_EPStopXfer>
 8001fc6:	6863      	ldr	r3, [r4, #4]
 8001fc8:	f7ff bb7b 	b.w	80016c2 <HAL_PCD_IRQHandler+0x18e>
 8001fcc:	f013 0f28 	tst.w	r3, #40	; 0x28
 8001fd0:	f47f ad82 	bne.w	8001ad8 <HAL_PCD_IRQHandler+0x5a4>
 8001fd4:	491b      	ldr	r1, [pc, #108]	; (8002044 <HAL_PCD_IRQHandler+0xb10>)
 8001fd6:	458c      	cmp	ip, r1
 8001fd8:	d902      	bls.n	8001fe0 <HAL_PCD_IRQHandler+0xaac>
 8001fda:	041b      	lsls	r3, r3, #16
 8001fdc:	f53f aef1 	bmi.w	8001dc2 <HAL_PCD_IRQHandler+0x88e>
 8001fe0:	6911      	ldr	r1, [r2, #16]
 8001fe2:	f8da 2298 	ldr.w	r2, [sl, #664]	; 0x298
 8001fe6:	f3c1 0112 	ubfx	r1, r1, #0, #19
 8001fea:	1a52      	subs	r2, r2, r1
 8001fec:	f8ca 229c 	str.w	r2, [sl, #668]	; 0x29c
 8001ff0:	f1b9 0f00 	cmp.w	r9, #0
 8001ff4:	f47f ae39 	bne.w	8001c6a <HAL_PCD_IRQHandler+0x736>
 8001ff8:	f8d4 1294 	ldr.w	r1, [r4, #660]	; 0x294
 8001ffc:	b1d9      	cbz	r1, 8002036 <HAL_PCD_IRQHandler+0xb02>
 8001ffe:	f8d4 128c 	ldr.w	r1, [r4, #652]	; 0x28c
 8002002:	4411      	add	r1, r2
 8002004:	f8c4 128c 	str.w	r1, [r4, #652]	; 0x28c
 8002008:	e62f      	b.n	8001c6a <HAL_PCD_IRQHandler+0x736>
 800200a:	6820      	ldr	r0, [r4, #0]
 800200c:	f504 618a 	add.w	r1, r4, #1104	; 0x450
 8002010:	f001 f89c 	bl	800314c <USB_EPStopXfer>
 8002014:	6863      	ldr	r3, [r4, #4]
 8002016:	f7ff bb5b 	b.w	80016d0 <HAL_PCD_IRQHandler+0x19c>
 800201a:	f204 42c4 	addw	r2, r4, #1220	; 0x4c4
 800201e:	4649      	mov	r1, r9
 8002020:	f001 f9e2 	bl	80033e8 <USB_EP0_OutStart>
 8002024:	e621      	b.n	8001c6a <HAL_PCD_IRQHandler+0x736>
 8002026:	6820      	ldr	r0, [r4, #0]
 8002028:	f204 4174 	addw	r1, r4, #1140	; 0x474
 800202c:	f001 f88e 	bl	800314c <USB_EPStopXfer>
 8002030:	6863      	ldr	r3, [r4, #4]
 8002032:	f7ff bb54 	b.w	80016de <HAL_PCD_IRQHandler+0x1aa>
 8002036:	f204 42c4 	addw	r2, r4, #1220	; 0x4c4
 800203a:	2101      	movs	r1, #1
 800203c:	f001 f9d4 	bl	80033e8 <USB_EP0_OutStart>
 8002040:	e613      	b.n	8001c6a <HAL_PCD_IRQHandler+0x736>
 8002042:	bf00      	nop
 8002044:	4f54300a 	.word	0x4f54300a

08002048 <HAL_PCD_SetAddress>:
 8002048:	f890 24bc 	ldrb.w	r2, [r0, #1212]	; 0x4bc
 800204c:	2a01      	cmp	r2, #1
 800204e:	d00d      	beq.n	800206c <HAL_PCD_SetAddress+0x24>
 8002050:	b510      	push	{r4, lr}
 8002052:	4604      	mov	r4, r0
 8002054:	2201      	movs	r2, #1
 8002056:	6800      	ldr	r0, [r0, #0]
 8002058:	f884 24bc 	strb.w	r2, [r4, #1212]	; 0x4bc
 800205c:	f884 1038 	strb.w	r1, [r4, #56]	; 0x38
 8002060:	f001 f94e 	bl	8003300 <USB_SetDevAddress>
 8002064:	2000      	movs	r0, #0
 8002066:	f884 04bc 	strb.w	r0, [r4, #1212]	; 0x4bc
 800206a:	bd10      	pop	{r4, pc}
 800206c:	2002      	movs	r0, #2
 800206e:	4770      	bx	lr

08002070 <HAL_PCD_EP_Open>:
 8002070:	b510      	push	{r4, lr}
 8002072:	f001 0e0f 	and.w	lr, r1, #15
 8002076:	0609      	lsls	r1, r1, #24
 8002078:	4604      	mov	r4, r0
 800207a:	d427      	bmi.n	80020cc <HAL_PCD_EP_Open+0x5c>
 800207c:	f04f 0c24 	mov.w	ip, #36	; 0x24
 8002080:	fb0c 0c0e 	mla	ip, ip, lr, r0
 8002084:	f50c 711f 	add.w	r1, ip, #636	; 0x27c
 8002088:	eb0e 0cce 	add.w	ip, lr, lr, lsl #3
 800208c:	eb00 0c8c 	add.w	ip, r0, ip, lsl #2
 8002090:	2000      	movs	r0, #0
 8002092:	f88c 027d 	strb.w	r0, [ip, #637]	; 0x27d
 8002096:	60ca      	str	r2, [r1, #12]
 8002098:	784a      	ldrb	r2, [r1, #1]
 800209a:	f881 e000 	strb.w	lr, [r1]
 800209e:	710b      	strb	r3, [r1, #4]
 80020a0:	b10a      	cbz	r2, 80020a6 <HAL_PCD_EP_Open+0x36>
 80020a2:	f8a1 e008 	strh.w	lr, [r1, #8]
 80020a6:	2b02      	cmp	r3, #2
 80020a8:	bf04      	itt	eq
 80020aa:	2300      	moveq	r3, #0
 80020ac:	714b      	strbeq	r3, [r1, #5]
 80020ae:	f894 34bc 	ldrb.w	r3, [r4, #1212]	; 0x4bc
 80020b2:	2b01      	cmp	r3, #1
 80020b4:	d018      	beq.n	80020e8 <HAL_PCD_EP_Open+0x78>
 80020b6:	2301      	movs	r3, #1
 80020b8:	f884 34bc 	strb.w	r3, [r4, #1212]	; 0x4bc
 80020bc:	6820      	ldr	r0, [r4, #0]
 80020be:	f000 fddf 	bl	8002c80 <USB_ActivateEndpoint>
 80020c2:	2300      	movs	r3, #0
 80020c4:	f884 34bc 	strb.w	r3, [r4, #1212]	; 0x4bc
 80020c8:	4618      	mov	r0, r3
 80020ca:	bd10      	pop	{r4, pc}
 80020cc:	2024      	movs	r0, #36	; 0x24
 80020ce:	fb00 400e 	mla	r0, r0, lr, r4
 80020d2:	f100 013c 	add.w	r1, r0, #60	; 0x3c
 80020d6:	eb0e 00ce 	add.w	r0, lr, lr, lsl #3
 80020da:	eb04 0080 	add.w	r0, r4, r0, lsl #2
 80020de:	f04f 0c01 	mov.w	ip, #1
 80020e2:	f880 c03d 	strb.w	ip, [r0, #61]	; 0x3d
 80020e6:	e7d6      	b.n	8002096 <HAL_PCD_EP_Open+0x26>
 80020e8:	2002      	movs	r0, #2
 80020ea:	bd10      	pop	{r4, pc}

080020ec <HAL_PCD_EP_Close>:
 80020ec:	f001 030f 	and.w	r3, r1, #15
 80020f0:	eb03 02c3 	add.w	r2, r3, r3, lsl #3
 80020f4:	f011 0f80 	tst.w	r1, #128	; 0x80
 80020f8:	f04f 0124 	mov.w	r1, #36	; 0x24
 80020fc:	b510      	push	{r4, lr}
 80020fe:	eb00 0282 	add.w	r2, r0, r2, lsl #2
 8002102:	4604      	mov	r4, r0
 8002104:	fb01 0103 	mla	r1, r1, r3, r0
 8002108:	d113      	bne.n	8002132 <HAL_PCD_EP_Close+0x46>
 800210a:	f501 711f 	add.w	r1, r1, #636	; 0x27c
 800210e:	2000      	movs	r0, #0
 8002110:	f882 027d 	strb.w	r0, [r2, #637]	; 0x27d
 8002114:	700b      	strb	r3, [r1, #0]
 8002116:	f894 34bc 	ldrb.w	r3, [r4, #1212]	; 0x4bc
 800211a:	2b01      	cmp	r3, #1
 800211c:	d012      	beq.n	8002144 <HAL_PCD_EP_Close+0x58>
 800211e:	2301      	movs	r3, #1
 8002120:	6820      	ldr	r0, [r4, #0]
 8002122:	f884 34bc 	strb.w	r3, [r4, #1212]	; 0x4bc
 8002126:	f000 fdf7 	bl	8002d18 <USB_DeactivateEndpoint>
 800212a:	2000      	movs	r0, #0
 800212c:	f884 04bc 	strb.w	r0, [r4, #1212]	; 0x4bc
 8002130:	bd10      	pop	{r4, pc}
 8002132:	313c      	adds	r1, #60	; 0x3c
 8002134:	2001      	movs	r0, #1
 8002136:	f882 003d 	strb.w	r0, [r2, #61]	; 0x3d
 800213a:	700b      	strb	r3, [r1, #0]
 800213c:	f894 34bc 	ldrb.w	r3, [r4, #1212]	; 0x4bc
 8002140:	2b01      	cmp	r3, #1
 8002142:	d1ec      	bne.n	800211e <HAL_PCD_EP_Close+0x32>
 8002144:	2002      	movs	r0, #2
 8002146:	bd10      	pop	{r4, pc}

08002148 <HAL_PCD_EP_Receive>:
 8002148:	b510      	push	{r4, lr}
 800214a:	f001 040f 	and.w	r4, r1, #15
 800214e:	eb04 0cc4 	add.w	ip, r4, r4, lsl #3
 8002152:	eb00 0c8c 	add.w	ip, r0, ip, lsl #2
 8002156:	2124      	movs	r1, #36	; 0x24
 8002158:	f8cc 3294 	str.w	r3, [ip, #660]	; 0x294
 800215c:	2300      	movs	r3, #0
 800215e:	f8cc 228c 	str.w	r2, [ip, #652]	; 0x28c
 8002162:	f88c 427c 	strb.w	r4, [ip, #636]	; 0x27c
 8002166:	f8cc 329c 	str.w	r3, [ip, #668]	; 0x29c
 800216a:	f88c 327d 	strb.w	r3, [ip, #637]	; 0x27d
 800216e:	6903      	ldr	r3, [r0, #16]
 8002170:	fb01 0104 	mla	r1, r1, r4, r0
 8002174:	2b01      	cmp	r3, #1
 8002176:	bf08      	it	eq
 8002178:	f8cc 2290 	streq.w	r2, [ip, #656]	; 0x290
 800217c:	6800      	ldr	r0, [r0, #0]
 800217e:	f501 711f 	add.w	r1, r1, #636	; 0x27c
 8002182:	b2da      	uxtb	r2, r3
 8002184:	b91c      	cbnz	r4, 800218e <HAL_PCD_EP_Receive+0x46>
 8002186:	f000 ff35 	bl	8002ff4 <USB_EP0StartXfer>
 800218a:	2000      	movs	r0, #0
 800218c:	bd10      	pop	{r4, pc}
 800218e:	f000 fe25 	bl	8002ddc <USB_EPStartXfer>
 8002192:	2000      	movs	r0, #0
 8002194:	bd10      	pop	{r4, pc}
 8002196:	bf00      	nop

08002198 <HAL_PCD_EP_GetRxCount>:
 8002198:	f001 010f 	and.w	r1, r1, #15
 800219c:	eb01 01c1 	add.w	r1, r1, r1, lsl #3
 80021a0:	eb00 0081 	add.w	r0, r0, r1, lsl #2
 80021a4:	f8d0 029c 	ldr.w	r0, [r0, #668]	; 0x29c
 80021a8:	4770      	bx	lr
 80021aa:	bf00      	nop

080021ac <HAL_PCD_EP_Transmit>:
 80021ac:	b510      	push	{r4, lr}
 80021ae:	f001 040f 	and.w	r4, r1, #15
 80021b2:	eb04 0cc4 	add.w	ip, r4, r4, lsl #3
 80021b6:	eb00 0c8c 	add.w	ip, r0, ip, lsl #2
 80021ba:	2124      	movs	r1, #36	; 0x24
 80021bc:	f8cc 3054 	str.w	r3, [ip, #84]	; 0x54
 80021c0:	2300      	movs	r3, #0
 80021c2:	f8cc 305c 	str.w	r3, [ip, #92]	; 0x5c
 80021c6:	2301      	movs	r3, #1
 80021c8:	f8cc 204c 	str.w	r2, [ip, #76]	; 0x4c
 80021cc:	f88c 403c 	strb.w	r4, [ip, #60]	; 0x3c
 80021d0:	f88c 303d 	strb.w	r3, [ip, #61]	; 0x3d
 80021d4:	6903      	ldr	r3, [r0, #16]
 80021d6:	fb01 0104 	mla	r1, r1, r4, r0
 80021da:	2b01      	cmp	r3, #1
 80021dc:	bf08      	it	eq
 80021de:	f8cc 2050 	streq.w	r2, [ip, #80]	; 0x50
 80021e2:	6800      	ldr	r0, [r0, #0]
 80021e4:	313c      	adds	r1, #60	; 0x3c
 80021e6:	b2da      	uxtb	r2, r3
 80021e8:	b91c      	cbnz	r4, 80021f2 <HAL_PCD_EP_Transmit+0x46>
 80021ea:	f000 ff03 	bl	8002ff4 <USB_EP0StartXfer>
 80021ee:	2000      	movs	r0, #0
 80021f0:	bd10      	pop	{r4, pc}
 80021f2:	f000 fdf3 	bl	8002ddc <USB_EPStartXfer>
 80021f6:	2000      	movs	r0, #0
 80021f8:	bd10      	pop	{r4, pc}
 80021fa:	bf00      	nop

080021fc <HAL_PCD_EP_SetStall>:
 80021fc:	b538      	push	{r3, r4, r5, lr}
 80021fe:	6843      	ldr	r3, [r0, #4]
 8002200:	f001 050f 	and.w	r5, r1, #15
 8002204:	429d      	cmp	r5, r3
 8002206:	d833      	bhi.n	8002270 <HAL_PCD_EP_SetStall+0x74>
 8002208:	060b      	lsls	r3, r1, #24
 800220a:	4604      	mov	r4, r0
 800220c:	d41c      	bmi.n	8002248 <HAL_PCD_EP_SetStall+0x4c>
 800220e:	eb01 03c1 	add.w	r3, r1, r1, lsl #3
 8002212:	2224      	movs	r2, #36	; 0x24
 8002214:	fb02 0101 	mla	r1, r2, r1, r0
 8002218:	eb00 0383 	add.w	r3, r0, r3, lsl #2
 800221c:	f501 711f 	add.w	r1, r1, #636	; 0x27c
 8002220:	2200      	movs	r2, #0
 8002222:	f883 227d 	strb.w	r2, [r3, #637]	; 0x27d
 8002226:	2301      	movs	r3, #1
 8002228:	708b      	strb	r3, [r1, #2]
 800222a:	700d      	strb	r5, [r1, #0]
 800222c:	f894 24bc 	ldrb.w	r2, [r4, #1212]	; 0x4bc
 8002230:	429a      	cmp	r2, r3
 8002232:	d01b      	beq.n	800226c <HAL_PCD_EP_SetStall+0x70>
 8002234:	6820      	ldr	r0, [r4, #0]
 8002236:	f884 34bc 	strb.w	r3, [r4, #1212]	; 0x4bc
 800223a:	f001 f807 	bl	800324c <USB_EPSetStall>
 800223e:	b1cd      	cbz	r5, 8002274 <HAL_PCD_EP_SetStall+0x78>
 8002240:	2000      	movs	r0, #0
 8002242:	f884 04bc 	strb.w	r0, [r4, #1212]	; 0x4bc
 8002246:	bd38      	pop	{r3, r4, r5, pc}
 8002248:	eb05 03c5 	add.w	r3, r5, r5, lsl #3
 800224c:	2124      	movs	r1, #36	; 0x24
 800224e:	fb01 0105 	mla	r1, r1, r5, r0
 8002252:	eb00 0383 	add.w	r3, r0, r3, lsl #2
 8002256:	2201      	movs	r2, #1
 8002258:	313c      	adds	r1, #60	; 0x3c
 800225a:	f883 203d 	strb.w	r2, [r3, #61]	; 0x3d
 800225e:	2301      	movs	r3, #1
 8002260:	708b      	strb	r3, [r1, #2]
 8002262:	700d      	strb	r5, [r1, #0]
 8002264:	f894 24bc 	ldrb.w	r2, [r4, #1212]	; 0x4bc
 8002268:	429a      	cmp	r2, r3
 800226a:	d1e3      	bne.n	8002234 <HAL_PCD_EP_SetStall+0x38>
 800226c:	2002      	movs	r0, #2
 800226e:	bd38      	pop	{r3, r4, r5, pc}
 8002270:	2001      	movs	r0, #1
 8002272:	bd38      	pop	{r3, r4, r5, pc}
 8002274:	7c21      	ldrb	r1, [r4, #16]
 8002276:	6820      	ldr	r0, [r4, #0]
 8002278:	f204 42c4 	addw	r2, r4, #1220	; 0x4c4
 800227c:	f001 f8b4 	bl	80033e8 <USB_EP0_OutStart>
 8002280:	e7de      	b.n	8002240 <HAL_PCD_EP_SetStall+0x44>
 8002282:	bf00      	nop

08002284 <HAL_PCD_EP_ClrStall>:
 8002284:	6842      	ldr	r2, [r0, #4]
 8002286:	b538      	push	{r3, r4, r5, lr}
 8002288:	f001 030f 	and.w	r3, r1, #15
 800228c:	4293      	cmp	r3, r2
 800228e:	d82e      	bhi.n	80022ee <HAL_PCD_EP_ClrStall+0x6a>
 8002290:	eb03 02c3 	add.w	r2, r3, r3, lsl #3
 8002294:	f011 0f80 	tst.w	r1, #128	; 0x80
 8002298:	f04f 0124 	mov.w	r1, #36	; 0x24
 800229c:	4604      	mov	r4, r0
 800229e:	eb00 0282 	add.w	r2, r0, r2, lsl #2
 80022a2:	fb01 0103 	mla	r1, r1, r3, r0
 80022a6:	d115      	bne.n	80022d4 <HAL_PCD_EP_ClrStall+0x50>
 80022a8:	f501 711f 	add.w	r1, r1, #636	; 0x27c
 80022ac:	2000      	movs	r0, #0
 80022ae:	2500      	movs	r5, #0
 80022b0:	f882 027d 	strb.w	r0, [r2, #637]	; 0x27d
 80022b4:	708d      	strb	r5, [r1, #2]
 80022b6:	700b      	strb	r3, [r1, #0]
 80022b8:	f894 34bc 	ldrb.w	r3, [r4, #1212]	; 0x4bc
 80022bc:	2b01      	cmp	r3, #1
 80022be:	d014      	beq.n	80022ea <HAL_PCD_EP_ClrStall+0x66>
 80022c0:	2301      	movs	r3, #1
 80022c2:	6820      	ldr	r0, [r4, #0]
 80022c4:	f884 34bc 	strb.w	r3, [r4, #1212]	; 0x4bc
 80022c8:	f000 ffee 	bl	80032a8 <USB_EPClearStall>
 80022cc:	f884 54bc 	strb.w	r5, [r4, #1212]	; 0x4bc
 80022d0:	4628      	mov	r0, r5
 80022d2:	bd38      	pop	{r3, r4, r5, pc}
 80022d4:	313c      	adds	r1, #60	; 0x3c
 80022d6:	2001      	movs	r0, #1
 80022d8:	2500      	movs	r5, #0
 80022da:	f882 003d 	strb.w	r0, [r2, #61]	; 0x3d
 80022de:	708d      	strb	r5, [r1, #2]
 80022e0:	700b      	strb	r3, [r1, #0]
 80022e2:	f894 34bc 	ldrb.w	r3, [r4, #1212]	; 0x4bc
 80022e6:	2b01      	cmp	r3, #1
 80022e8:	d1ea      	bne.n	80022c0 <HAL_PCD_EP_ClrStall+0x3c>
 80022ea:	2002      	movs	r0, #2
 80022ec:	bd38      	pop	{r3, r4, r5, pc}
 80022ee:	2001      	movs	r0, #1
 80022f0:	bd38      	pop	{r3, r4, r5, pc}
 80022f2:	bf00      	nop

080022f4 <HAL_PCDEx_SetTxFiFo>:
 80022f4:	b410      	push	{r4}
 80022f6:	6804      	ldr	r4, [r0, #0]
 80022f8:	6a63      	ldr	r3, [r4, #36]	; 0x24
 80022fa:	b931      	cbnz	r1, 800230a <HAL_PCDEx_SetTxFiFo+0x16>
 80022fc:	ea43 4202 	orr.w	r2, r3, r2, lsl #16
 8002300:	62a2      	str	r2, [r4, #40]	; 0x28
 8002302:	2000      	movs	r0, #0
 8002304:	f85d 4b04 	ldr.w	r4, [sp], #4
 8002308:	4770      	bx	lr
 800230a:	6aa0      	ldr	r0, [r4, #40]	; 0x28
 800230c:	3901      	subs	r1, #1
 800230e:	eb03 4c10 	add.w	ip, r3, r0, lsr #16
 8002312:	d00b      	beq.n	800232c <HAL_PCDEx_SetTxFiFo+0x38>
 8002314:	2300      	movs	r3, #0
 8002316:	f103 0040 	add.w	r0, r3, #64	; 0x40
 800231a:	eb04 0080 	add.w	r0, r4, r0, lsl #2
 800231e:	3301      	adds	r3, #1
 8002320:	6840      	ldr	r0, [r0, #4]
 8002322:	b2db      	uxtb	r3, r3
 8002324:	428b      	cmp	r3, r1
 8002326:	eb0c 4c10 	add.w	ip, ip, r0, lsr #16
 800232a:	d3f4      	bcc.n	8002316 <HAL_PCDEx_SetTxFiFo+0x22>
 800232c:	3140      	adds	r1, #64	; 0x40
 800232e:	eb04 0481 	add.w	r4, r4, r1, lsl #2
 8002332:	ea4c 4202 	orr.w	r2, ip, r2, lsl #16
 8002336:	6062      	str	r2, [r4, #4]
 8002338:	2000      	movs	r0, #0
 800233a:	f85d 4b04 	ldr.w	r4, [sp], #4
 800233e:	4770      	bx	lr

08002340 <HAL_PCDEx_SetRxFiFo>:
 8002340:	6803      	ldr	r3, [r0, #0]
 8002342:	2000      	movs	r0, #0
 8002344:	6259      	str	r1, [r3, #36]	; 0x24
 8002346:	4770      	bx	lr

08002348 <HAL_PCDEx_LPM_Callback>:
 8002348:	4770      	bx	lr
 800234a:	bf00      	nop

0800234c <HAL_RCC_GetHCLKFreq>:
 800234c:	4b01      	ldr	r3, [pc, #4]	; (8002354 <HAL_RCC_GetHCLKFreq+0x8>)
 800234e:	6818      	ldr	r0, [r3, #0]
 8002350:	4770      	bx	lr
 8002352:	bf00      	nop
 8002354:	20000000 	.word	0x20000000

08002358 <LL_GPIO_Init>:
 8002358:	e92d 47f0 	stmdb	sp!, {r4, r5, r6, r7, r8, r9, sl, lr}
 800235c:	680c      	ldr	r4, [r1, #0]
 800235e:	fa94 f2a4 	rbit	r2, r4
 8002362:	fab2 f282 	clz	r2, r2
 8002366:	fa34 f302 	lsrs.w	r3, r4, r2
 800236a:	d07d      	beq.n	8002468 <LL_GPIO_Init+0x110>
 800236c:	f04f 0e01 	mov.w	lr, #1
 8002370:	f04f 0c03 	mov.w	ip, #3
 8002374:	f04f 0a0f 	mov.w	sl, #15
 8002378:	e017      	b.n	80023aa <LL_GPIO_Init+0x52>
 800237a:	f8d0 8000 	ldr.w	r8, [r0]
 800237e:	fa93 f7a3 	rbit	r7, r3
 8002382:	fab7 f787 	clz	r7, r7
 8002386:	fa93 f3a3 	rbit	r3, r3
 800238a:	fab3 f383 	clz	r3, r3
 800238e:	007f      	lsls	r7, r7, #1
 8002390:	fa0c f707 	lsl.w	r7, ip, r7
 8002394:	005b      	lsls	r3, r3, #1
 8002396:	ea28 0807 	bic.w	r8, r8, r7
 800239a:	409d      	lsls	r5, r3
 800239c:	ea48 0505 	orr.w	r5, r8, r5
 80023a0:	6005      	str	r5, [r0, #0]
 80023a2:	3201      	adds	r2, #1
 80023a4:	fa34 f302 	lsrs.w	r3, r4, r2
 80023a8:	d05e      	beq.n	8002468 <LL_GPIO_Init+0x110>
 80023aa:	fa0e f302 	lsl.w	r3, lr, r2
 80023ae:	4023      	ands	r3, r4
 80023b0:	d0f7      	beq.n	80023a2 <LL_GPIO_Init+0x4a>
 80023b2:	684d      	ldr	r5, [r1, #4]
 80023b4:	1e6f      	subs	r7, r5, #1
 80023b6:	2f01      	cmp	r7, #1
 80023b8:	d81f      	bhi.n	80023fa <LL_GPIO_Init+0xa2>
 80023ba:	f8d0 8008 	ldr.w	r8, [r0, #8]
 80023be:	fa93 f7a3 	rbit	r7, r3
 80023c2:	fab7 f787 	clz	r7, r7
 80023c6:	fa93 f9a3 	rbit	r9, r3
 80023ca:	688e      	ldr	r6, [r1, #8]
 80023cc:	fab9 f989 	clz	r9, r9
 80023d0:	007f      	lsls	r7, r7, #1
 80023d2:	fa0c f707 	lsl.w	r7, ip, r7
 80023d6:	ea4f 0949 	mov.w	r9, r9, lsl #1
 80023da:	ea28 0707 	bic.w	r7, r8, r7
 80023de:	fa06 f809 	lsl.w	r8, r6, r9
 80023e2:	ea47 0708 	orr.w	r7, r7, r8
 80023e6:	6087      	str	r7, [r0, #8]
 80023e8:	6847      	ldr	r7, [r0, #4]
 80023ea:	68ce      	ldr	r6, [r1, #12]
 80023ec:	ea27 0703 	bic.w	r7, r7, r3
 80023f0:	fb06 f803 	mul.w	r8, r6, r3
 80023f4:	ea47 0708 	orr.w	r7, r7, r8
 80023f8:	6047      	str	r7, [r0, #4]
 80023fa:	f8d0 800c 	ldr.w	r8, [r0, #12]
 80023fe:	fa93 f7a3 	rbit	r7, r3
 8002402:	fab7 f787 	clz	r7, r7
 8002406:	fa93 f9a3 	rbit	r9, r3
 800240a:	007f      	lsls	r7, r7, #1
 800240c:	fa0c f707 	lsl.w	r7, ip, r7
 8002410:	ea28 0807 	bic.w	r8, r8, r7
 8002414:	fab9 f989 	clz	r9, r9
 8002418:	690f      	ldr	r7, [r1, #16]
 800241a:	ea4f 0949 	mov.w	r9, r9, lsl #1
 800241e:	fa07 f909 	lsl.w	r9, r7, r9
 8002422:	ea48 0709 	orr.w	r7, r8, r9
 8002426:	2d02      	cmp	r5, #2
 8002428:	60c7      	str	r7, [r0, #12]
 800242a:	d1a6      	bne.n	800237a <LL_GPIO_Init+0x22>
 800242c:	fa93 f7a3 	rbit	r7, r3
 8002430:	fab7 f787 	clz	r7, r7
 8002434:	2f07      	cmp	r7, #7
 8002436:	dc1a      	bgt.n	800246e <LL_GPIO_Init+0x116>
 8002438:	f8d0 8020 	ldr.w	r8, [r0, #32]
 800243c:	fa93 f7a3 	rbit	r7, r3
 8002440:	fab7 f787 	clz	r7, r7
 8002444:	fa93 f9a3 	rbit	r9, r3
 8002448:	694e      	ldr	r6, [r1, #20]
 800244a:	fab9 f989 	clz	r9, r9
 800244e:	00bf      	lsls	r7, r7, #2
 8002450:	fa0a f707 	lsl.w	r7, sl, r7
 8002454:	ea4f 0989 	mov.w	r9, r9, lsl #2
 8002458:	ea28 0707 	bic.w	r7, r8, r7
 800245c:	fa06 f809 	lsl.w	r8, r6, r9
 8002460:	ea47 0708 	orr.w	r7, r7, r8
 8002464:	6207      	str	r7, [r0, #32]
 8002466:	e788      	b.n	800237a <LL_GPIO_Init+0x22>
 8002468:	2000      	movs	r0, #0
 800246a:	e8bd 87f0 	ldmia.w	sp!, {r4, r5, r6, r7, r8, r9, sl, pc}
 800246e:	f8d0 9024 	ldr.w	r9, [r0, #36]	; 0x24
 8002472:	0a1f      	lsrs	r7, r3, #8
 8002474:	fa97 f8a7 	rbit	r8, r7
 8002478:	fab8 f888 	clz	r8, r8
 800247c:	fa97 f7a7 	rbit	r7, r7
 8002480:	694e      	ldr	r6, [r1, #20]
 8002482:	fab7 f787 	clz	r7, r7
 8002486:	ea4f 0888 	mov.w	r8, r8, lsl #2
 800248a:	fa0a f808 	lsl.w	r8, sl, r8
 800248e:	00bf      	lsls	r7, r7, #2
 8002490:	ea29 0908 	bic.w	r9, r9, r8
 8002494:	fa06 f707 	lsl.w	r7, r6, r7
 8002498:	ea49 0707 	orr.w	r7, r9, r7
 800249c:	6247      	str	r7, [r0, #36]	; 0x24
 800249e:	e76c      	b.n	800237a <LL_GPIO_Init+0x22>

080024a0 <LL_SPI_Init>:
 80024a0:	4602      	mov	r2, r0
 80024a2:	6800      	ldr	r0, [r0, #0]
 80024a4:	f010 0040 	ands.w	r0, r0, #64	; 0x40
 80024a8:	d128      	bne.n	80024fc <LL_SPI_Init+0x5c>
 80024aa:	6813      	ldr	r3, [r2, #0]
 80024ac:	b430      	push	{r4, r5}
 80024ae:	f423 4c7f 	bic.w	ip, r3, #65280	; 0xff00
 80024b2:	e9d1 3500 	ldrd	r3, r5, [r1]
 80024b6:	432b      	orrs	r3, r5
 80024b8:	688d      	ldr	r5, [r1, #8]
 80024ba:	694c      	ldr	r4, [r1, #20]
 80024bc:	432b      	orrs	r3, r5
 80024be:	68cd      	ldr	r5, [r1, #12]
 80024c0:	432b      	orrs	r3, r5
 80024c2:	690d      	ldr	r5, [r1, #16]
 80024c4:	432b      	orrs	r3, r5
 80024c6:	698d      	ldr	r5, [r1, #24]
 80024c8:	4323      	orrs	r3, r4
 80024ca:	432b      	orrs	r3, r5
 80024cc:	69cd      	ldr	r5, [r1, #28]
 80024ce:	432b      	orrs	r3, r5
 80024d0:	6a0d      	ldr	r5, [r1, #32]
 80024d2:	f02c 0cbf 	bic.w	ip, ip, #191	; 0xbf
 80024d6:	432b      	orrs	r3, r5
 80024d8:	ea43 030c 	orr.w	r3, r3, ip
 80024dc:	6013      	str	r3, [r2, #0]
 80024de:	6853      	ldr	r3, [r2, #4]
 80024e0:	f023 0304 	bic.w	r3, r3, #4
 80024e4:	ea43 4314 	orr.w	r3, r3, r4, lsr #16
 80024e8:	f5b5 5f00 	cmp.w	r5, #8192	; 0x2000
 80024ec:	6053      	str	r3, [r2, #4]
 80024ee:	d00b      	beq.n	8002508 <LL_SPI_Init+0x68>
 80024f0:	69d3      	ldr	r3, [r2, #28]
 80024f2:	f423 6300 	bic.w	r3, r3, #2048	; 0x800
 80024f6:	bc30      	pop	{r4, r5}
 80024f8:	61d3      	str	r3, [r2, #28]
 80024fa:	4770      	bx	lr
 80024fc:	69d3      	ldr	r3, [r2, #28]
 80024fe:	f423 6300 	bic.w	r3, r3, #2048	; 0x800
 8002502:	2001      	movs	r0, #1
 8002504:	61d3      	str	r3, [r2, #28]
 8002506:	4770      	bx	lr
 8002508:	8c8b      	ldrh	r3, [r1, #36]	; 0x24
 800250a:	6113      	str	r3, [r2, #16]
 800250c:	e7f0      	b.n	80024f0 <LL_SPI_Init+0x50>
 800250e:	bf00      	nop

08002510 <LL_TIM_Init>:
 8002510:	4a24      	ldr	r2, [pc, #144]	; (80025a4 <LL_TIM_Init+0x94>)
 8002512:	6803      	ldr	r3, [r0, #0]
 8002514:	4290      	cmp	r0, r2
 8002516:	b430      	push	{r4, r5}
 8002518:	d034      	beq.n	8002584 <LL_TIM_Init+0x74>
 800251a:	f1b0 4f80 	cmp.w	r0, #1073741824	; 0x40000000
 800251e:	d01d      	beq.n	800255c <LL_TIM_Init+0x4c>
 8002520:	f5a2 427c 	sub.w	r2, r2, #64512	; 0xfc00
 8002524:	4290      	cmp	r0, r2
 8002526:	d019      	beq.n	800255c <LL_TIM_Init+0x4c>
 8002528:	f502 6280 	add.w	r2, r2, #1024	; 0x400
 800252c:	4290      	cmp	r0, r2
 800252e:	d015      	beq.n	800255c <LL_TIM_Init+0x4c>
 8002530:	f502 6280 	add.w	r2, r2, #1024	; 0x400
 8002534:	4290      	cmp	r0, r2
 8002536:	d011      	beq.n	800255c <LL_TIM_Init+0x4c>
 8002538:	f502 329a 	add.w	r2, r2, #78848	; 0x13400
 800253c:	4290      	cmp	r0, r2
 800253e:	d011      	beq.n	8002564 <LL_TIM_Init+0x54>
 8002540:	f502 6280 	add.w	r2, r2, #1024	; 0x400
 8002544:	4290      	cmp	r0, r2
 8002546:	d00d      	beq.n	8002564 <LL_TIM_Init+0x54>
 8002548:	f502 6280 	add.w	r2, r2, #1024	; 0x400
 800254c:	4290      	cmp	r0, r2
 800254e:	d009      	beq.n	8002564 <LL_TIM_Init+0x54>
 8002550:	688c      	ldr	r4, [r1, #8]
 8002552:	880a      	ldrh	r2, [r1, #0]
 8002554:	6003      	str	r3, [r0, #0]
 8002556:	62c4      	str	r4, [r0, #44]	; 0x2c
 8002558:	6282      	str	r2, [r0, #40]	; 0x28
 800255a:	e00c      	b.n	8002576 <LL_TIM_Init+0x66>
 800255c:	684a      	ldr	r2, [r1, #4]
 800255e:	f023 0370 	bic.w	r3, r3, #112	; 0x70
 8002562:	4313      	orrs	r3, r2
 8002564:	68cd      	ldr	r5, [r1, #12]
 8002566:	688c      	ldr	r4, [r1, #8]
 8002568:	880a      	ldrh	r2, [r1, #0]
 800256a:	f423 7340 	bic.w	r3, r3, #768	; 0x300
 800256e:	432b      	orrs	r3, r5
 8002570:	6003      	str	r3, [r0, #0]
 8002572:	62c4      	str	r4, [r0, #44]	; 0x2c
 8002574:	6282      	str	r2, [r0, #40]	; 0x28
 8002576:	6943      	ldr	r3, [r0, #20]
 8002578:	f043 0301 	orr.w	r3, r3, #1
 800257c:	6143      	str	r3, [r0, #20]
 800257e:	bc30      	pop	{r4, r5}
 8002580:	2000      	movs	r0, #0
 8002582:	4770      	bx	lr
 8002584:	684c      	ldr	r4, [r1, #4]
 8002586:	68ca      	ldr	r2, [r1, #12]
 8002588:	f023 0370 	bic.w	r3, r3, #112	; 0x70
 800258c:	4323      	orrs	r3, r4
 800258e:	f423 7340 	bic.w	r3, r3, #768	; 0x300
 8002592:	4313      	orrs	r3, r2
 8002594:	6003      	str	r3, [r0, #0]
 8002596:	688a      	ldr	r2, [r1, #8]
 8002598:	880b      	ldrh	r3, [r1, #0]
 800259a:	62c2      	str	r2, [r0, #44]	; 0x2c
 800259c:	6283      	str	r3, [r0, #40]	; 0x28
 800259e:	690b      	ldr	r3, [r1, #16]
 80025a0:	6303      	str	r3, [r0, #48]	; 0x30
 80025a2:	e7e8      	b.n	8002576 <LL_TIM_Init+0x66>
 80025a4:	40010000 	.word	0x40010000

080025a8 <LL_TIM_OC_Init>:
 80025a8:	f5b1 7f80 	cmp.w	r1, #256	; 0x100
 80025ac:	b430      	push	{r4, r5}
 80025ae:	4603      	mov	r3, r0
 80025b0:	d06c      	beq.n	800268c <LL_TIM_OC_Init+0xe4>
 80025b2:	d825      	bhi.n	8002600 <LL_TIM_OC_Init+0x58>
 80025b4:	2901      	cmp	r1, #1
 80025b6:	d04b      	beq.n	8002650 <LL_TIM_OC_Init+0xa8>
 80025b8:	2910      	cmp	r1, #16
 80025ba:	d146      	bne.n	800264a <LL_TIM_OC_Init+0xa2>
 80025bc:	6a01      	ldr	r1, [r0, #32]
 80025be:	6915      	ldr	r5, [r2, #16]
 80025c0:	f021 0110 	bic.w	r1, r1, #16
 80025c4:	6201      	str	r1, [r0, #32]
 80025c6:	6a01      	ldr	r1, [r0, #32]
 80025c8:	6840      	ldr	r0, [r0, #4]
 80025ca:	699c      	ldr	r4, [r3, #24]
 80025cc:	f021 0120 	bic.w	r1, r1, #32
 80025d0:	ea41 1105 	orr.w	r1, r1, r5, lsl #4
 80025d4:	6815      	ldr	r5, [r2, #0]
 80025d6:	f424 44e6 	bic.w	r4, r4, #29440	; 0x7300
 80025da:	ea44 2405 	orr.w	r4, r4, r5, lsl #8
 80025de:	6855      	ldr	r5, [r2, #4]
 80025e0:	f021 0110 	bic.w	r1, r1, #16
 80025e4:	ea41 1105 	orr.w	r1, r1, r5, lsl #4
 80025e8:	4d5a      	ldr	r5, [pc, #360]	; (8002754 <LL_TIM_OC_Init+0x1ac>)
 80025ea:	42ab      	cmp	r3, r5
 80025ec:	f000 8097 	beq.w	800271e <LL_TIM_OC_Init+0x176>
 80025f0:	68d2      	ldr	r2, [r2, #12]
 80025f2:	6058      	str	r0, [r3, #4]
 80025f4:	619c      	str	r4, [r3, #24]
 80025f6:	2000      	movs	r0, #0
 80025f8:	639a      	str	r2, [r3, #56]	; 0x38
 80025fa:	bc30      	pop	{r4, r5}
 80025fc:	6219      	str	r1, [r3, #32]
 80025fe:	4770      	bx	lr
 8002600:	f5b1 5f80 	cmp.w	r1, #4096	; 0x1000
 8002604:	d121      	bne.n	800264a <LL_TIM_OC_Init+0xa2>
 8002606:	6a01      	ldr	r1, [r0, #32]
 8002608:	6915      	ldr	r5, [r2, #16]
 800260a:	f421 5180 	bic.w	r1, r1, #4096	; 0x1000
 800260e:	6201      	str	r1, [r0, #32]
 8002610:	6a01      	ldr	r1, [r0, #32]
 8002612:	6840      	ldr	r0, [r0, #4]
 8002614:	69dc      	ldr	r4, [r3, #28]
 8002616:	f421 5100 	bic.w	r1, r1, #8192	; 0x2000
 800261a:	ea41 3105 	orr.w	r1, r1, r5, lsl #12
 800261e:	6815      	ldr	r5, [r2, #0]
 8002620:	f424 44e6 	bic.w	r4, r4, #29440	; 0x7300
 8002624:	ea44 2405 	orr.w	r4, r4, r5, lsl #8
 8002628:	6855      	ldr	r5, [r2, #4]
 800262a:	f421 5180 	bic.w	r1, r1, #4096	; 0x1000
 800262e:	ea41 3105 	orr.w	r1, r1, r5, lsl #12
 8002632:	4d48      	ldr	r5, [pc, #288]	; (8002754 <LL_TIM_OC_Init+0x1ac>)
 8002634:	42ab      	cmp	r3, r5
 8002636:	f000 8087 	beq.w	8002748 <LL_TIM_OC_Init+0x1a0>
 800263a:	68d2      	ldr	r2, [r2, #12]
 800263c:	6058      	str	r0, [r3, #4]
 800263e:	61dc      	str	r4, [r3, #28]
 8002640:	2000      	movs	r0, #0
 8002642:	641a      	str	r2, [r3, #64]	; 0x40
 8002644:	bc30      	pop	{r4, r5}
 8002646:	6219      	str	r1, [r3, #32]
 8002648:	4770      	bx	lr
 800264a:	2001      	movs	r0, #1
 800264c:	bc30      	pop	{r4, r5}
 800264e:	4770      	bx	lr
 8002650:	6a01      	ldr	r1, [r0, #32]
 8002652:	6915      	ldr	r5, [r2, #16]
 8002654:	f021 0101 	bic.w	r1, r1, #1
 8002658:	6201      	str	r1, [r0, #32]
 800265a:	6a01      	ldr	r1, [r0, #32]
 800265c:	6840      	ldr	r0, [r0, #4]
 800265e:	699c      	ldr	r4, [r3, #24]
 8002660:	f021 0102 	bic.w	r1, r1, #2
 8002664:	4329      	orrs	r1, r5
 8002666:	6815      	ldr	r5, [r2, #0]
 8002668:	f024 0473 	bic.w	r4, r4, #115	; 0x73
 800266c:	432c      	orrs	r4, r5
 800266e:	6855      	ldr	r5, [r2, #4]
 8002670:	f021 0101 	bic.w	r1, r1, #1
 8002674:	4329      	orrs	r1, r5
 8002676:	4d37      	ldr	r5, [pc, #220]	; (8002754 <LL_TIM_OC_Init+0x1ac>)
 8002678:	42ab      	cmp	r3, r5
 800267a:	d03c      	beq.n	80026f6 <LL_TIM_OC_Init+0x14e>
 800267c:	68d2      	ldr	r2, [r2, #12]
 800267e:	6058      	str	r0, [r3, #4]
 8002680:	619c      	str	r4, [r3, #24]
 8002682:	2000      	movs	r0, #0
 8002684:	635a      	str	r2, [r3, #52]	; 0x34
 8002686:	bc30      	pop	{r4, r5}
 8002688:	6219      	str	r1, [r3, #32]
 800268a:	4770      	bx	lr
 800268c:	6a01      	ldr	r1, [r0, #32]
 800268e:	6915      	ldr	r5, [r2, #16]
 8002690:	f421 7180 	bic.w	r1, r1, #256	; 0x100
 8002694:	6201      	str	r1, [r0, #32]
 8002696:	6a01      	ldr	r1, [r0, #32]
 8002698:	6840      	ldr	r0, [r0, #4]
 800269a:	69dc      	ldr	r4, [r3, #28]
 800269c:	f421 7100 	bic.w	r1, r1, #512	; 0x200
 80026a0:	ea41 2105 	orr.w	r1, r1, r5, lsl #8
 80026a4:	6815      	ldr	r5, [r2, #0]
 80026a6:	f024 0473 	bic.w	r4, r4, #115	; 0x73
 80026aa:	432c      	orrs	r4, r5
 80026ac:	6855      	ldr	r5, [r2, #4]
 80026ae:	f421 7180 	bic.w	r1, r1, #256	; 0x100
 80026b2:	ea41 2105 	orr.w	r1, r1, r5, lsl #8
 80026b6:	4d27      	ldr	r5, [pc, #156]	; (8002754 <LL_TIM_OC_Init+0x1ac>)
 80026b8:	42ab      	cmp	r3, r5
 80026ba:	d007      	beq.n	80026cc <LL_TIM_OC_Init+0x124>
 80026bc:	68d2      	ldr	r2, [r2, #12]
 80026be:	6058      	str	r0, [r3, #4]
 80026c0:	61dc      	str	r4, [r3, #28]
 80026c2:	2000      	movs	r0, #0
 80026c4:	63da      	str	r2, [r3, #60]	; 0x3c
 80026c6:	bc30      	pop	{r4, r5}
 80026c8:	6219      	str	r1, [r3, #32]
 80026ca:	4770      	bx	lr
 80026cc:	6955      	ldr	r5, [r2, #20]
 80026ce:	f421 6100 	bic.w	r1, r1, #2048	; 0x800
 80026d2:	ea41 2185 	orr.w	r1, r1, r5, lsl #10
 80026d6:	6995      	ldr	r5, [r2, #24]
 80026d8:	f420 5080 	bic.w	r0, r0, #4096	; 0x1000
 80026dc:	ea40 1005 	orr.w	r0, r0, r5, lsl #4
 80026e0:	6895      	ldr	r5, [r2, #8]
 80026e2:	f421 6180 	bic.w	r1, r1, #1024	; 0x400
 80026e6:	ea41 2185 	orr.w	r1, r1, r5, lsl #10
 80026ea:	69d5      	ldr	r5, [r2, #28]
 80026ec:	f420 5000 	bic.w	r0, r0, #8192	; 0x2000
 80026f0:	ea40 1045 	orr.w	r0, r0, r5, lsl #5
 80026f4:	e7e2      	b.n	80026bc <LL_TIM_OC_Init+0x114>
 80026f6:	6955      	ldr	r5, [r2, #20]
 80026f8:	f021 0108 	bic.w	r1, r1, #8
 80026fc:	ea41 0185 	orr.w	r1, r1, r5, lsl #2
 8002700:	6995      	ldr	r5, [r2, #24]
 8002702:	f420 7080 	bic.w	r0, r0, #256	; 0x100
 8002706:	4328      	orrs	r0, r5
 8002708:	6895      	ldr	r5, [r2, #8]
 800270a:	f021 0104 	bic.w	r1, r1, #4
 800270e:	ea41 0185 	orr.w	r1, r1, r5, lsl #2
 8002712:	69d5      	ldr	r5, [r2, #28]
 8002714:	f420 7000 	bic.w	r0, r0, #512	; 0x200
 8002718:	ea40 0045 	orr.w	r0, r0, r5, lsl #1
 800271c:	e7ae      	b.n	800267c <LL_TIM_OC_Init+0xd4>
 800271e:	6955      	ldr	r5, [r2, #20]
 8002720:	f021 0180 	bic.w	r1, r1, #128	; 0x80
 8002724:	ea41 1185 	orr.w	r1, r1, r5, lsl #6
 8002728:	6995      	ldr	r5, [r2, #24]
 800272a:	f420 6080 	bic.w	r0, r0, #1024	; 0x400
 800272e:	ea40 0085 	orr.w	r0, r0, r5, lsl #2
 8002732:	6895      	ldr	r5, [r2, #8]
 8002734:	f021 0140 	bic.w	r1, r1, #64	; 0x40
 8002738:	ea41 1185 	orr.w	r1, r1, r5, lsl #6
 800273c:	69d5      	ldr	r5, [r2, #28]
 800273e:	f420 6000 	bic.w	r0, r0, #2048	; 0x800
 8002742:	ea40 00c5 	orr.w	r0, r0, r5, lsl #3
 8002746:	e753      	b.n	80025f0 <LL_TIM_OC_Init+0x48>
 8002748:	6995      	ldr	r5, [r2, #24]
 800274a:	f420 4080 	bic.w	r0, r0, #16384	; 0x4000
 800274e:	ea40 1085 	orr.w	r0, r0, r5, lsl #6
 8002752:	e772      	b.n	800263a <LL_TIM_OC_Init+0x92>
 8002754:	40010000 	.word	0x40010000

08002758 <USB_CoreInit>:
 8002758:	b084      	sub	sp, #16
 800275a:	b082      	sub	sp, #8
 800275c:	f10d 0c0c 	add.w	ip, sp, #12
 8002760:	e88c 000e 	stmia.w	ip, {r1, r2, r3}
 8002764:	9a08      	ldr	r2, [sp, #32]
 8002766:	2a01      	cmp	r2, #1
 8002768:	4603      	mov	r3, r0
 800276a:	d12c      	bne.n	80027c6 <USB_CoreInit+0x6e>
 800276c:	6b82      	ldr	r2, [r0, #56]	; 0x38
 800276e:	990f      	ldr	r1, [sp, #60]	; 0x3c
 8002770:	f422 3280 	bic.w	r2, r2, #65536	; 0x10000
 8002774:	6382      	str	r2, [r0, #56]	; 0x38
 8002776:	68c2      	ldr	r2, [r0, #12]
 8002778:	f422 0284 	bic.w	r2, r2, #4325376	; 0x420000
 800277c:	f022 0240 	bic.w	r2, r2, #64	; 0x40
 8002780:	60c2      	str	r2, [r0, #12]
 8002782:	68c2      	ldr	r2, [r0, #12]
 8002784:	2901      	cmp	r1, #1
 8002786:	f422 1240 	bic.w	r2, r2, #3145728	; 0x300000
 800278a:	60c2      	str	r2, [r0, #12]
 800278c:	d05f      	beq.n	800284e <USB_CoreInit+0xf6>
 800278e:	2200      	movs	r2, #0
 8002790:	4931      	ldr	r1, [pc, #196]	; (8002858 <USB_CoreInit+0x100>)
 8002792:	9200      	str	r2, [sp, #0]
 8002794:	e002      	b.n	800279c <USB_CoreInit+0x44>
 8002796:	691a      	ldr	r2, [r3, #16]
 8002798:	2a00      	cmp	r2, #0
 800279a:	db2d      	blt.n	80027f8 <USB_CoreInit+0xa0>
 800279c:	9a00      	ldr	r2, [sp, #0]
 800279e:	3201      	adds	r2, #1
 80027a0:	9200      	str	r2, [sp, #0]
 80027a2:	9a00      	ldr	r2, [sp, #0]
 80027a4:	428a      	cmp	r2, r1
 80027a6:	d9f6      	bls.n	8002796 <USB_CoreInit+0x3e>
 80027a8:	2003      	movs	r0, #3
 80027aa:	9a06      	ldr	r2, [sp, #24]
 80027ac:	2a01      	cmp	r2, #1
 80027ae:	d107      	bne.n	80027c0 <USB_CoreInit+0x68>
 80027b0:	689a      	ldr	r2, [r3, #8]
 80027b2:	f042 0206 	orr.w	r2, r2, #6
 80027b6:	609a      	str	r2, [r3, #8]
 80027b8:	689a      	ldr	r2, [r3, #8]
 80027ba:	f042 0220 	orr.w	r2, r2, #32
 80027be:	609a      	str	r2, [r3, #8]
 80027c0:	b002      	add	sp, #8
 80027c2:	b004      	add	sp, #16
 80027c4:	4770      	bx	lr
 80027c6:	68c2      	ldr	r2, [r0, #12]
 80027c8:	4923      	ldr	r1, [pc, #140]	; (8002858 <USB_CoreInit+0x100>)
 80027ca:	2000      	movs	r0, #0
 80027cc:	f042 0240 	orr.w	r2, r2, #64	; 0x40
 80027d0:	60da      	str	r2, [r3, #12]
 80027d2:	9001      	str	r0, [sp, #4]
 80027d4:	e002      	b.n	80027dc <USB_CoreInit+0x84>
 80027d6:	691a      	ldr	r2, [r3, #16]
 80027d8:	2a00      	cmp	r2, #0
 80027da:	db25      	blt.n	8002828 <USB_CoreInit+0xd0>
 80027dc:	9a01      	ldr	r2, [sp, #4]
 80027de:	3201      	adds	r2, #1
 80027e0:	9201      	str	r2, [sp, #4]
 80027e2:	9a01      	ldr	r2, [sp, #4]
 80027e4:	428a      	cmp	r2, r1
 80027e6:	d9f6      	bls.n	80027d6 <USB_CoreInit+0x7e>
 80027e8:	2003      	movs	r0, #3
 80027ea:	9a0c      	ldr	r2, [sp, #48]	; 0x30
 80027ec:	b9ba      	cbnz	r2, 800281e <USB_CoreInit+0xc6>
 80027ee:	6b9a      	ldr	r2, [r3, #56]	; 0x38
 80027f0:	f442 3280 	orr.w	r2, r2, #65536	; 0x10000
 80027f4:	639a      	str	r2, [r3, #56]	; 0x38
 80027f6:	e7d8      	b.n	80027aa <USB_CoreInit+0x52>
 80027f8:	2200      	movs	r2, #0
 80027fa:	9200      	str	r2, [sp, #0]
 80027fc:	691a      	ldr	r2, [r3, #16]
 80027fe:	4916      	ldr	r1, [pc, #88]	; (8002858 <USB_CoreInit+0x100>)
 8002800:	f042 0201 	orr.w	r2, r2, #1
 8002804:	611a      	str	r2, [r3, #16]
 8002806:	e003      	b.n	8002810 <USB_CoreInit+0xb8>
 8002808:	6918      	ldr	r0, [r3, #16]
 800280a:	f010 0001 	ands.w	r0, r0, #1
 800280e:	d0cc      	beq.n	80027aa <USB_CoreInit+0x52>
 8002810:	9a00      	ldr	r2, [sp, #0]
 8002812:	3201      	adds	r2, #1
 8002814:	9200      	str	r2, [sp, #0]
 8002816:	9a00      	ldr	r2, [sp, #0]
 8002818:	428a      	cmp	r2, r1
 800281a:	d9f5      	bls.n	8002808 <USB_CoreInit+0xb0>
 800281c:	e7c4      	b.n	80027a8 <USB_CoreInit+0x50>
 800281e:	6b9a      	ldr	r2, [r3, #56]	; 0x38
 8002820:	f422 3280 	bic.w	r2, r2, #65536	; 0x10000
 8002824:	639a      	str	r2, [r3, #56]	; 0x38
 8002826:	e7c0      	b.n	80027aa <USB_CoreInit+0x52>
 8002828:	2200      	movs	r2, #0
 800282a:	9201      	str	r2, [sp, #4]
 800282c:	691a      	ldr	r2, [r3, #16]
 800282e:	490a      	ldr	r1, [pc, #40]	; (8002858 <USB_CoreInit+0x100>)
 8002830:	f042 0201 	orr.w	r2, r2, #1
 8002834:	611a      	str	r2, [r3, #16]
 8002836:	e003      	b.n	8002840 <USB_CoreInit+0xe8>
 8002838:	6918      	ldr	r0, [r3, #16]
 800283a:	f010 0001 	ands.w	r0, r0, #1
 800283e:	d0d4      	beq.n	80027ea <USB_CoreInit+0x92>
 8002840:	9a01      	ldr	r2, [sp, #4]
 8002842:	3201      	adds	r2, #1
 8002844:	9201      	str	r2, [sp, #4]
 8002846:	9a01      	ldr	r2, [sp, #4]
 8002848:	428a      	cmp	r2, r1
 800284a:	d9f5      	bls.n	8002838 <USB_CoreInit+0xe0>
 800284c:	e7cc      	b.n	80027e8 <USB_CoreInit+0x90>
 800284e:	68c2      	ldr	r2, [r0, #12]
 8002850:	f442 1280 	orr.w	r2, r2, #1048576	; 0x100000
 8002854:	60c2      	str	r2, [r0, #12]
 8002856:	e79a      	b.n	800278e <USB_CoreInit+0x36>
 8002858:	00030d40 	.word	0x00030d40

0800285c <USB_SetTurnaroundTime>:
 800285c:	2a02      	cmp	r2, #2
 800285e:	4603      	mov	r3, r0
 8002860:	d00a      	beq.n	8002878 <USB_SetTurnaroundTime+0x1c>
 8002862:	f44f 5110 	mov.w	r1, #9216	; 0x2400
 8002866:	68da      	ldr	r2, [r3, #12]
 8002868:	f422 5270 	bic.w	r2, r2, #15360	; 0x3c00
 800286c:	60da      	str	r2, [r3, #12]
 800286e:	68da      	ldr	r2, [r3, #12]
 8002870:	430a      	orrs	r2, r1
 8002872:	2000      	movs	r0, #0
 8002874:	60da      	str	r2, [r3, #12]
 8002876:	4770      	bx	lr
 8002878:	4a26      	ldr	r2, [pc, #152]	; (8002914 <USB_SetTurnaroundTime+0xb8>)
 800287a:	4827      	ldr	r0, [pc, #156]	; (8002918 <USB_SetTurnaroundTime+0xbc>)
 800287c:	440a      	add	r2, r1
 800287e:	4282      	cmp	r2, r0
 8002880:	d932      	bls.n	80028e8 <USB_SetTurnaroundTime+0x8c>
 8002882:	4a26      	ldr	r2, [pc, #152]	; (800291c <USB_SetTurnaroundTime+0xc0>)
 8002884:	4826      	ldr	r0, [pc, #152]	; (8002920 <USB_SetTurnaroundTime+0xc4>)
 8002886:	440a      	add	r2, r1
 8002888:	4282      	cmp	r2, r0
 800288a:	d930      	bls.n	80028ee <USB_SetTurnaroundTime+0x92>
 800288c:	4825      	ldr	r0, [pc, #148]	; (8002924 <USB_SetTurnaroundTime+0xc8>)
 800288e:	f5a1 0274 	sub.w	r2, r1, #15990784	; 0xf40000
 8002892:	f5a2 5210 	sub.w	r2, r2, #9216	; 0x2400
 8002896:	4282      	cmp	r2, r0
 8002898:	d92c      	bls.n	80028f4 <USB_SetTurnaroundTime+0x98>
 800289a:	4823      	ldr	r0, [pc, #140]	; (8002928 <USB_SetTurnaroundTime+0xcc>)
 800289c:	f1a1 7283 	sub.w	r2, r1, #17170432	; 0x1060000
 80028a0:	f5a2 42e7 	sub.w	r2, r2, #29568	; 0x7380
 80028a4:	4282      	cmp	r2, r0
 80028a6:	d328      	bcc.n	80028fa <USB_SetTurnaroundTime+0x9e>
 80028a8:	4a20      	ldr	r2, [pc, #128]	; (800292c <USB_SetTurnaroundTime+0xd0>)
 80028aa:	4821      	ldr	r0, [pc, #132]	; (8002930 <USB_SetTurnaroundTime+0xd4>)
 80028ac:	440a      	add	r2, r1
 80028ae:	4282      	cmp	r2, r0
 80028b0:	d926      	bls.n	8002900 <USB_SetTurnaroundTime+0xa4>
 80028b2:	4a20      	ldr	r2, [pc, #128]	; (8002934 <USB_SetTurnaroundTime+0xd8>)
 80028b4:	4820      	ldr	r0, [pc, #128]	; (8002938 <USB_SetTurnaroundTime+0xdc>)
 80028b6:	440a      	add	r2, r1
 80028b8:	4282      	cmp	r2, r0
 80028ba:	d324      	bcc.n	8002906 <USB_SetTurnaroundTime+0xaa>
 80028bc:	4a1f      	ldr	r2, [pc, #124]	; (800293c <USB_SetTurnaroundTime+0xe0>)
 80028be:	4820      	ldr	r0, [pc, #128]	; (8002940 <USB_SetTurnaroundTime+0xe4>)
 80028c0:	440a      	add	r2, r1
 80028c2:	4282      	cmp	r2, r0
 80028c4:	d3cd      	bcc.n	8002862 <USB_SetTurnaroundTime+0x6>
 80028c6:	481f      	ldr	r0, [pc, #124]	; (8002944 <USB_SetTurnaroundTime+0xe8>)
 80028c8:	f1a1 72b7 	sub.w	r2, r1, #23986176	; 0x16e0000
 80028cc:	f5a2 5258 	sub.w	r2, r2, #13824	; 0x3600
 80028d0:	4282      	cmp	r2, r0
 80028d2:	d31b      	bcc.n	800290c <USB_SetTurnaroundTime+0xb0>
 80028d4:	4a1c      	ldr	r2, [pc, #112]	; (8002948 <USB_SetTurnaroundTime+0xec>)
 80028d6:	481d      	ldr	r0, [pc, #116]	; (800294c <USB_SetTurnaroundTime+0xf0>)
 80028d8:	440a      	add	r2, r1
 80028da:	4282      	cmp	r2, r0
 80028dc:	bf34      	ite	cc
 80028de:	f44f 51e0 	movcc.w	r1, #7168	; 0x1c00
 80028e2:	f44f 51c0 	movcs.w	r1, #6144	; 0x1800
 80028e6:	e7be      	b.n	8002866 <USB_SetTurnaroundTime+0xa>
 80028e8:	f44f 5170 	mov.w	r1, #15360	; 0x3c00
 80028ec:	e7bb      	b.n	8002866 <USB_SetTurnaroundTime+0xa>
 80028ee:	f44f 5160 	mov.w	r1, #14336	; 0x3800
 80028f2:	e7b8      	b.n	8002866 <USB_SetTurnaroundTime+0xa>
 80028f4:	f44f 5150 	mov.w	r1, #13312	; 0x3400
 80028f8:	e7b5      	b.n	8002866 <USB_SetTurnaroundTime+0xa>
 80028fa:	f44f 5140 	mov.w	r1, #12288	; 0x3000
 80028fe:	e7b2      	b.n	8002866 <USB_SetTurnaroundTime+0xa>
 8002900:	f44f 5130 	mov.w	r1, #11264	; 0x2c00
 8002904:	e7af      	b.n	8002866 <USB_SetTurnaroundTime+0xa>
 8002906:	f44f 5120 	mov.w	r1, #10240	; 0x2800
 800290a:	e7ac      	b.n	8002866 <USB_SetTurnaroundTime+0xa>
 800290c:	f44f 5100 	mov.w	r1, #8192	; 0x2000
 8002910:	e7a9      	b.n	8002866 <USB_SetTurnaroundTime+0xa>
 8002912:	bf00      	nop
 8002914:	ff275340 	.word	0xff275340
 8002918:	000c34ff 	.word	0x000c34ff
 800291c:	ff1b1e40 	.word	0xff1b1e40
 8002920:	000f423f 	.word	0x000f423f
 8002924:	00124f7f 	.word	0x00124f7f
 8002928:	0013d620 	.word	0x0013d620
 800292c:	fee5b660 	.word	0xfee5b660
 8002930:	0016e35f 	.word	0x0016e35f
 8002934:	feced300 	.word	0xfeced300
 8002938:	001b7740 	.word	0x001b7740
 800293c:	feb35bc0 	.word	0xfeb35bc0
 8002940:	002191c0 	.word	0x002191c0
 8002944:	00387520 	.word	0x00387520
 8002948:	fe5954e0 	.word	0xfe5954e0
 800294c:	00419ce0 	.word	0x00419ce0

08002950 <USB_EnableGlobalInt>:
 8002950:	4603      	mov	r3, r0
 8002952:	2000      	movs	r0, #0
 8002954:	689a      	ldr	r2, [r3, #8]
 8002956:	f042 0201 	orr.w	r2, r2, #1
 800295a:	609a      	str	r2, [r3, #8]
 800295c:	4770      	bx	lr
 800295e:	bf00      	nop

08002960 <USB_DisableGlobalInt>:
 8002960:	4603      	mov	r3, r0
 8002962:	2000      	movs	r0, #0
 8002964:	689a      	ldr	r2, [r3, #8]
 8002966:	f022 0201 	bic.w	r2, r2, #1
 800296a:	609a      	str	r2, [r3, #8]
 800296c:	4770      	bx	lr
 800296e:	bf00      	nop

08002970 <USB_SetCurrentMode>:
 8002970:	b538      	push	{r3, r4, r5, lr}
 8002972:	68c3      	ldr	r3, [r0, #12]
 8002974:	2901      	cmp	r1, #1
 8002976:	f023 43c0 	bic.w	r3, r3, #1610612736	; 0x60000000
 800297a:	4605      	mov	r5, r0
 800297c:	60c3      	str	r3, [r0, #12]
 800297e:	d018      	beq.n	80029b2 <USB_SetCurrentMode+0x42>
 8002980:	b9a9      	cbnz	r1, 80029ae <USB_SetCurrentMode+0x3e>
 8002982:	68c3      	ldr	r3, [r0, #12]
 8002984:	f043 4380 	orr.w	r3, r3, #1073741824	; 0x40000000
 8002988:	460c      	mov	r4, r1
 800298a:	60c3      	str	r3, [r0, #12]
 800298c:	e001      	b.n	8002992 <USB_SetCurrentMode+0x22>
 800298e:	2c32      	cmp	r4, #50	; 0x32
 8002990:	d00d      	beq.n	80029ae <USB_SetCurrentMode+0x3e>
 8002992:	2001      	movs	r0, #1
 8002994:	f7fe fba2 	bl	80010dc <HAL_Delay>
 8002998:	696b      	ldr	r3, [r5, #20]
 800299a:	07db      	lsls	r3, r3, #31
 800299c:	f104 0401 	add.w	r4, r4, #1
 80029a0:	d4f5      	bmi.n	800298e <USB_SetCurrentMode+0x1e>
 80029a2:	f1a4 0032 	sub.w	r0, r4, #50	; 0x32
 80029a6:	fab0 f080 	clz	r0, r0
 80029aa:	0940      	lsrs	r0, r0, #5
 80029ac:	bd38      	pop	{r3, r4, r5, pc}
 80029ae:	2001      	movs	r0, #1
 80029b0:	bd38      	pop	{r3, r4, r5, pc}
 80029b2:	68c3      	ldr	r3, [r0, #12]
 80029b4:	f043 5300 	orr.w	r3, r3, #536870912	; 0x20000000
 80029b8:	2400      	movs	r4, #0
 80029ba:	60c3      	str	r3, [r0, #12]
 80029bc:	e001      	b.n	80029c2 <USB_SetCurrentMode+0x52>
 80029be:	2c32      	cmp	r4, #50	; 0x32
 80029c0:	d0f5      	beq.n	80029ae <USB_SetCurrentMode+0x3e>
 80029c2:	2001      	movs	r0, #1
 80029c4:	f7fe fb8a 	bl	80010dc <HAL_Delay>
 80029c8:	696b      	ldr	r3, [r5, #20]
 80029ca:	07da      	lsls	r2, r3, #31
 80029cc:	f104 0401 	add.w	r4, r4, #1
 80029d0:	d5f5      	bpl.n	80029be <USB_SetCurrentMode+0x4e>
 80029d2:	f1a4 0032 	sub.w	r0, r4, #50	; 0x32
 80029d6:	fab0 f080 	clz	r0, r0
 80029da:	0940      	lsrs	r0, r0, #5
 80029dc:	e7e6      	b.n	80029ac <USB_SetCurrentMode+0x3c>
 80029de:	bf00      	nop

080029e0 <USB_DevInit>:
 80029e0:	b084      	sub	sp, #16
 80029e2:	e92d 43f0 	stmdb	sp!, {r4, r5, r6, r7, r8, r9, lr}
 80029e6:	b083      	sub	sp, #12
 80029e8:	ac0b      	add	r4, sp, #44	; 0x2c
 80029ea:	9d15      	ldr	r5, [sp, #84]	; 0x54
 80029ec:	e884 000e 	stmia.w	r4, {r1, r2, r3}
 80029f0:	2200      	movs	r2, #0
 80029f2:	f8c0 2104 	str.w	r2, [r0, #260]	; 0x104
 80029f6:	4603      	mov	r3, r0
 80029f8:	f8c0 2108 	str.w	r2, [r0, #264]	; 0x108
 80029fc:	460c      	mov	r4, r1
 80029fe:	f8c0 210c 	str.w	r2, [r0, #268]	; 0x10c
 8002a02:	f8c0 2110 	str.w	r2, [r0, #272]	; 0x110
 8002a06:	f8c0 2114 	str.w	r2, [r0, #276]	; 0x114
 8002a0a:	f8c0 2118 	str.w	r2, [r0, #280]	; 0x118
 8002a0e:	f8c0 211c 	str.w	r2, [r0, #284]	; 0x11c
 8002a12:	f8c0 2120 	str.w	r2, [r0, #288]	; 0x120
 8002a16:	f8c0 2124 	str.w	r2, [r0, #292]	; 0x124
 8002a1a:	f8c0 2128 	str.w	r2, [r0, #296]	; 0x128
 8002a1e:	f8c0 212c 	str.w	r2, [r0, #300]	; 0x12c
 8002a22:	f8c0 2130 	str.w	r2, [r0, #304]	; 0x130
 8002a26:	f8c0 2134 	str.w	r2, [r0, #308]	; 0x134
 8002a2a:	f8c0 2138 	str.w	r2, [r0, #312]	; 0x138
 8002a2e:	f8c0 213c 	str.w	r2, [r0, #316]	; 0x13c
 8002a32:	2d00      	cmp	r5, #0
 8002a34:	f040 80ad 	bne.w	8002b92 <USB_DevInit+0x1b2>
 8002a38:	f8d0 2804 	ldr.w	r2, [r0, #2052]	; 0x804
 8002a3c:	f500 6c00 	add.w	ip, r0, #2048	; 0x800
 8002a40:	f042 0202 	orr.w	r2, r2, #2
 8002a44:	f8cc 2004 	str.w	r2, [ip, #4]
 8002a48:	6b82      	ldr	r2, [r0, #56]	; 0x38
 8002a4a:	f442 1200 	orr.w	r2, r2, #2097152	; 0x200000
 8002a4e:	6382      	str	r2, [r0, #56]	; 0x38
 8002a50:	6b82      	ldr	r2, [r0, #56]	; 0x38
 8002a52:	f422 2200 	bic.w	r2, r2, #524288	; 0x80000
 8002a56:	6382      	str	r2, [r0, #56]	; 0x38
 8002a58:	6b82      	ldr	r2, [r0, #56]	; 0x38
 8002a5a:	f422 2280 	bic.w	r2, r2, #262144	; 0x40000
 8002a5e:	6382      	str	r2, [r0, #56]	; 0x38
 8002a60:	2200      	movs	r2, #0
 8002a62:	f8c3 2e00 	str.w	r2, [r3, #3584]	; 0xe00
 8002a66:	f8dc 2000 	ldr.w	r2, [ip]
 8002a6a:	f8cc 2000 	str.w	r2, [ip]
 8002a6e:	9a10      	ldr	r2, [sp, #64]	; 0x40
 8002a70:	2a01      	cmp	r2, #1
 8002a72:	f000 80bc 	beq.w	8002bee <USB_DevInit+0x20e>
 8002a76:	f8dc 2000 	ldr.w	r2, [ip]
 8002a7a:	f042 0203 	orr.w	r2, r2, #3
 8002a7e:	f8cc 2000 	str.w	r2, [ip]
 8002a82:	2200      	movs	r2, #0
 8002a84:	4961      	ldr	r1, [pc, #388]	; (8002c0c <USB_DevInit+0x22c>)
 8002a86:	9200      	str	r2, [sp, #0]
 8002a88:	e003      	b.n	8002a92 <USB_DevInit+0xb2>
 8002a8a:	691a      	ldr	r2, [r3, #16]
 8002a8c:	2a00      	cmp	r2, #0
 8002a8e:	f2c0 809b 	blt.w	8002bc8 <USB_DevInit+0x1e8>
 8002a92:	9a00      	ldr	r2, [sp, #0]
 8002a94:	3201      	adds	r2, #1
 8002a96:	9200      	str	r2, [sp, #0]
 8002a98:	9a00      	ldr	r2, [sp, #0]
 8002a9a:	428a      	cmp	r2, r1
 8002a9c:	d9f5      	bls.n	8002a8a <USB_DevInit+0xaa>
 8002a9e:	2001      	movs	r0, #1
 8002aa0:	2200      	movs	r2, #0
 8002aa2:	495a      	ldr	r1, [pc, #360]	; (8002c0c <USB_DevInit+0x22c>)
 8002aa4:	9201      	str	r2, [sp, #4]
 8002aa6:	e002      	b.n	8002aae <USB_DevInit+0xce>
 8002aa8:	691a      	ldr	r2, [r3, #16]
 8002aaa:	2a00      	cmp	r2, #0
 8002aac:	db7c      	blt.n	8002ba8 <USB_DevInit+0x1c8>
 8002aae:	9a01      	ldr	r2, [sp, #4]
 8002ab0:	3201      	adds	r2, #1
 8002ab2:	9201      	str	r2, [sp, #4]
 8002ab4:	9a01      	ldr	r2, [sp, #4]
 8002ab6:	428a      	cmp	r2, r1
 8002ab8:	d9f6      	bls.n	8002aa8 <USB_DevInit+0xc8>
 8002aba:	2001      	movs	r0, #1
 8002abc:	2100      	movs	r1, #0
 8002abe:	f8cc 1010 	str.w	r1, [ip, #16]
 8002ac2:	f8cc 1014 	str.w	r1, [ip, #20]
 8002ac6:	f8cc 101c 	str.w	r1, [ip, #28]
 8002aca:	b1e4      	cbz	r4, 8002b06 <USB_DevInit+0x126>
 8002acc:	f503 6210 	add.w	r2, r3, #2304	; 0x900
 8002ad0:	460f      	mov	r7, r1
 8002ad2:	f04f 4890 	mov.w	r8, #1207959552	; 0x48000000
 8002ad6:	f04f 6900 	mov.w	r9, #134217728	; 0x8000000
 8002ada:	f64f 3e7f 	movw	lr, #64383	; 0xfb7f
 8002ade:	e008      	b.n	8002af2 <USB_DevInit+0x112>
 8002ae0:	6017      	str	r7, [r2, #0]
 8002ae2:	3101      	adds	r1, #1
 8002ae4:	428c      	cmp	r4, r1
 8002ae6:	6117      	str	r7, [r2, #16]
 8002ae8:	f8c2 e008 	str.w	lr, [r2, #8]
 8002aec:	f102 0220 	add.w	r2, r2, #32
 8002af0:	d031      	beq.n	8002b56 <USB_DevInit+0x176>
 8002af2:	6816      	ldr	r6, [r2, #0]
 8002af4:	2e00      	cmp	r6, #0
 8002af6:	daf3      	bge.n	8002ae0 <USB_DevInit+0x100>
 8002af8:	b111      	cbz	r1, 8002b00 <USB_DevInit+0x120>
 8002afa:	f8c2 8000 	str.w	r8, [r2]
 8002afe:	e7f0      	b.n	8002ae2 <USB_DevInit+0x102>
 8002b00:	f8c2 9000 	str.w	r9, [r2]
 8002b04:	e7ed      	b.n	8002ae2 <USB_DevInit+0x102>
 8002b06:	f8dc 2010 	ldr.w	r2, [ip, #16]
 8002b0a:	f422 7280 	bic.w	r2, r2, #256	; 0x100
 8002b0e:	f8cc 2010 	str.w	r2, [ip, #16]
 8002b12:	2100      	movs	r1, #0
 8002b14:	9a0e      	ldr	r2, [sp, #56]	; 0x38
 8002b16:	6199      	str	r1, [r3, #24]
 8002b18:	f06f 4180 	mvn.w	r1, #1073741824	; 0x40000000
 8002b1c:	6159      	str	r1, [r3, #20]
 8002b1e:	b91a      	cbnz	r2, 8002b28 <USB_DevInit+0x148>
 8002b20:	699a      	ldr	r2, [r3, #24]
 8002b22:	f042 0210 	orr.w	r2, r2, #16
 8002b26:	619a      	str	r2, [r3, #24]
 8002b28:	6999      	ldr	r1, [r3, #24]
 8002b2a:	4a39      	ldr	r2, [pc, #228]	; (8002c10 <USB_DevInit+0x230>)
 8002b2c:	430a      	orrs	r2, r1
 8002b2e:	9911      	ldr	r1, [sp, #68]	; 0x44
 8002b30:	619a      	str	r2, [r3, #24]
 8002b32:	b119      	cbz	r1, 8002b3c <USB_DevInit+0x15c>
 8002b34:	699a      	ldr	r2, [r3, #24]
 8002b36:	f042 0208 	orr.w	r2, r2, #8
 8002b3a:	619a      	str	r2, [r3, #24]
 8002b3c:	2d01      	cmp	r5, #1
 8002b3e:	d105      	bne.n	8002b4c <USB_DevInit+0x16c>
 8002b40:	699a      	ldr	r2, [r3, #24]
 8002b42:	f042 4280 	orr.w	r2, r2, #1073741824	; 0x40000000
 8002b46:	f042 0204 	orr.w	r2, r2, #4
 8002b4a:	619a      	str	r2, [r3, #24]
 8002b4c:	b003      	add	sp, #12
 8002b4e:	e8bd 43f0 	ldmia.w	sp!, {r4, r5, r6, r7, r8, r9, lr}
 8002b52:	b004      	add	sp, #16
 8002b54:	4770      	bx	lr
 8002b56:	2100      	movs	r1, #0
 8002b58:	f503 6230 	add.w	r2, r3, #2816	; 0xb00
 8002b5c:	460f      	mov	r7, r1
 8002b5e:	f04f 4890 	mov.w	r8, #1207959552	; 0x48000000
 8002b62:	f04f 6900 	mov.w	r9, #134217728	; 0x8000000
 8002b66:	f64f 3e7f 	movw	lr, #64383	; 0xfb7f
 8002b6a:	e008      	b.n	8002b7e <USB_DevInit+0x19e>
 8002b6c:	6017      	str	r7, [r2, #0]
 8002b6e:	3101      	adds	r1, #1
 8002b70:	428c      	cmp	r4, r1
 8002b72:	6117      	str	r7, [r2, #16]
 8002b74:	f8c2 e008 	str.w	lr, [r2, #8]
 8002b78:	f102 0220 	add.w	r2, r2, #32
 8002b7c:	d0c3      	beq.n	8002b06 <USB_DevInit+0x126>
 8002b7e:	6816      	ldr	r6, [r2, #0]
 8002b80:	2e00      	cmp	r6, #0
 8002b82:	daf3      	bge.n	8002b6c <USB_DevInit+0x18c>
 8002b84:	b111      	cbz	r1, 8002b8c <USB_DevInit+0x1ac>
 8002b86:	f8c2 8000 	str.w	r8, [r2]
 8002b8a:	e7f0      	b.n	8002b6e <USB_DevInit+0x18e>
 8002b8c:	f8c2 9000 	str.w	r9, [r2]
 8002b90:	e7ed      	b.n	8002b6e <USB_DevInit+0x18e>
 8002b92:	6b82      	ldr	r2, [r0, #56]	; 0x38
 8002b94:	f422 1200 	bic.w	r2, r2, #2097152	; 0x200000
 8002b98:	6382      	str	r2, [r0, #56]	; 0x38
 8002b9a:	6b82      	ldr	r2, [r0, #56]	; 0x38
 8002b9c:	f442 2200 	orr.w	r2, r2, #524288	; 0x80000
 8002ba0:	f500 6c00 	add.w	ip, r0, #2048	; 0x800
 8002ba4:	6382      	str	r2, [r0, #56]	; 0x38
 8002ba6:	e75b      	b.n	8002a60 <USB_DevInit+0x80>
 8002ba8:	2200      	movs	r2, #0
 8002baa:	9201      	str	r2, [sp, #4]
 8002bac:	2210      	movs	r2, #16
 8002bae:	4917      	ldr	r1, [pc, #92]	; (8002c0c <USB_DevInit+0x22c>)
 8002bb0:	611a      	str	r2, [r3, #16]
 8002bb2:	e002      	b.n	8002bba <USB_DevInit+0x1da>
 8002bb4:	691a      	ldr	r2, [r3, #16]
 8002bb6:	06d2      	lsls	r2, r2, #27
 8002bb8:	d580      	bpl.n	8002abc <USB_DevInit+0xdc>
 8002bba:	9a01      	ldr	r2, [sp, #4]
 8002bbc:	3201      	adds	r2, #1
 8002bbe:	9201      	str	r2, [sp, #4]
 8002bc0:	9a01      	ldr	r2, [sp, #4]
 8002bc2:	428a      	cmp	r2, r1
 8002bc4:	d9f6      	bls.n	8002bb4 <USB_DevInit+0x1d4>
 8002bc6:	e778      	b.n	8002aba <USB_DevInit+0xda>
 8002bc8:	2200      	movs	r2, #0
 8002bca:	9200      	str	r2, [sp, #0]
 8002bcc:	f44f 6284 	mov.w	r2, #1056	; 0x420
 8002bd0:	490e      	ldr	r1, [pc, #56]	; (8002c0c <USB_DevInit+0x22c>)
 8002bd2:	611a      	str	r2, [r3, #16]
 8002bd4:	e004      	b.n	8002be0 <USB_DevInit+0x200>
 8002bd6:	6918      	ldr	r0, [r3, #16]
 8002bd8:	f010 0020 	ands.w	r0, r0, #32
 8002bdc:	f43f af60 	beq.w	8002aa0 <USB_DevInit+0xc0>
 8002be0:	9a00      	ldr	r2, [sp, #0]
 8002be2:	3201      	adds	r2, #1
 8002be4:	9200      	str	r2, [sp, #0]
 8002be6:	9a00      	ldr	r2, [sp, #0]
 8002be8:	428a      	cmp	r2, r1
 8002bea:	d9f4      	bls.n	8002bd6 <USB_DevInit+0x1f6>
 8002bec:	e757      	b.n	8002a9e <USB_DevInit+0xbe>
 8002bee:	9a0d      	ldr	r2, [sp, #52]	; 0x34
 8002bf0:	b922      	cbnz	r2, 8002bfc <USB_DevInit+0x21c>
 8002bf2:	f8dc 2000 	ldr.w	r2, [ip]
 8002bf6:	f8cc 2000 	str.w	r2, [ip]
 8002bfa:	e742      	b.n	8002a82 <USB_DevInit+0xa2>
 8002bfc:	f8dc 2000 	ldr.w	r2, [ip]
 8002c00:	f042 0201 	orr.w	r2, r2, #1
 8002c04:	f8cc 2000 	str.w	r2, [ip]
 8002c08:	e73b      	b.n	8002a82 <USB_DevInit+0xa2>
 8002c0a:	bf00      	nop
 8002c0c:	00030d40 	.word	0x00030d40
 8002c10:	803c3800 	.word	0x803c3800

08002c14 <USB_FlushTxFifo>:
 8002c14:	b082      	sub	sp, #8
 8002c16:	2300      	movs	r3, #0
 8002c18:	4a12      	ldr	r2, [pc, #72]	; (8002c64 <USB_FlushTxFifo+0x50>)
 8002c1a:	9301      	str	r3, [sp, #4]
 8002c1c:	e002      	b.n	8002c24 <USB_FlushTxFifo+0x10>
 8002c1e:	6903      	ldr	r3, [r0, #16]
 8002c20:	2b00      	cmp	r3, #0
 8002c22:	db08      	blt.n	8002c36 <USB_FlushTxFifo+0x22>
 8002c24:	9b01      	ldr	r3, [sp, #4]
 8002c26:	3301      	adds	r3, #1
 8002c28:	9301      	str	r3, [sp, #4]
 8002c2a:	9b01      	ldr	r3, [sp, #4]
 8002c2c:	4293      	cmp	r3, r2
 8002c2e:	d9f6      	bls.n	8002c1e <USB_FlushTxFifo+0xa>
 8002c30:	2003      	movs	r0, #3
 8002c32:	b002      	add	sp, #8
 8002c34:	4770      	bx	lr
 8002c36:	0189      	lsls	r1, r1, #6
 8002c38:	2300      	movs	r3, #0
 8002c3a:	f041 0120 	orr.w	r1, r1, #32
 8002c3e:	9301      	str	r3, [sp, #4]
 8002c40:	4a08      	ldr	r2, [pc, #32]	; (8002c64 <USB_FlushTxFifo+0x50>)
 8002c42:	6101      	str	r1, [r0, #16]
 8002c44:	e003      	b.n	8002c4e <USB_FlushTxFifo+0x3a>
 8002c46:	6903      	ldr	r3, [r0, #16]
 8002c48:	f013 0320 	ands.w	r3, r3, #32
 8002c4c:	d006      	beq.n	8002c5c <USB_FlushTxFifo+0x48>
 8002c4e:	9b01      	ldr	r3, [sp, #4]
 8002c50:	3301      	adds	r3, #1
 8002c52:	9301      	str	r3, [sp, #4]
 8002c54:	9b01      	ldr	r3, [sp, #4]
 8002c56:	4293      	cmp	r3, r2
 8002c58:	d9f5      	bls.n	8002c46 <USB_FlushTxFifo+0x32>
 8002c5a:	e7e9      	b.n	8002c30 <USB_FlushTxFifo+0x1c>
 8002c5c:	4618      	mov	r0, r3
 8002c5e:	b002      	add	sp, #8
 8002c60:	4770      	bx	lr
 8002c62:	bf00      	nop
 8002c64:	00030d40 	.word	0x00030d40

08002c68 <USB_GetDevSpeed>:
 8002c68:	f8d0 3808 	ldr.w	r3, [r0, #2056]	; 0x808
 8002c6c:	f013 0006 	ands.w	r0, r3, #6
 8002c70:	d004      	beq.n	8002c7c <USB_GetDevSpeed+0x14>
 8002c72:	f013 0f02 	tst.w	r3, #2
 8002c76:	bf14      	ite	ne
 8002c78:	2002      	movne	r0, #2
 8002c7a:	200f      	moveq	r0, #15
 8002c7c:	4770      	bx	lr
 8002c7e:	bf00      	nop

08002c80 <USB_ActivateEndpoint>:
 8002c80:	b430      	push	{r4, r5}
 8002c82:	784b      	ldrb	r3, [r1, #1]
 8002c84:	780a      	ldrb	r2, [r1, #0]
 8002c86:	2b01      	cmp	r3, #1
 8002c88:	d022      	beq.n	8002cd0 <USB_ActivateEndpoint+0x50>
 8002c8a:	f8d0 481c 	ldr.w	r4, [r0, #2076]	; 0x81c
 8002c8e:	f002 0c0f 	and.w	ip, r2, #15
 8002c92:	f44f 3380 	mov.w	r3, #65536	; 0x10000
 8002c96:	fa03 f30c 	lsl.w	r3, r3, ip
 8002c9a:	4323      	orrs	r3, r4
 8002c9c:	eb00 1242 	add.w	r2, r0, r2, lsl #5
 8002ca0:	f8c0 381c 	str.w	r3, [r0, #2076]	; 0x81c
 8002ca4:	f8d2 3b00 	ldr.w	r3, [r2, #2816]	; 0xb00
 8002ca8:	041b      	lsls	r3, r3, #16
 8002caa:	d40e      	bmi.n	8002cca <USB_ActivateEndpoint+0x4a>
 8002cac:	68cb      	ldr	r3, [r1, #12]
 8002cae:	f8d2 0b00 	ldr.w	r0, [r2, #2816]	; 0xb00
 8002cb2:	7909      	ldrb	r1, [r1, #4]
 8002cb4:	f3c3 030a 	ubfx	r3, r3, #0, #11
 8002cb8:	4303      	orrs	r3, r0
 8002cba:	ea43 4381 	orr.w	r3, r3, r1, lsl #18
 8002cbe:	f043 5380 	orr.w	r3, r3, #268435456	; 0x10000000
 8002cc2:	f443 4300 	orr.w	r3, r3, #32768	; 0x8000
 8002cc6:	f8c2 3b00 	str.w	r3, [r2, #2816]	; 0xb00
 8002cca:	2000      	movs	r0, #0
 8002ccc:	bc30      	pop	{r4, r5}
 8002cce:	4770      	bx	lr
 8002cd0:	f8d0 581c 	ldr.w	r5, [r0, #2076]	; 0x81c
 8002cd4:	f002 0c0f 	and.w	ip, r2, #15
 8002cd8:	fa03 f30c 	lsl.w	r3, r3, ip
 8002cdc:	f500 6400 	add.w	r4, r0, #2048	; 0x800
 8002ce0:	432b      	orrs	r3, r5
 8002ce2:	eb00 1042 	add.w	r0, r0, r2, lsl #5
 8002ce6:	61e3      	str	r3, [r4, #28]
 8002ce8:	f8d0 3900 	ldr.w	r3, [r0, #2304]	; 0x900
 8002cec:	041c      	lsls	r4, r3, #16
 8002cee:	d4ec      	bmi.n	8002cca <USB_ActivateEndpoint+0x4a>
 8002cf0:	68cb      	ldr	r3, [r1, #12]
 8002cf2:	f8d0 4900 	ldr.w	r4, [r0, #2304]	; 0x900
 8002cf6:	7909      	ldrb	r1, [r1, #4]
 8002cf8:	f3c3 030a 	ubfx	r3, r3, #0, #11
 8002cfc:	4323      	orrs	r3, r4
 8002cfe:	ea43 4381 	orr.w	r3, r3, r1, lsl #18
 8002d02:	ea43 5382 	orr.w	r3, r3, r2, lsl #22
 8002d06:	f043 5380 	orr.w	r3, r3, #268435456	; 0x10000000
 8002d0a:	f443 4300 	orr.w	r3, r3, #32768	; 0x8000
 8002d0e:	f8c0 3900 	str.w	r3, [r0, #2304]	; 0x900
 8002d12:	bc30      	pop	{r4, r5}
 8002d14:	2000      	movs	r0, #0
 8002d16:	4770      	bx	lr

08002d18 <USB_DeactivateEndpoint>:
 8002d18:	b410      	push	{r4}
 8002d1a:	784a      	ldrb	r2, [r1, #1]
 8002d1c:	780b      	ldrb	r3, [r1, #0]
 8002d1e:	2a01      	cmp	r2, #1
 8002d20:	eb00 1243 	add.w	r2, r0, r3, lsl #5
 8002d24:	d02c      	beq.n	8002d80 <USB_DeactivateEndpoint+0x68>
 8002d26:	f8d2 1b00 	ldr.w	r1, [r2, #2816]	; 0xb00
 8002d2a:	2900      	cmp	r1, #0
 8002d2c:	db1b      	blt.n	8002d66 <USB_DeactivateEndpoint+0x4e>
 8002d2e:	f8d0 483c 	ldr.w	r4, [r0, #2108]	; 0x83c
 8002d32:	f44f 3180 	mov.w	r1, #65536	; 0x10000
 8002d36:	f003 030f 	and.w	r3, r3, #15
 8002d3a:	fa01 f303 	lsl.w	r3, r1, r3
 8002d3e:	ea24 0403 	bic.w	r4, r4, r3
 8002d42:	f8c0 483c 	str.w	r4, [r0, #2108]	; 0x83c
 8002d46:	f8d0 481c 	ldr.w	r4, [r0, #2076]	; 0x81c
 8002d4a:	4922      	ldr	r1, [pc, #136]	; (8002dd4 <USB_DeactivateEndpoint+0xbc>)
 8002d4c:	ea24 0303 	bic.w	r3, r4, r3
 8002d50:	f8c0 381c 	str.w	r3, [r0, #2076]	; 0x81c
 8002d54:	f8d2 3b00 	ldr.w	r3, [r2, #2816]	; 0xb00
 8002d58:	f85d 4b04 	ldr.w	r4, [sp], #4
 8002d5c:	4019      	ands	r1, r3
 8002d5e:	2000      	movs	r0, #0
 8002d60:	f8c2 1b00 	str.w	r1, [r2, #2816]	; 0xb00
 8002d64:	4770      	bx	lr
 8002d66:	f8d2 1b00 	ldr.w	r1, [r2, #2816]	; 0xb00
 8002d6a:	f041 6100 	orr.w	r1, r1, #134217728	; 0x8000000
 8002d6e:	f8c2 1b00 	str.w	r1, [r2, #2816]	; 0xb00
 8002d72:	f8d2 1b00 	ldr.w	r1, [r2, #2816]	; 0xb00
 8002d76:	f041 4180 	orr.w	r1, r1, #1073741824	; 0x40000000
 8002d7a:	f8c2 1b00 	str.w	r1, [r2, #2816]	; 0xb00
 8002d7e:	e7d6      	b.n	8002d2e <USB_DeactivateEndpoint+0x16>
 8002d80:	f8d2 1900 	ldr.w	r1, [r2, #2304]	; 0x900
 8002d84:	2900      	cmp	r1, #0
 8002d86:	da0b      	bge.n	8002da0 <USB_DeactivateEndpoint+0x88>
 8002d88:	f8d2 1900 	ldr.w	r1, [r2, #2304]	; 0x900
 8002d8c:	f041 6100 	orr.w	r1, r1, #134217728	; 0x8000000
 8002d90:	f8c2 1900 	str.w	r1, [r2, #2304]	; 0x900
 8002d94:	f8d2 1900 	ldr.w	r1, [r2, #2304]	; 0x900
 8002d98:	f041 4180 	orr.w	r1, r1, #1073741824	; 0x40000000
 8002d9c:	f8c2 1900 	str.w	r1, [r2, #2304]	; 0x900
 8002da0:	f8d0 183c 	ldr.w	r1, [r0, #2108]	; 0x83c
 8002da4:	f003 040f 	and.w	r4, r3, #15
 8002da8:	2301      	movs	r3, #1
 8002daa:	40a3      	lsls	r3, r4
 8002dac:	ea21 0103 	bic.w	r1, r1, r3
 8002db0:	f8c0 183c 	str.w	r1, [r0, #2108]	; 0x83c
 8002db4:	f8d0 481c 	ldr.w	r4, [r0, #2076]	; 0x81c
 8002db8:	4907      	ldr	r1, [pc, #28]	; (8002dd8 <USB_DeactivateEndpoint+0xc0>)
 8002dba:	ea24 0303 	bic.w	r3, r4, r3
 8002dbe:	f8c0 381c 	str.w	r3, [r0, #2076]	; 0x81c
 8002dc2:	f8d2 3900 	ldr.w	r3, [r2, #2304]	; 0x900
 8002dc6:	f85d 4b04 	ldr.w	r4, [sp], #4
 8002dca:	4019      	ands	r1, r3
 8002dcc:	2000      	movs	r0, #0
 8002dce:	f8c2 1900 	str.w	r1, [r2, #2304]	; 0x900
 8002dd2:	4770      	bx	lr
 8002dd4:	eff37800 	.word	0xeff37800
 8002dd8:	ec337800 	.word	0xec337800

08002ddc <USB_EPStartXfer>:
 8002ddc:	e92d 41f0 	stmdb	sp!, {r4, r5, r6, r7, r8, lr}
 8002de0:	784c      	ldrb	r4, [r1, #1]
 8002de2:	f891 c000 	ldrb.w	ip, [r1]
 8002de6:	2c01      	cmp	r4, #1
 8002de8:	d04f      	beq.n	8002e8a <USB_EPStartXfer+0xae>
 8002dea:	eb00 1c4c 	add.w	ip, r0, ip, lsl #5
 8002dee:	f50c 6330 	add.w	r3, ip, #2816	; 0xb00
 8002df2:	691c      	ldr	r4, [r3, #16]
 8002df4:	0ce4      	lsrs	r4, r4, #19
 8002df6:	04e4      	lsls	r4, r4, #19
 8002df8:	611c      	str	r4, [r3, #16]
 8002dfa:	691c      	ldr	r4, [r3, #16]
 8002dfc:	f024 54ff 	bic.w	r4, r4, #534773760	; 0x1fe00000
 8002e00:	f424 14c0 	bic.w	r4, r4, #1572864	; 0x180000
 8002e04:	611c      	str	r4, [r3, #16]
 8002e06:	698c      	ldr	r4, [r1, #24]
 8002e08:	b374      	cbz	r4, 8002e68 <USB_EPStartXfer+0x8c>
 8002e0a:	68cd      	ldr	r5, [r1, #12]
 8002e0c:	4e78      	ldr	r6, [pc, #480]	; (8002ff0 <USB_EPStartXfer+0x214>)
 8002e0e:	442c      	add	r4, r5
 8002e10:	3c01      	subs	r4, #1
 8002e12:	fbb4 f4f5 	udiv	r4, r4, r5
 8002e16:	b2a4      	uxth	r4, r4
 8002e18:	fb04 f505 	mul.w	r5, r4, r5
 8002e1c:	ea06 44c4 	and.w	r4, r6, r4, lsl #19
 8002e20:	691e      	ldr	r6, [r3, #16]
 8002e22:	61cd      	str	r5, [r1, #28]
 8002e24:	4334      	orrs	r4, r6
 8002e26:	611c      	str	r4, [r3, #16]
 8002e28:	691c      	ldr	r4, [r3, #16]
 8002e2a:	f3c5 0512 	ubfx	r5, r5, #0, #19
 8002e2e:	4325      	orrs	r5, r4
 8002e30:	2a01      	cmp	r2, #1
 8002e32:	611d      	str	r5, [r3, #16]
 8002e34:	d024      	beq.n	8002e80 <USB_EPStartXfer+0xa4>
 8002e36:	790b      	ldrb	r3, [r1, #4]
 8002e38:	2b01      	cmp	r3, #1
 8002e3a:	d10c      	bne.n	8002e56 <USB_EPStartXfer+0x7a>
 8002e3c:	f8d0 3808 	ldr.w	r3, [r0, #2056]	; 0x808
 8002e40:	f413 7f80 	tst.w	r3, #256	; 0x100
 8002e44:	f8dc 3b00 	ldr.w	r3, [ip, #2816]	; 0xb00
 8002e48:	bf0c      	ite	eq
 8002e4a:	f043 5300 	orreq.w	r3, r3, #536870912	; 0x20000000
 8002e4e:	f043 5380 	orrne.w	r3, r3, #268435456	; 0x10000000
 8002e52:	f8cc 3b00 	str.w	r3, [ip, #2816]	; 0xb00
 8002e56:	f8dc 3b00 	ldr.w	r3, [ip, #2816]	; 0xb00
 8002e5a:	f043 4304 	orr.w	r3, r3, #2214592512	; 0x84000000
 8002e5e:	f8cc 3b00 	str.w	r3, [ip, #2816]	; 0xb00
 8002e62:	2000      	movs	r0, #0
 8002e64:	e8bd 81f0 	ldmia.w	sp!, {r4, r5, r6, r7, r8, pc}
 8002e68:	68cc      	ldr	r4, [r1, #12]
 8002e6a:	691d      	ldr	r5, [r3, #16]
 8002e6c:	f3c4 0412 	ubfx	r4, r4, #0, #19
 8002e70:	432c      	orrs	r4, r5
 8002e72:	611c      	str	r4, [r3, #16]
 8002e74:	691c      	ldr	r4, [r3, #16]
 8002e76:	2a01      	cmp	r2, #1
 8002e78:	f444 2400 	orr.w	r4, r4, #524288	; 0x80000
 8002e7c:	611c      	str	r4, [r3, #16]
 8002e7e:	d1da      	bne.n	8002e36 <USB_EPStartXfer+0x5a>
 8002e80:	690a      	ldr	r2, [r1, #16]
 8002e82:	2a00      	cmp	r2, #0
 8002e84:	d0d7      	beq.n	8002e36 <USB_EPStartXfer+0x5a>
 8002e86:	615a      	str	r2, [r3, #20]
 8002e88:	e7d5      	b.n	8002e36 <USB_EPStartXfer+0x5a>
 8002e8a:	698e      	ldr	r6, [r1, #24]
 8002e8c:	eb00 154c 	add.w	r5, r0, ip, lsl #5
 8002e90:	b3de      	cbz	r6, 8002f0a <USB_EPStartXfer+0x12e>
 8002e92:	f8d5 3910 	ldr.w	r3, [r5, #2320]	; 0x910
 8002e96:	68cf      	ldr	r7, [r1, #12]
 8002e98:	0cdb      	lsrs	r3, r3, #19
 8002e9a:	04db      	lsls	r3, r3, #19
 8002e9c:	f8c5 3910 	str.w	r3, [r5, #2320]	; 0x910
 8002ea0:	f8d5 3910 	ldr.w	r3, [r5, #2320]	; 0x910
 8002ea4:	f023 53ff 	bic.w	r3, r3, #534773760	; 0x1fe00000
 8002ea8:	f423 13c0 	bic.w	r3, r3, #1572864	; 0x180000
 8002eac:	f8c5 3910 	str.w	r3, [r5, #2320]	; 0x910
 8002eb0:	4b4f      	ldr	r3, [pc, #316]	; (8002ff0 <USB_EPStartXfer+0x214>)
 8002eb2:	f8d5 8910 	ldr.w	r8, [r5, #2320]	; 0x910
 8002eb6:	eb06 0e07 	add.w	lr, r6, r7
 8002eba:	f10e 3eff 	add.w	lr, lr, #4294967295
 8002ebe:	fbbe fef7 	udiv	lr, lr, r7
 8002ec2:	ea03 43ce 	and.w	r3, r3, lr, lsl #19
 8002ec6:	ea43 0308 	orr.w	r3, r3, r8
 8002eca:	f8c5 3910 	str.w	r3, [r5, #2320]	; 0x910
 8002ece:	f8d5 7910 	ldr.w	r7, [r5, #2320]	; 0x910
 8002ed2:	f3c6 0312 	ubfx	r3, r6, #0, #19
 8002ed6:	433b      	orrs	r3, r7
 8002ed8:	f8c5 3910 	str.w	r3, [r5, #2320]	; 0x910
 8002edc:	790f      	ldrb	r7, [r1, #4]
 8002ede:	2f01      	cmp	r7, #1
 8002ee0:	f505 6310 	add.w	r3, r5, #2304	; 0x900
 8002ee4:	d053      	beq.n	8002f8e <USB_EPStartXfer+0x1b2>
 8002ee6:	2a01      	cmp	r2, #1
 8002ee8:	d06d      	beq.n	8002fc6 <USB_EPStartXfer+0x1ea>
 8002eea:	f8d5 3900 	ldr.w	r3, [r5, #2304]	; 0x900
 8002eee:	f043 4304 	orr.w	r3, r3, #2214592512	; 0x84000000
 8002ef2:	f8c5 3900 	str.w	r3, [r5, #2304]	; 0x900
 8002ef6:	f8d0 2834 	ldr.w	r2, [r0, #2100]	; 0x834
 8002efa:	f00c 0c0f 	and.w	ip, ip, #15
 8002efe:	fa04 f30c 	lsl.w	r3, r4, ip
 8002f02:	4313      	orrs	r3, r2
 8002f04:	f8c0 3834 	str.w	r3, [r0, #2100]	; 0x834
 8002f08:	e7ab      	b.n	8002e62 <USB_EPStartXfer+0x86>
 8002f0a:	f8d5 4910 	ldr.w	r4, [r5, #2320]	; 0x910
 8002f0e:	f024 54ff 	bic.w	r4, r4, #534773760	; 0x1fe00000
 8002f12:	f424 14c0 	bic.w	r4, r4, #1572864	; 0x180000
 8002f16:	f8c5 4910 	str.w	r4, [r5, #2320]	; 0x910
 8002f1a:	f8d5 4910 	ldr.w	r4, [r5, #2320]	; 0x910
 8002f1e:	f444 2400 	orr.w	r4, r4, #524288	; 0x80000
 8002f22:	f8c5 4910 	str.w	r4, [r5, #2320]	; 0x910
 8002f26:	f8d5 4910 	ldr.w	r4, [r5, #2320]	; 0x910
 8002f2a:	0ce4      	lsrs	r4, r4, #19
 8002f2c:	04e4      	lsls	r4, r4, #19
 8002f2e:	f8c5 4910 	str.w	r4, [r5, #2320]	; 0x910
 8002f32:	2a01      	cmp	r2, #1
 8002f34:	f505 6310 	add.w	r3, r5, #2304	; 0x900
 8002f38:	790f      	ldrb	r7, [r1, #4]
 8002f3a:	d039      	beq.n	8002fb0 <USB_EPStartXfer+0x1d4>
 8002f3c:	f8d5 4900 	ldr.w	r4, [r5, #2304]	; 0x900
 8002f40:	2f01      	cmp	r7, #1
 8002f42:	f044 4404 	orr.w	r4, r4, #2214592512	; 0x84000000
 8002f46:	f8c5 4900 	str.w	r4, [r5, #2304]	; 0x900
 8002f4a:	d18a      	bne.n	8002e62 <USB_EPStartXfer+0x86>
 8002f4c:	f8d0 4808 	ldr.w	r4, [r0, #2056]	; 0x808
 8002f50:	f414 7f80 	tst.w	r4, #256	; 0x100
 8002f54:	681c      	ldr	r4, [r3, #0]
 8002f56:	bf0c      	ite	eq
 8002f58:	f044 5400 	orreq.w	r4, r4, #536870912	; 0x20000000
 8002f5c:	f044 5480 	orrne.w	r4, r4, #268435456	; 0x10000000
 8002f60:	601c      	str	r4, [r3, #0]
 8002f62:	2a00      	cmp	r2, #0
 8002f64:	f47f af7d 	bne.w	8002e62 <USB_EPStartXfer+0x86>
 8002f68:	b2b6      	uxth	r6, r6
 8002f6a:	3603      	adds	r6, #3
 8002f6c:	08b6      	lsrs	r6, r6, #2
 8002f6e:	f43f af78 	beq.w	8002e62 <USB_EPStartXfer+0x86>
 8002f72:	690b      	ldr	r3, [r1, #16]
 8002f74:	eb00 3c0c 	add.w	ip, r0, ip, lsl #12
 8002f78:	f50c 5c80 	add.w	ip, ip, #4096	; 0x1000
 8002f7c:	eb03 0186 	add.w	r1, r3, r6, lsl #2
 8002f80:	f853 2b04 	ldr.w	r2, [r3], #4
 8002f84:	f8cc 2000 	str.w	r2, [ip]
 8002f88:	428b      	cmp	r3, r1
 8002f8a:	d1f9      	bne.n	8002f80 <USB_EPStartXfer+0x1a4>
 8002f8c:	e769      	b.n	8002e62 <USB_EPStartXfer+0x86>
 8002f8e:	691c      	ldr	r4, [r3, #16]
 8002f90:	f024 44c0 	bic.w	r4, r4, #1610612736	; 0x60000000
 8002f94:	611c      	str	r4, [r3, #16]
 8002f96:	691c      	ldr	r4, [r3, #16]
 8002f98:	2a01      	cmp	r2, #1
 8002f9a:	f044 5400 	orr.w	r4, r4, #536870912	; 0x20000000
 8002f9e:	611c      	str	r4, [r3, #16]
 8002fa0:	d016      	beq.n	8002fd0 <USB_EPStartXfer+0x1f4>
 8002fa2:	f8d5 4900 	ldr.w	r4, [r5, #2304]	; 0x900
 8002fa6:	f044 4404 	orr.w	r4, r4, #2214592512	; 0x84000000
 8002faa:	f8c5 4900 	str.w	r4, [r5, #2304]	; 0x900
 8002fae:	e7cd      	b.n	8002f4c <USB_EPStartXfer+0x170>
 8002fb0:	694a      	ldr	r2, [r1, #20]
 8002fb2:	b95a      	cbnz	r2, 8002fcc <USB_EPStartXfer+0x1f0>
 8002fb4:	2f01      	cmp	r7, #1
 8002fb6:	d00e      	beq.n	8002fd6 <USB_EPStartXfer+0x1fa>
 8002fb8:	681a      	ldr	r2, [r3, #0]
 8002fba:	f042 4204 	orr.w	r2, r2, #2214592512	; 0x84000000
 8002fbe:	601a      	str	r2, [r3, #0]
 8002fc0:	2000      	movs	r0, #0
 8002fc2:	e8bd 81f0 	ldmia.w	sp!, {r4, r5, r6, r7, r8, pc}
 8002fc6:	694a      	ldr	r2, [r1, #20]
 8002fc8:	2a00      	cmp	r2, #0
 8002fca:	d0f5      	beq.n	8002fb8 <USB_EPStartXfer+0x1dc>
 8002fcc:	615a      	str	r2, [r3, #20]
 8002fce:	e7f1      	b.n	8002fb4 <USB_EPStartXfer+0x1d8>
 8002fd0:	694a      	ldr	r2, [r1, #20]
 8002fd2:	2a00      	cmp	r2, #0
 8002fd4:	d1fa      	bne.n	8002fcc <USB_EPStartXfer+0x1f0>
 8002fd6:	f8d0 2808 	ldr.w	r2, [r0, #2056]	; 0x808
 8002fda:	f412 7f80 	tst.w	r2, #256	; 0x100
 8002fde:	681a      	ldr	r2, [r3, #0]
 8002fe0:	bf0c      	ite	eq
 8002fe2:	f042 5200 	orreq.w	r2, r2, #536870912	; 0x20000000
 8002fe6:	f042 5280 	orrne.w	r2, r2, #268435456	; 0x10000000
 8002fea:	601a      	str	r2, [r3, #0]
 8002fec:	e7e4      	b.n	8002fb8 <USB_EPStartXfer+0x1dc>
 8002fee:	bf00      	nop
 8002ff0:	1ff80000 	.word	0x1ff80000

08002ff4 <USB_EP0StartXfer>:
 8002ff4:	784b      	ldrb	r3, [r1, #1]
 8002ff6:	2b01      	cmp	r3, #1
 8002ff8:	b4f0      	push	{r4, r5, r6, r7}
 8002ffa:	780c      	ldrb	r4, [r1, #0]
 8002ffc:	d028      	beq.n	8003050 <USB_EP0StartXfer+0x5c>
 8002ffe:	eb00 1044 	add.w	r0, r0, r4, lsl #5
 8003002:	f500 6330 	add.w	r3, r0, #2816	; 0xb00
 8003006:	691c      	ldr	r4, [r3, #16]
 8003008:	0ce4      	lsrs	r4, r4, #19
 800300a:	04e4      	lsls	r4, r4, #19
 800300c:	611c      	str	r4, [r3, #16]
 800300e:	691c      	ldr	r4, [r3, #16]
 8003010:	f024 54ff 	bic.w	r4, r4, #534773760	; 0x1fe00000
 8003014:	f424 14c0 	bic.w	r4, r4, #1572864	; 0x180000
 8003018:	611c      	str	r4, [r3, #16]
 800301a:	698c      	ldr	r4, [r1, #24]
 800301c:	b9ac      	cbnz	r4, 800304a <USB_EP0StartXfer+0x56>
 800301e:	68cc      	ldr	r4, [r1, #12]
 8003020:	691d      	ldr	r5, [r3, #16]
 8003022:	61cc      	str	r4, [r1, #28]
 8003024:	f445 2500 	orr.w	r5, r5, #524288	; 0x80000
 8003028:	611d      	str	r5, [r3, #16]
 800302a:	691d      	ldr	r5, [r3, #16]
 800302c:	f3c4 0412 	ubfx	r4, r4, #0, #19
 8003030:	432c      	orrs	r4, r5
 8003032:	2a01      	cmp	r2, #1
 8003034:	611c      	str	r4, [r3, #16]
 8003036:	d043      	beq.n	80030c0 <USB_EP0StartXfer+0xcc>
 8003038:	f8d0 3b00 	ldr.w	r3, [r0, #2816]	; 0xb00
 800303c:	f043 4304 	orr.w	r3, r3, #2214592512	; 0x84000000
 8003040:	f8c0 3b00 	str.w	r3, [r0, #2816]	; 0xb00
 8003044:	2000      	movs	r0, #0
 8003046:	bcf0      	pop	{r4, r5, r6, r7}
 8003048:	4770      	bx	lr
 800304a:	68cc      	ldr	r4, [r1, #12]
 800304c:	618c      	str	r4, [r1, #24]
 800304e:	e7e7      	b.n	8003020 <USB_EP0StartXfer+0x2c>
 8003050:	698d      	ldr	r5, [r1, #24]
 8003052:	2d00      	cmp	r5, #0
 8003054:	d039      	beq.n	80030ca <USB_EP0StartXfer+0xd6>
 8003056:	eb00 1c44 	add.w	ip, r0, r4, lsl #5
 800305a:	68ce      	ldr	r6, [r1, #12]
 800305c:	f8dc 3910 	ldr.w	r3, [ip, #2320]	; 0x910
 8003060:	0cdb      	lsrs	r3, r3, #19
 8003062:	04db      	lsls	r3, r3, #19
 8003064:	f8cc 3910 	str.w	r3, [ip, #2320]	; 0x910
 8003068:	f8dc 3910 	ldr.w	r3, [ip, #2320]	; 0x910
 800306c:	f023 53ff 	bic.w	r3, r3, #534773760	; 0x1fe00000
 8003070:	f423 13c0 	bic.w	r3, r3, #1572864	; 0x180000
 8003074:	42b5      	cmp	r5, r6
 8003076:	f8cc 3910 	str.w	r3, [ip, #2320]	; 0x910
 800307a:	f50c 6310 	add.w	r3, ip, #2304	; 0x900
 800307e:	d952      	bls.n	8003126 <USB_EP0StartXfer+0x132>
 8003080:	691d      	ldr	r5, [r3, #16]
 8003082:	618e      	str	r6, [r1, #24]
 8003084:	f445 2500 	orr.w	r5, r5, #524288	; 0x80000
 8003088:	611d      	str	r5, [r3, #16]
 800308a:	691f      	ldr	r7, [r3, #16]
 800308c:	f3c6 0512 	ubfx	r5, r6, #0, #19
 8003090:	433d      	orrs	r5, r7
 8003092:	2a01      	cmp	r2, #1
 8003094:	611d      	str	r5, [r3, #16]
 8003096:	d03c      	beq.n	8003112 <USB_EP0StartXfer+0x11e>
 8003098:	f8dc 3900 	ldr.w	r3, [ip, #2304]	; 0x900
 800309c:	f043 4304 	orr.w	r3, r3, #2214592512	; 0x84000000
 80030a0:	f8cc 3900 	str.w	r3, [ip, #2304]	; 0x900
 80030a4:	2e00      	cmp	r6, #0
 80030a6:	d0cd      	beq.n	8003044 <USB_EP0StartXfer+0x50>
 80030a8:	f8d0 2834 	ldr.w	r2, [r0, #2100]	; 0x834
 80030ac:	f004 040f 	and.w	r4, r4, #15
 80030b0:	2301      	movs	r3, #1
 80030b2:	40a3      	lsls	r3, r4
 80030b4:	4313      	orrs	r3, r2
 80030b6:	f8c0 3834 	str.w	r3, [r0, #2100]	; 0x834
 80030ba:	bcf0      	pop	{r4, r5, r6, r7}
 80030bc:	2000      	movs	r0, #0
 80030be:	4770      	bx	lr
 80030c0:	690a      	ldr	r2, [r1, #16]
 80030c2:	2a00      	cmp	r2, #0
 80030c4:	d0b8      	beq.n	8003038 <USB_EP0StartXfer+0x44>
 80030c6:	615a      	str	r2, [r3, #20]
 80030c8:	e7b6      	b.n	8003038 <USB_EP0StartXfer+0x44>
 80030ca:	eb00 1044 	add.w	r0, r0, r4, lsl #5
 80030ce:	2a01      	cmp	r2, #1
 80030d0:	f8d0 4910 	ldr.w	r4, [r0, #2320]	; 0x910
 80030d4:	f024 54ff 	bic.w	r4, r4, #534773760	; 0x1fe00000
 80030d8:	f424 14c0 	bic.w	r4, r4, #1572864	; 0x180000
 80030dc:	f8c0 4910 	str.w	r4, [r0, #2320]	; 0x910
 80030e0:	f8d0 4910 	ldr.w	r4, [r0, #2320]	; 0x910
 80030e4:	f444 2400 	orr.w	r4, r4, #524288	; 0x80000
 80030e8:	f8c0 4910 	str.w	r4, [r0, #2320]	; 0x910
 80030ec:	f8d0 4910 	ldr.w	r4, [r0, #2320]	; 0x910
 80030f0:	ea4f 44d4 	mov.w	r4, r4, lsr #19
 80030f4:	ea4f 44c4 	mov.w	r4, r4, lsl #19
 80030f8:	f500 6310 	add.w	r3, r0, #2304	; 0x900
 80030fc:	611c      	str	r4, [r3, #16]
 80030fe:	d008      	beq.n	8003112 <USB_EP0StartXfer+0x11e>
 8003100:	f8d0 3900 	ldr.w	r3, [r0, #2304]	; 0x900
 8003104:	f043 4304 	orr.w	r3, r3, #2214592512	; 0x84000000
 8003108:	f8c0 3900 	str.w	r3, [r0, #2304]	; 0x900
 800310c:	bcf0      	pop	{r4, r5, r6, r7}
 800310e:	2000      	movs	r0, #0
 8003110:	4770      	bx	lr
 8003112:	694a      	ldr	r2, [r1, #20]
 8003114:	b102      	cbz	r2, 8003118 <USB_EP0StartXfer+0x124>
 8003116:	615a      	str	r2, [r3, #20]
 8003118:	681a      	ldr	r2, [r3, #0]
 800311a:	f042 4204 	orr.w	r2, r2, #2214592512	; 0x84000000
 800311e:	2000      	movs	r0, #0
 8003120:	bcf0      	pop	{r4, r5, r6, r7}
 8003122:	601a      	str	r2, [r3, #0]
 8003124:	4770      	bx	lr
 8003126:	691e      	ldr	r6, [r3, #16]
 8003128:	f446 2600 	orr.w	r6, r6, #524288	; 0x80000
 800312c:	611e      	str	r6, [r3, #16]
 800312e:	691e      	ldr	r6, [r3, #16]
 8003130:	f3c5 0512 	ubfx	r5, r5, #0, #19
 8003134:	4335      	orrs	r5, r6
 8003136:	2a01      	cmp	r2, #1
 8003138:	611d      	str	r5, [r3, #16]
 800313a:	d0ea      	beq.n	8003112 <USB_EP0StartXfer+0x11e>
 800313c:	f8dc 3900 	ldr.w	r3, [ip, #2304]	; 0x900
 8003140:	f043 4304 	orr.w	r3, r3, #2214592512	; 0x84000000
 8003144:	f8cc 3900 	str.w	r3, [ip, #2304]	; 0x900
 8003148:	e7ae      	b.n	80030a8 <USB_EP0StartXfer+0xb4>
 800314a:	bf00      	nop

0800314c <USB_EPStopXfer>:
 800314c:	784b      	ldrb	r3, [r1, #1]
 800314e:	b082      	sub	sp, #8
 8003150:	2200      	movs	r2, #0
 8003152:	2b01      	cmp	r3, #1
 8003154:	9201      	str	r2, [sp, #4]
 8003156:	780b      	ldrb	r3, [r1, #0]
 8003158:	d020      	beq.n	800319c <USB_EPStopXfer+0x50>
 800315a:	f500 6030 	add.w	r0, r0, #2816	; 0xb00
 800315e:	eb00 1043 	add.w	r0, r0, r3, lsl #5
 8003162:	6803      	ldr	r3, [r0, #0]
 8003164:	2b00      	cmp	r3, #0
 8003166:	db02      	blt.n	800316e <USB_EPStopXfer+0x22>
 8003168:	2000      	movs	r0, #0
 800316a:	b002      	add	sp, #8
 800316c:	4770      	bx	lr
 800316e:	6803      	ldr	r3, [r0, #0]
 8003170:	f043 6300 	orr.w	r3, r3, #134217728	; 0x8000000
 8003174:	6003      	str	r3, [r0, #0]
 8003176:	6803      	ldr	r3, [r0, #0]
 8003178:	f043 4380 	orr.w	r3, r3, #1073741824	; 0x40000000
 800317c:	f242 7210 	movw	r2, #10000	; 0x2710
 8003180:	6003      	str	r3, [r0, #0]
 8003182:	e002      	b.n	800318a <USB_EPStopXfer+0x3e>
 8003184:	6803      	ldr	r3, [r0, #0]
 8003186:	2b00      	cmp	r3, #0
 8003188:	daee      	bge.n	8003168 <USB_EPStopXfer+0x1c>
 800318a:	9b01      	ldr	r3, [sp, #4]
 800318c:	3301      	adds	r3, #1
 800318e:	9301      	str	r3, [sp, #4]
 8003190:	9b01      	ldr	r3, [sp, #4]
 8003192:	4293      	cmp	r3, r2
 8003194:	d9f6      	bls.n	8003184 <USB_EPStopXfer+0x38>
 8003196:	2001      	movs	r0, #1
 8003198:	b002      	add	sp, #8
 800319a:	4770      	bx	lr
 800319c:	f500 6010 	add.w	r0, r0, #2304	; 0x900
 80031a0:	eb00 1343 	add.w	r3, r0, r3, lsl #5
 80031a4:	681a      	ldr	r2, [r3, #0]
 80031a6:	2a00      	cmp	r2, #0
 80031a8:	dade      	bge.n	8003168 <USB_EPStopXfer+0x1c>
 80031aa:	681a      	ldr	r2, [r3, #0]
 80031ac:	f042 6200 	orr.w	r2, r2, #134217728	; 0x8000000
 80031b0:	601a      	str	r2, [r3, #0]
 80031b2:	681a      	ldr	r2, [r3, #0]
 80031b4:	f042 4280 	orr.w	r2, r2, #1073741824	; 0x40000000
 80031b8:	f242 7110 	movw	r1, #10000	; 0x2710
 80031bc:	601a      	str	r2, [r3, #0]
 80031be:	e002      	b.n	80031c6 <USB_EPStopXfer+0x7a>
 80031c0:	681a      	ldr	r2, [r3, #0]
 80031c2:	2a00      	cmp	r2, #0
 80031c4:	dad0      	bge.n	8003168 <USB_EPStopXfer+0x1c>
 80031c6:	9a01      	ldr	r2, [sp, #4]
 80031c8:	3201      	adds	r2, #1
 80031ca:	9201      	str	r2, [sp, #4]
 80031cc:	9a01      	ldr	r2, [sp, #4]
 80031ce:	428a      	cmp	r2, r1
 80031d0:	d9f6      	bls.n	80031c0 <USB_EPStopXfer+0x74>
 80031d2:	e7e0      	b.n	8003196 <USB_EPStopXfer+0x4a>

080031d4 <USB_WritePacket>:
 80031d4:	b410      	push	{r4}
 80031d6:	f89d 4004 	ldrb.w	r4, [sp, #4]
 80031da:	b964      	cbnz	r4, 80031f6 <USB_WritePacket+0x22>
 80031dc:	3303      	adds	r3, #3
 80031de:	089b      	lsrs	r3, r3, #2
 80031e0:	d009      	beq.n	80031f6 <USB_WritePacket+0x22>
 80031e2:	3201      	adds	r2, #1
 80031e4:	eb00 3002 	add.w	r0, r0, r2, lsl #12
 80031e8:	eb01 0383 	add.w	r3, r1, r3, lsl #2
 80031ec:	f851 2b04 	ldr.w	r2, [r1], #4
 80031f0:	6002      	str	r2, [r0, #0]
 80031f2:	428b      	cmp	r3, r1
 80031f4:	d1fa      	bne.n	80031ec <USB_WritePacket+0x18>
 80031f6:	2000      	movs	r0, #0
 80031f8:	f85d 4b04 	ldr.w	r4, [sp], #4
 80031fc:	4770      	bx	lr
 80031fe:	bf00      	nop

08003200 <USB_ReadPacket>:
 8003200:	b530      	push	{r4, r5, lr}
 8003202:	ea5f 0e92 	movs.w	lr, r2, lsr #2
 8003206:	f002 0503 	and.w	r5, r2, #3
 800320a:	d00b      	beq.n	8003224 <USB_ReadPacket+0x24>
 800320c:	f500 5480 	add.w	r4, r0, #4096	; 0x1000
 8003210:	468c      	mov	ip, r1
 8003212:	2300      	movs	r3, #0
 8003214:	3301      	adds	r3, #1
 8003216:	6822      	ldr	r2, [r4, #0]
 8003218:	f84c 2b04 	str.w	r2, [ip], #4
 800321c:	459e      	cmp	lr, r3
 800321e:	d1f9      	bne.n	8003214 <USB_ReadPacket+0x14>
 8003220:	eb01 018e 	add.w	r1, r1, lr, lsl #2
 8003224:	b17d      	cbz	r5, 8003246 <USB_ReadPacket+0x46>
 8003226:	f500 5080 	add.w	r0, r0, #4096	; 0x1000
 800322a:	1e6b      	subs	r3, r5, #1
 800322c:	6802      	ldr	r2, [r0, #0]
 800322e:	700a      	strb	r2, [r1, #0]
 8003230:	b29b      	uxth	r3, r3
 8003232:	b13b      	cbz	r3, 8003244 <USB_ReadPacket+0x44>
 8003234:	2b01      	cmp	r3, #1
 8003236:	ea4f 2012 	mov.w	r0, r2, lsr #8
 800323a:	bf18      	it	ne
 800323c:	0c12      	lsrne	r2, r2, #16
 800323e:	7048      	strb	r0, [r1, #1]
 8003240:	bf18      	it	ne
 8003242:	708a      	strbne	r2, [r1, #2]
 8003244:	4429      	add	r1, r5
 8003246:	4608      	mov	r0, r1
 8003248:	bd30      	pop	{r4, r5, pc}
 800324a:	bf00      	nop

0800324c <USB_EPSetStall>:
 800324c:	784a      	ldrb	r2, [r1, #1]
 800324e:	780b      	ldrb	r3, [r1, #0]
 8003250:	2a01      	cmp	r2, #1
 8003252:	eb00 1043 	add.w	r0, r0, r3, lsl #5
 8003256:	d00c      	beq.n	8003272 <USB_EPSetStall+0x26>
 8003258:	f8d0 2b00 	ldr.w	r2, [r0, #2816]	; 0xb00
 800325c:	2a00      	cmp	r2, #0
 800325e:	db00      	blt.n	8003262 <USB_EPSetStall+0x16>
 8003260:	b9d3      	cbnz	r3, 8003298 <USB_EPSetStall+0x4c>
 8003262:	f8d0 3b00 	ldr.w	r3, [r0, #2816]	; 0xb00
 8003266:	f443 1300 	orr.w	r3, r3, #2097152	; 0x200000
 800326a:	f8c0 3b00 	str.w	r3, [r0, #2816]	; 0xb00
 800326e:	2000      	movs	r0, #0
 8003270:	4770      	bx	lr
 8003272:	f8d0 2900 	ldr.w	r2, [r0, #2304]	; 0x900
 8003276:	2a00      	cmp	r2, #0
 8003278:	db06      	blt.n	8003288 <USB_EPSetStall+0x3c>
 800327a:	b12b      	cbz	r3, 8003288 <USB_EPSetStall+0x3c>
 800327c:	f8d0 3900 	ldr.w	r3, [r0, #2304]	; 0x900
 8003280:	f023 4380 	bic.w	r3, r3, #1073741824	; 0x40000000
 8003284:	f8c0 3900 	str.w	r3, [r0, #2304]	; 0x900
 8003288:	f8d0 3900 	ldr.w	r3, [r0, #2304]	; 0x900
 800328c:	f443 1300 	orr.w	r3, r3, #2097152	; 0x200000
 8003290:	f8c0 3900 	str.w	r3, [r0, #2304]	; 0x900
 8003294:	2000      	movs	r0, #0
 8003296:	4770      	bx	lr
 8003298:	f8d0 3b00 	ldr.w	r3, [r0, #2816]	; 0xb00
 800329c:	f023 4380 	bic.w	r3, r3, #1073741824	; 0x40000000
 80032a0:	f8c0 3b00 	str.w	r3, [r0, #2816]	; 0xb00
 80032a4:	e7dd      	b.n	8003262 <USB_EPSetStall+0x16>
 80032a6:	bf00      	nop

080032a8 <USB_EPClearStall>:
 80032a8:	784a      	ldrb	r2, [r1, #1]
 80032aa:	780b      	ldrb	r3, [r1, #0]
 80032ac:	2a01      	cmp	r2, #1
 80032ae:	eb00 1043 	add.w	r0, r0, r3, lsl #5
 80032b2:	d013      	beq.n	80032dc <USB_EPClearStall+0x34>
 80032b4:	f8d0 3b00 	ldr.w	r3, [r0, #2816]	; 0xb00
 80032b8:	f423 1300 	bic.w	r3, r3, #2097152	; 0x200000
 80032bc:	f8c0 3b00 	str.w	r3, [r0, #2816]	; 0xb00
 80032c0:	790b      	ldrb	r3, [r1, #4]
 80032c2:	3b02      	subs	r3, #2
 80032c4:	2b01      	cmp	r3, #1
 80032c6:	d901      	bls.n	80032cc <USB_EPClearStall+0x24>
 80032c8:	2000      	movs	r0, #0
 80032ca:	4770      	bx	lr
 80032cc:	f8d0 3b00 	ldr.w	r3, [r0, #2816]	; 0xb00
 80032d0:	f043 5380 	orr.w	r3, r3, #268435456	; 0x10000000
 80032d4:	f8c0 3b00 	str.w	r3, [r0, #2816]	; 0xb00
 80032d8:	2000      	movs	r0, #0
 80032da:	4770      	bx	lr
 80032dc:	f8d0 3900 	ldr.w	r3, [r0, #2304]	; 0x900
 80032e0:	f423 1300 	bic.w	r3, r3, #2097152	; 0x200000
 80032e4:	f8c0 3900 	str.w	r3, [r0, #2304]	; 0x900
 80032e8:	790b      	ldrb	r3, [r1, #4]
 80032ea:	3b02      	subs	r3, #2
 80032ec:	2b01      	cmp	r3, #1
 80032ee:	d8eb      	bhi.n	80032c8 <USB_EPClearStall+0x20>
 80032f0:	f8d0 3900 	ldr.w	r3, [r0, #2304]	; 0x900
 80032f4:	f043 5380 	orr.w	r3, r3, #268435456	; 0x10000000
 80032f8:	f8c0 3900 	str.w	r3, [r0, #2304]	; 0x900
 80032fc:	2000      	movs	r0, #0
 80032fe:	4770      	bx	lr

08003300 <USB_SetDevAddress>:
 8003300:	f8d0 3800 	ldr.w	r3, [r0, #2048]	; 0x800
 8003304:	f423 63fe 	bic.w	r3, r3, #2032	; 0x7f0
 8003308:	f8c0 3800 	str.w	r3, [r0, #2048]	; 0x800
 800330c:	f8d0 3800 	ldr.w	r3, [r0, #2048]	; 0x800
 8003310:	0109      	lsls	r1, r1, #4
 8003312:	f401 61fe 	and.w	r1, r1, #2032	; 0x7f0
 8003316:	4319      	orrs	r1, r3
 8003318:	f8c0 1800 	str.w	r1, [r0, #2048]	; 0x800
 800331c:	2000      	movs	r0, #0
 800331e:	4770      	bx	lr

08003320 <USB_DevConnect>:
 8003320:	f8d0 2e00 	ldr.w	r2, [r0, #3584]	; 0xe00
 8003324:	4603      	mov	r3, r0
 8003326:	f022 0203 	bic.w	r2, r2, #3
 800332a:	f8c3 2e00 	str.w	r2, [r3, #3584]	; 0xe00
 800332e:	f8d3 3804 	ldr.w	r3, [r3, #2052]	; 0x804
 8003332:	f500 6100 	add.w	r1, r0, #2048	; 0x800
 8003336:	f023 0302 	bic.w	r3, r3, #2
 800333a:	2000      	movs	r0, #0
 800333c:	604b      	str	r3, [r1, #4]
 800333e:	4770      	bx	lr

08003340 <USB_DevDisconnect>:
 8003340:	f8d0 2e00 	ldr.w	r2, [r0, #3584]	; 0xe00
 8003344:	4603      	mov	r3, r0
 8003346:	f022 0203 	bic.w	r2, r2, #3
 800334a:	f8c3 2e00 	str.w	r2, [r3, #3584]	; 0xe00
 800334e:	f8d3 3804 	ldr.w	r3, [r3, #2052]	; 0x804
 8003352:	f500 6100 	add.w	r1, r0, #2048	; 0x800
 8003356:	f043 0302 	orr.w	r3, r3, #2
 800335a:	2000      	movs	r0, #0
 800335c:	604b      	str	r3, [r1, #4]
 800335e:	4770      	bx	lr

08003360 <USB_ReadInterrupts>:
 8003360:	6942      	ldr	r2, [r0, #20]
 8003362:	6980      	ldr	r0, [r0, #24]
 8003364:	4010      	ands	r0, r2
 8003366:	4770      	bx	lr

08003368 <USB_ReadDevAllOutEpInterrupt>:
 8003368:	f8d0 3818 	ldr.w	r3, [r0, #2072]	; 0x818
 800336c:	f500 6000 	add.w	r0, r0, #2048	; 0x800
 8003370:	69c0      	ldr	r0, [r0, #28]
 8003372:	4018      	ands	r0, r3
 8003374:	0c00      	lsrs	r0, r0, #16
 8003376:	4770      	bx	lr

08003378 <USB_ReadDevAllInEpInterrupt>:
 8003378:	f8d0 3818 	ldr.w	r3, [r0, #2072]	; 0x818
 800337c:	f500 6000 	add.w	r0, r0, #2048	; 0x800
 8003380:	69c0      	ldr	r0, [r0, #28]
 8003382:	4018      	ands	r0, r3
 8003384:	b280      	uxth	r0, r0
 8003386:	4770      	bx	lr

08003388 <USB_ReadDevOutEPInterrupt>:
 8003388:	eb00 1141 	add.w	r1, r0, r1, lsl #5
 800338c:	f500 6000 	add.w	r0, r0, #2048	; 0x800
 8003390:	f8d1 2b08 	ldr.w	r2, [r1, #2824]	; 0xb08
 8003394:	6940      	ldr	r0, [r0, #20]
 8003396:	4010      	ands	r0, r2
 8003398:	4770      	bx	lr
 800339a:	bf00      	nop

0800339c <USB_ReadDevInEPInterrupt>:
 800339c:	f8d0 2810 	ldr.w	r2, [r0, #2064]	; 0x810
 80033a0:	f8d0 3834 	ldr.w	r3, [r0, #2100]	; 0x834
 80033a4:	eb00 1041 	add.w	r0, r0, r1, lsl #5
 80033a8:	f001 010f 	and.w	r1, r1, #15
 80033ac:	40cb      	lsrs	r3, r1
 80033ae:	01db      	lsls	r3, r3, #7
 80033b0:	f8d0 0908 	ldr.w	r0, [r0, #2312]	; 0x908
 80033b4:	b2db      	uxtb	r3, r3
 80033b6:	4313      	orrs	r3, r2
 80033b8:	4018      	ands	r0, r3
 80033ba:	4770      	bx	lr

080033bc <USB_GetMode>:
 80033bc:	6940      	ldr	r0, [r0, #20]
 80033be:	f000 0001 	and.w	r0, r0, #1
 80033c2:	4770      	bx	lr

080033c4 <USB_ActivateSetup>:
 80033c4:	f8d0 2900 	ldr.w	r2, [r0, #2304]	; 0x900
 80033c8:	4603      	mov	r3, r0
 80033ca:	f422 62ff 	bic.w	r2, r2, #2040	; 0x7f8
 80033ce:	f022 0207 	bic.w	r2, r2, #7
 80033d2:	f8c3 2900 	str.w	r2, [r3, #2304]	; 0x900
 80033d6:	f8d3 3804 	ldr.w	r3, [r3, #2052]	; 0x804
 80033da:	f500 6100 	add.w	r1, r0, #2048	; 0x800
 80033de:	f443 7380 	orr.w	r3, r3, #256	; 0x100
 80033e2:	2000      	movs	r0, #0
 80033e4:	604b      	str	r3, [r1, #4]
 80033e6:	4770      	bx	lr

080033e8 <USB_EP0_OutStart>:
 80033e8:	b410      	push	{r4}
 80033ea:	4b14      	ldr	r3, [pc, #80]	; (800343c <USB_EP0_OutStart+0x54>)
 80033ec:	6c04      	ldr	r4, [r0, #64]	; 0x40
 80033ee:	429c      	cmp	r4, r3
 80033f0:	d81a      	bhi.n	8003428 <USB_EP0_OutStart+0x40>
 80033f2:	f500 6030 	add.w	r0, r0, #2816	; 0xb00
 80033f6:	2300      	movs	r3, #0
 80033f8:	6103      	str	r3, [r0, #16]
 80033fa:	6903      	ldr	r3, [r0, #16]
 80033fc:	f443 2300 	orr.w	r3, r3, #524288	; 0x80000
 8003400:	6103      	str	r3, [r0, #16]
 8003402:	6903      	ldr	r3, [r0, #16]
 8003404:	f043 0318 	orr.w	r3, r3, #24
 8003408:	6103      	str	r3, [r0, #16]
 800340a:	6903      	ldr	r3, [r0, #16]
 800340c:	2901      	cmp	r1, #1
 800340e:	f043 43c0 	orr.w	r3, r3, #1610612736	; 0x60000000
 8003412:	6103      	str	r3, [r0, #16]
 8003414:	d104      	bne.n	8003420 <USB_EP0_OutStart+0x38>
 8003416:	6142      	str	r2, [r0, #20]
 8003418:	6803      	ldr	r3, [r0, #0]
 800341a:	f043 2380 	orr.w	r3, r3, #2147516416	; 0x80008000
 800341e:	6003      	str	r3, [r0, #0]
 8003420:	2000      	movs	r0, #0
 8003422:	f85d 4b04 	ldr.w	r4, [sp], #4
 8003426:	4770      	bx	lr
 8003428:	f8d0 3b00 	ldr.w	r3, [r0, #2816]	; 0xb00
 800342c:	2b00      	cmp	r3, #0
 800342e:	f500 6030 	add.w	r0, r0, #2816	; 0xb00
 8003432:	dae0      	bge.n	80033f6 <USB_EP0_OutStart+0xe>
 8003434:	2000      	movs	r0, #0
 8003436:	f85d 4b04 	ldr.w	r4, [sp], #4
 800343a:	4770      	bx	lr
 800343c:	4f54300a 	.word	0x4f54300a

08003440 <LL_mDelay>:
 8003440:	f04f 23e0 	mov.w	r3, #3758153728	; 0xe000e000
 8003444:	b082      	sub	sp, #8
 8003446:	691b      	ldr	r3, [r3, #16]
 8003448:	9301      	str	r3, [sp, #4]
 800344a:	1c42      	adds	r2, r0, #1
 800344c:	9b01      	ldr	r3, [sp, #4]
 800344e:	bf18      	it	ne
 8003450:	3001      	addne	r0, #1
 8003452:	f04f 22e0 	mov.w	r2, #3758153728	; 0xe000e000
 8003456:	6913      	ldr	r3, [r2, #16]
 8003458:	03db      	lsls	r3, r3, #15
 800345a:	d5fc      	bpl.n	8003456 <LL_mDelay+0x16>
 800345c:	3801      	subs	r0, #1
 800345e:	d1fa      	bne.n	8003456 <LL_mDelay+0x16>
 8003460:	b002      	add	sp, #8
 8003462:	4770      	bx	lr

08003464 <LL_SetSystemCoreClock>:
 8003464:	4b01      	ldr	r3, [pc, #4]	; (800346c <LL_SetSystemCoreClock+0x8>)
 8003466:	6018      	str	r0, [r3, #0]
 8003468:	4770      	bx	lr
 800346a:	bf00      	nop
 800346c:	20000000 	.word	0x20000000

08003470 <tjd_output>:
 8003470:	b530      	push	{r4, r5, lr}
 8003472:	f8d0 509c 	ldr.w	r5, [r0, #156]	; 0x9c
 8003476:	88d4      	ldrh	r4, [r2, #6]
 8003478:	f8b2 c004 	ldrh.w	ip, [r2, #4]
 800347c:	8810      	ldrh	r0, [r2, #0]
 800347e:	8853      	ldrh	r3, [r2, #2]
 8003480:	896a      	ldrh	r2, [r5, #10]
 8003482:	3401      	adds	r4, #1
 8003484:	eba4 040c 	sub.w	r4, r4, ip
 8003488:	4462      	add	r2, ip
 800348a:	f8b5 c008 	ldrh.w	ip, [r5, #8]
 800348e:	b085      	sub	sp, #20
 8003490:	b2a4      	uxth	r4, r4
 8003492:	3301      	adds	r3, #1
 8003494:	4484      	add	ip, r0
 8003496:	1a1b      	subs	r3, r3, r0
 8003498:	6868      	ldr	r0, [r5, #4]
 800349a:	e9cd 4100 	strd	r4, r1, [sp]
 800349e:	2401      	movs	r4, #1
 80034a0:	b29b      	uxth	r3, r3
 80034a2:	b292      	uxth	r2, r2
 80034a4:	fa1f f18c 	uxth.w	r1, ip
 80034a8:	9402      	str	r4, [sp, #8]
 80034aa:	f7fd fd1a 	bl	8000ee2 <LCD_DrawImage>
 80034ae:	2000      	movs	r0, #0
 80034b0:	b005      	add	sp, #20
 80034b2:	bd30      	pop	{r4, r5, pc}

080034b4 <tjd_input_memory>:
 80034b4:	b570      	push	{r4, r5, r6, lr}
 80034b6:	f8d0 609c 	ldr.w	r6, [r0, #156]	; 0x9c
 80034ba:	6833      	ldr	r3, [r6, #0]
 80034bc:	685d      	ldr	r5, [r3, #4]
 80034be:	42aa      	cmp	r2, r5
 80034c0:	bf28      	it	cs
 80034c2:	462a      	movcs	r2, r5
 80034c4:	4614      	mov	r4, r2
 80034c6:	b129      	cbz	r1, 80034d4 <tjd_input_memory+0x20>
 80034c8:	4608      	mov	r0, r1
 80034ca:	6819      	ldr	r1, [r3, #0]
 80034cc:	f002 ff5e 	bl	800638c <memcpy>
 80034d0:	6833      	ldr	r3, [r6, #0]
 80034d2:	685d      	ldr	r5, [r3, #4]
 80034d4:	681a      	ldr	r2, [r3, #0]
 80034d6:	1b2d      	subs	r5, r5, r4
 80034d8:	4422      	add	r2, r4
 80034da:	e9c3 2500 	strd	r2, r5, [r3]
 80034de:	4620      	mov	r0, r4
 80034e0:	bd70      	pop	{r4, r5, r6, pc}
 80034e2:	bf00      	nop

080034e4 <LCD_Load_JPG_chan>:
 80034e4:	b530      	push	{r4, r5, lr}
 80034e6:	b0b1      	sub	sp, #196	; 0xc4
 80034e8:	f8ad 201e 	strh.w	r2, [sp, #30]
 80034ec:	f89d 20d8 	ldrb.w	r2, [sp, #216]	; 0xd8
 80034f0:	f8bd 50d0 	ldrh.w	r5, [sp, #208]	; 0xd0
 80034f4:	9006      	str	r0, [sp, #24]
 80034f6:	2a01      	cmp	r2, #1
 80034f8:	f8ad 101c 	strh.w	r1, [sp, #28]
 80034fc:	d002      	beq.n	8003504 <LCD_Load_JPG_chan+0x20>
 80034fe:	2002      	movs	r0, #2
 8003500:	b031      	add	sp, #196	; 0xc4
 8003502:	bd30      	pop	{r4, r5, pc}
 8003504:	9a35      	ldr	r2, [sp, #212]	; 0xd4
 8003506:	491a      	ldr	r1, [pc, #104]	; (8003570 <LCD_Load_JPG_chan+0x8c>)
 8003508:	6812      	ldr	r2, [r2, #0]
 800350a:	9203      	str	r2, [sp, #12]
 800350c:	461c      	mov	r4, r3
 800350e:	9a35      	ldr	r2, [sp, #212]	; 0xd4
 8003510:	ab05      	add	r3, sp, #20
 8003512:	9300      	str	r3, [sp, #0]
 8003514:	6852      	ldr	r2, [r2, #4]
 8003516:	9204      	str	r2, [sp, #16]
 8003518:	aa03      	add	r2, sp, #12
 800351a:	9205      	str	r2, [sp, #20]
 800351c:	f642 63e0 	movw	r3, #12000	; 0x2ee0
 8003520:	4a14      	ldr	r2, [pc, #80]	; (8003574 <LCD_Load_JPG_chan+0x90>)
 8003522:	a808      	add	r0, sp, #32
 8003524:	f000 f82a 	bl	800357c <jd_prepare>
 8003528:	2800      	cmp	r0, #0
 800352a:	d1e9      	bne.n	8003500 <LCD_Load_JPG_chan+0x1c>
 800352c:	f8bd 303c 	ldrh.w	r3, [sp, #60]	; 0x3c
 8003530:	f8bd 203e 	ldrh.w	r2, [sp, #62]	; 0x3e
 8003534:	42a3      	cmp	r3, r4
 8003536:	dc01      	bgt.n	800353c <LCD_Load_JPG_chan+0x58>
 8003538:	42aa      	cmp	r2, r5
 800353a:	dd09      	ble.n	8003550 <LCD_Load_JPG_chan+0x6c>
 800353c:	ebb4 0f53 	cmp.w	r4, r3, lsr #1
 8003540:	db02      	blt.n	8003548 <LCD_Load_JPG_chan+0x64>
 8003542:	ebb5 0f52 	cmp.w	r5, r2, lsr #1
 8003546:	da10      	bge.n	800356a <LCD_Load_JPG_chan+0x86>
 8003548:	ebb4 0f93 	cmp.w	r4, r3, lsr #2
 800354c:	da07      	bge.n	800355e <LCD_Load_JPG_chan+0x7a>
 800354e:	2003      	movs	r0, #3
 8003550:	4602      	mov	r2, r0
 8003552:	4909      	ldr	r1, [pc, #36]	; (8003578 <LCD_Load_JPG_chan+0x94>)
 8003554:	a808      	add	r0, sp, #32
 8003556:	f000 fca3 	bl	8003ea0 <jd_decomp>
 800355a:	b031      	add	sp, #196	; 0xc4
 800355c:	bd30      	pop	{r4, r5, pc}
 800355e:	ebb5 0f92 	cmp.w	r5, r2, lsr #2
 8003562:	bfb4      	ite	lt
 8003564:	2003      	movlt	r0, #3
 8003566:	2002      	movge	r0, #2
 8003568:	e7f2      	b.n	8003550 <LCD_Load_JPG_chan+0x6c>
 800356a:	2001      	movs	r0, #1
 800356c:	e7f0      	b.n	8003550 <LCD_Load_JPG_chan+0x6c>
 800356e:	bf00      	nop
 8003570:	080034b5 	.word	0x080034b5
 8003574:	200001c0 	.word	0x200001c0
 8003578:	08003471 	.word	0x08003471

0800357c <jd_prepare>:
 800357c:	e92d 4ff0 	stmdb	sp!, {r4, r5, r6, r7, r8, r9, sl, fp, lr}
 8003580:	b093      	sub	sp, #76	; 0x4c
 8003582:	4680      	mov	r8, r0
 8003584:	460d      	mov	r5, r1
 8003586:	4692      	mov	sl, r2
 8003588:	981c      	ldr	r0, [sp, #112]	; 0x70
 800358a:	22a0      	movs	r2, #160	; 0xa0
 800358c:	f04f 0b00 	mov.w	fp, #0
 8003590:	4641      	mov	r1, r8
 8003592:	4312      	orrs	r2, r2
 8003594:	d003      	beq.n	800359e <jd_prepare+0x22>
 8003596:	f801 bb01 	strb.w	fp, [r1], #1
 800359a:	3a01      	subs	r2, #1
 800359c:	d1fb      	bne.n	8003596 <jd_prepare+0x1a>
 800359e:	4aad      	ldr	r2, [pc, #692]	; (8003854 <jd_prepare+0x2d8>)
 80035a0:	f8c8 009c 	str.w	r0, [r8, #156]	; 0x9c
 80035a4:	7812      	ldrb	r2, [r2, #0]
 80035a6:	f8c8 5098 	str.w	r5, [r8, #152]	; 0x98
 80035aa:	f5b3 6f80 	cmp.w	r3, #1024	; 0x400
 80035ae:	e9c8 a324 	strd	sl, r3, [r8, #144]	; 0x90
 80035b2:	f888 2088 	strb.w	r2, [r8, #136]	; 0x88
 80035b6:	f0c0 80cc 	bcc.w	8003752 <jd_prepare+0x1d6>
 80035ba:	f5a3 6380 	sub.w	r3, r3, #1024	; 0x400
 80035be:	f8c8 3094 	str.w	r3, [r8, #148]	; 0x94
 80035c2:	f50a 6380 	add.w	r3, sl, #1024	; 0x400
 80035c6:	f8c8 3090 	str.w	r3, [r8, #144]	; 0x90
 80035ca:	f8c8 a008 	str.w	sl, [r8, #8]
 80035ce:	f1ba 0f00 	cmp.w	sl, #0
 80035d2:	f000 813a 	beq.w	800384a <jd_prepare+0x2ce>
 80035d6:	465c      	mov	r4, fp
 80035d8:	f64f 76d8 	movw	r6, #65496	; 0xffd8
 80035dc:	e008      	b.n	80035f0 <jd_prepare+0x74>
 80035de:	f89a 3000 	ldrb.w	r3, [sl]
 80035e2:	ea43 2404 	orr.w	r4, r3, r4, lsl #8
 80035e6:	b2a4      	uxth	r4, r4
 80035e8:	42b4      	cmp	r4, r6
 80035ea:	d00d      	beq.n	8003608 <jd_prepare+0x8c>
 80035ec:	f8d8 5098 	ldr.w	r5, [r8, #152]	; 0x98
 80035f0:	2201      	movs	r2, #1
 80035f2:	4651      	mov	r1, sl
 80035f4:	4640      	mov	r0, r8
 80035f6:	47a8      	blx	r5
 80035f8:	2801      	cmp	r0, #1
 80035fa:	f10b 0b01 	add.w	fp, fp, #1
 80035fe:	d0ee      	beq.n	80035de <jd_prepare+0x62>
 8003600:	2002      	movs	r0, #2
 8003602:	b013      	add	sp, #76	; 0x4c
 8003604:	e8bd 8ff0 	ldmia.w	sp!, {r4, r5, r6, r7, r8, r9, sl, fp, pc}
 8003608:	f8df 9250 	ldr.w	r9, [pc, #592]	; 800385c <jd_prepare+0x2e0>
 800360c:	f8cd b008 	str.w	fp, [sp, #8]
 8003610:	46d3      	mov	fp, sl
 8003612:	f8d8 3098 	ldr.w	r3, [r8, #152]	; 0x98
 8003616:	2204      	movs	r2, #4
 8003618:	4659      	mov	r1, fp
 800361a:	4640      	mov	r0, r8
 800361c:	4798      	blx	r3
 800361e:	2804      	cmp	r0, #4
 8003620:	d1ee      	bne.n	8003600 <jd_prepare+0x84>
 8003622:	f8bb 2002 	ldrh.w	r2, [fp, #2]
 8003626:	f8bb 3000 	ldrh.w	r3, [fp]
 800362a:	ba52      	rev16	r2, r2
 800362c:	b292      	uxth	r2, r2
 800362e:	ba5b      	rev16	r3, r3
 8003630:	2a02      	cmp	r2, #2
 8003632:	b29b      	uxth	r3, r3
 8003634:	f240 8217 	bls.w	8003a66 <jd_prepare+0x4ea>
 8003638:	0a19      	lsrs	r1, r3, #8
 800363a:	29ff      	cmp	r1, #255	; 0xff
 800363c:	f040 8213 	bne.w	8003a66 <jd_prepare+0x4ea>
 8003640:	9c02      	ldr	r4, [sp, #8]
 8003642:	b2db      	uxtb	r3, r3
 8003644:	1c91      	adds	r1, r2, #2
 8003646:	440c      	add	r4, r1
 8003648:	2bda      	cmp	r3, #218	; 0xda
 800364a:	9402      	str	r4, [sp, #8]
 800364c:	f1a2 0a02 	sub.w	sl, r2, #2
 8003650:	f000 814e 	beq.w	80038f0 <jd_prepare+0x374>
 8003654:	d815      	bhi.n	8003682 <jd_prepare+0x106>
 8003656:	3bc0      	subs	r3, #192	; 0xc0
 8003658:	b29b      	uxth	r3, r3
 800365a:	2b19      	cmp	r3, #25
 800365c:	d808      	bhi.n	8003670 <jd_prepare+0xf4>
 800365e:	497e      	ldr	r1, [pc, #504]	; (8003858 <jd_prepare+0x2dc>)
 8003660:	2201      	movs	r2, #1
 8003662:	409a      	lsls	r2, r3
 8003664:	420a      	tst	r2, r1
 8003666:	d170      	bne.n	800374a <jd_prepare+0x1ce>
 8003668:	2b04      	cmp	r3, #4
 800366a:	d078      	beq.n	800375e <jd_prepare+0x1e2>
 800366c:	07d3      	lsls	r3, r2, #31
 800366e:	d41e      	bmi.n	80036ae <jd_prepare+0x132>
 8003670:	f8d8 3098 	ldr.w	r3, [r8, #152]	; 0x98
 8003674:	4652      	mov	r2, sl
 8003676:	2100      	movs	r1, #0
 8003678:	4640      	mov	r0, r8
 800367a:	4798      	blx	r3
 800367c:	4550      	cmp	r0, sl
 800367e:	d0c8      	beq.n	8003612 <jd_prepare+0x96>
 8003680:	e7be      	b.n	8003600 <jd_prepare+0x84>
 8003682:	2bdb      	cmp	r3, #219	; 0xdb
 8003684:	f000 80ec 	beq.w	8003860 <jd_prepare+0x2e4>
 8003688:	2bdd      	cmp	r3, #221	; 0xdd
 800368a:	d1f1      	bne.n	8003670 <jd_prepare+0xf4>
 800368c:	f5ba 6f80 	cmp.w	sl, #1024	; 0x400
 8003690:	d8b7      	bhi.n	8003602 <jd_prepare+0x86>
 8003692:	f8d8 3098 	ldr.w	r3, [r8, #152]	; 0x98
 8003696:	4652      	mov	r2, sl
 8003698:	4659      	mov	r1, fp
 800369a:	4640      	mov	r0, r8
 800369c:	4798      	blx	r3
 800369e:	4550      	cmp	r0, sl
 80036a0:	d1ae      	bne.n	8003600 <jd_prepare+0x84>
 80036a2:	f8bb 3000 	ldrh.w	r3, [fp]
 80036a6:	ba5b      	rev16	r3, r3
 80036a8:	f8a8 301a 	strh.w	r3, [r8, #26]
 80036ac:	e7b1      	b.n	8003612 <jd_prepare+0x96>
 80036ae:	f5ba 6f80 	cmp.w	sl, #1024	; 0x400
 80036b2:	f200 83d3 	bhi.w	8003e5c <jd_prepare+0x8e0>
 80036b6:	f8d8 3098 	ldr.w	r3, [r8, #152]	; 0x98
 80036ba:	4652      	mov	r2, sl
 80036bc:	4659      	mov	r1, fp
 80036be:	4640      	mov	r0, r8
 80036c0:	4798      	blx	r3
 80036c2:	4550      	cmp	r0, sl
 80036c4:	d19c      	bne.n	8003600 <jd_prepare+0x84>
 80036c6:	f8bb 3003 	ldrh.w	r3, [fp, #3]
 80036ca:	ba5b      	rev16	r3, r3
 80036cc:	f8a8 301c 	strh.w	r3, [r8, #28]
 80036d0:	f8bb 3001 	ldrh.w	r3, [fp, #1]
 80036d4:	ba5b      	rev16	r3, r3
 80036d6:	f8a8 301e 	strh.w	r3, [r8, #30]
 80036da:	f89b 2005 	ldrb.w	r2, [fp, #5]
 80036de:	f888 2013 	strb.w	r2, [r8, #19]
 80036e2:	f002 03fd 	and.w	r3, r2, #253	; 0xfd
 80036e6:	2b01      	cmp	r3, #1
 80036e8:	d12f      	bne.n	800374a <jd_prepare+0x1ce>
 80036ea:	f89b 3007 	ldrb.w	r3, [fp, #7]
 80036ee:	2b11      	cmp	r3, #17
 80036f0:	d003      	beq.n	80036fa <jd_prepare+0x17e>
 80036f2:	f1a3 0121 	sub.w	r1, r3, #33	; 0x21
 80036f6:	2901      	cmp	r1, #1
 80036f8:	d827      	bhi.n	800374a <jd_prepare+0x1ce>
 80036fa:	0919      	lsrs	r1, r3, #4
 80036fc:	f003 030f 	and.w	r3, r3, #15
 8003700:	f888 100e 	strb.w	r1, [r8, #14]
 8003704:	f888 300f 	strb.w	r3, [r8, #15]
 8003708:	f89b 3008 	ldrb.w	r3, [fp, #8]
 800370c:	f888 3010 	strb.w	r3, [r8, #16]
 8003710:	2b03      	cmp	r3, #3
 8003712:	d81a      	bhi.n	800374a <jd_prepare+0x1ce>
 8003714:	2a01      	cmp	r2, #1
 8003716:	f43f af7c 	beq.w	8003612 <jd_prepare+0x96>
 800371a:	f89b 300a 	ldrb.w	r3, [fp, #10]
 800371e:	2b11      	cmp	r3, #17
 8003720:	d113      	bne.n	800374a <jd_prepare+0x1ce>
 8003722:	f89b 300b 	ldrb.w	r3, [fp, #11]
 8003726:	f888 3011 	strb.w	r3, [r8, #17]
 800372a:	2b03      	cmp	r3, #3
 800372c:	d80d      	bhi.n	800374a <jd_prepare+0x1ce>
 800372e:	2a03      	cmp	r2, #3
 8003730:	f47f af6f 	bne.w	8003612 <jd_prepare+0x96>
 8003734:	f89b 300d 	ldrb.w	r3, [fp, #13]
 8003738:	2b11      	cmp	r3, #17
 800373a:	d106      	bne.n	800374a <jd_prepare+0x1ce>
 800373c:	f89b 300e 	ldrb.w	r3, [fp, #14]
 8003740:	f888 3012 	strb.w	r3, [r8, #18]
 8003744:	2b03      	cmp	r3, #3
 8003746:	f67f af64 	bls.w	8003612 <jd_prepare+0x96>
 800374a:	2008      	movs	r0, #8
 800374c:	b013      	add	sp, #76	; 0x4c
 800374e:	e8bd 8ff0 	ldmia.w	sp!, {r4, r5, r6, r7, r8, r9, sl, fp, pc}
 8003752:	2003      	movs	r0, #3
 8003754:	f8c8 b008 	str.w	fp, [r8, #8]
 8003758:	b013      	add	sp, #76	; 0x4c
 800375a:	e8bd 8ff0 	ldmia.w	sp!, {r4, r5, r6, r7, r8, r9, sl, fp, pc}
 800375e:	f5ba 6f80 	cmp.w	sl, #1024	; 0x400
 8003762:	f200 837b 	bhi.w	8003e5c <jd_prepare+0x8e0>
 8003766:	f8d8 3098 	ldr.w	r3, [r8, #152]	; 0x98
 800376a:	4652      	mov	r2, sl
 800376c:	4659      	mov	r1, fp
 800376e:	4640      	mov	r0, r8
 8003770:	4798      	blx	r3
 8003772:	4550      	cmp	r0, sl
 8003774:	f47f af44 	bne.w	8003600 <jd_prepare+0x84>
 8003778:	f8cd b01c 	str.w	fp, [sp, #28]
 800377c:	f8cd a028 	str.w	sl, [sp, #40]	; 0x28
 8003780:	f8cd 8020 	str.w	r8, [sp, #32]
 8003784:	f8cd b040 	str.w	fp, [sp, #64]	; 0x40
 8003788:	9b0a      	ldr	r3, [sp, #40]	; 0x28
 800378a:	2b10      	cmp	r3, #16
 800378c:	f240 816b 	bls.w	8003a66 <jd_prepare+0x4ea>
 8003790:	9b07      	ldr	r3, [sp, #28]
 8003792:	7819      	ldrb	r1, [r3, #0]
 8003794:	f011 02ee 	ands.w	r2, r1, #238	; 0xee
 8003798:	f040 8165 	bne.w	8003a66 <jd_prepare+0x4ea>
 800379c:	9b08      	ldr	r3, [sp, #32]
 800379e:	f8d3 3094 	ldr.w	r3, [r3, #148]	; 0x94
 80037a2:	2b0f      	cmp	r3, #15
 80037a4:	d951      	bls.n	800384a <jd_prepare+0x2ce>
 80037a6:	9d08      	ldr	r5, [sp, #32]
 80037a8:	3b10      	subs	r3, #16
 80037aa:	f8c5 3094 	str.w	r3, [r5, #148]	; 0x94
 80037ae:	f8d5 3090 	ldr.w	r3, [r5, #144]	; 0x90
 80037b2:	f103 0010 	add.w	r0, r3, #16
 80037b6:	f8c5 0090 	str.w	r0, [r5, #144]	; 0x90
 80037ba:	2b00      	cmp	r3, #0
 80037bc:	d045      	beq.n	800384a <jd_prepare+0x2ce>
 80037be:	0908      	lsrs	r0, r1, #4
 80037c0:	2402      	movs	r4, #2
 80037c2:	f001 010f 	and.w	r1, r1, #15
 80037c6:	910e      	str	r1, [sp, #56]	; 0x38
 80037c8:	fb14 0101 	smlabb	r1, r4, r1, r0
 80037cc:	eb05 0681 	add.w	r6, r5, r1, lsl #2
 80037d0:	9c07      	ldr	r4, [sp, #28]
 80037d2:	6233      	str	r3, [r6, #32]
 80037d4:	7861      	ldrb	r1, [r4, #1]
 80037d6:	7019      	strb	r1, [r3, #0]
 80037d8:	9009      	str	r0, [sp, #36]	; 0x24
 80037da:	78a0      	ldrb	r0, [r4, #2]
 80037dc:	7058      	strb	r0, [r3, #1]
 80037de:	4408      	add	r0, r1
 80037e0:	78e1      	ldrb	r1, [r4, #3]
 80037e2:	7099      	strb	r1, [r3, #2]
 80037e4:	4408      	add	r0, r1
 80037e6:	7921      	ldrb	r1, [r4, #4]
 80037e8:	70d9      	strb	r1, [r3, #3]
 80037ea:	4408      	add	r0, r1
 80037ec:	7961      	ldrb	r1, [r4, #5]
 80037ee:	7119      	strb	r1, [r3, #4]
 80037f0:	4408      	add	r0, r1
 80037f2:	79a1      	ldrb	r1, [r4, #6]
 80037f4:	7159      	strb	r1, [r3, #5]
 80037f6:	4408      	add	r0, r1
 80037f8:	79e1      	ldrb	r1, [r4, #7]
 80037fa:	7199      	strb	r1, [r3, #6]
 80037fc:	4408      	add	r0, r1
 80037fe:	7a21      	ldrb	r1, [r4, #8]
 8003800:	71d9      	strb	r1, [r3, #7]
 8003802:	4408      	add	r0, r1
 8003804:	7a61      	ldrb	r1, [r4, #9]
 8003806:	7219      	strb	r1, [r3, #8]
 8003808:	4408      	add	r0, r1
 800380a:	7aa1      	ldrb	r1, [r4, #10]
 800380c:	7259      	strb	r1, [r3, #9]
 800380e:	4408      	add	r0, r1
 8003810:	7ae1      	ldrb	r1, [r4, #11]
 8003812:	7299      	strb	r1, [r3, #10]
 8003814:	4408      	add	r0, r1
 8003816:	7b21      	ldrb	r1, [r4, #12]
 8003818:	72d9      	strb	r1, [r3, #11]
 800381a:	4408      	add	r0, r1
 800381c:	7b61      	ldrb	r1, [r4, #13]
 800381e:	7319      	strb	r1, [r3, #12]
 8003820:	4408      	add	r0, r1
 8003822:	7ba1      	ldrb	r1, [r4, #14]
 8003824:	960f      	str	r6, [sp, #60]	; 0x3c
 8003826:	4408      	add	r0, r1
 8003828:	7359      	strb	r1, [r3, #13]
 800382a:	7be1      	ldrb	r1, [r4, #15]
 800382c:	7399      	strb	r1, [r3, #14]
 800382e:	4401      	add	r1, r0
 8003830:	7c20      	ldrb	r0, [r4, #16]
 8003832:	73d8      	strb	r0, [r3, #15]
 8003834:	1841      	adds	r1, r0, r1
 8003836:	910c      	str	r1, [sp, #48]	; 0x30
 8003838:	0049      	lsls	r1, r1, #1
 800383a:	f8d5 0094 	ldr.w	r0, [r5, #148]	; 0x94
 800383e:	3103      	adds	r1, #3
 8003840:	f021 0103 	bic.w	r1, r1, #3
 8003844:	4281      	cmp	r1, r0
 8003846:	f240 8113 	bls.w	8003a70 <jd_prepare+0x4f4>
 800384a:	2003      	movs	r0, #3
 800384c:	b013      	add	sp, #76	; 0x4c
 800384e:	e8bd 8ff0 	ldmia.w	sp!, {r4, r5, r6, r7, r8, r9, sl, fp, pc}
 8003852:	bf00      	nop
 8003854:	2000009c 	.word	0x2000009c
 8003858:	0200eeee 	.word	0x0200eeee
 800385c:	080063f0 	.word	0x080063f0
 8003860:	f5ba 6f80 	cmp.w	sl, #1024	; 0x400
 8003864:	f63f aecd 	bhi.w	8003602 <jd_prepare+0x86>
 8003868:	f8d8 3098 	ldr.w	r3, [r8, #152]	; 0x98
 800386c:	4652      	mov	r2, sl
 800386e:	4659      	mov	r1, fp
 8003870:	4640      	mov	r0, r8
 8003872:	4798      	blx	r3
 8003874:	4550      	cmp	r0, sl
 8003876:	f47f aec3 	bne.w	8003600 <jd_prepare+0x84>
 800387a:	f10b 0702 	add.w	r7, fp, #2
 800387e:	f1ba 0f40 	cmp.w	sl, #64	; 0x40
 8003882:	f240 80f0 	bls.w	8003a66 <jd_prepare+0x4ea>
 8003886:	f817 3c02 	ldrb.w	r3, [r7, #-2]
 800388a:	f013 0ff0 	tst.w	r3, #240	; 0xf0
 800388e:	4638      	mov	r0, r7
 8003890:	f040 80e9 	bne.w	8003a66 <jd_prepare+0x4ea>
 8003894:	f8d8 2094 	ldr.w	r2, [r8, #148]	; 0x94
 8003898:	2aff      	cmp	r2, #255	; 0xff
 800389a:	d9d6      	bls.n	800384a <jd_prepare+0x2ce>
 800389c:	f8d8 5090 	ldr.w	r5, [r8, #144]	; 0x90
 80038a0:	f5a2 7280 	sub.w	r2, r2, #256	; 0x100
 80038a4:	f8c8 2094 	str.w	r2, [r8, #148]	; 0x94
 80038a8:	f505 7280 	add.w	r2, r5, #256	; 0x100
 80038ac:	f8c8 2090 	str.w	r2, [r8, #144]	; 0x90
 80038b0:	2d00      	cmp	r5, #0
 80038b2:	d0ca      	beq.n	800384a <jd_prepare+0x2ce>
 80038b4:	f003 0303 	and.w	r3, r3, #3
 80038b8:	3314      	adds	r3, #20
 80038ba:	4a6c      	ldr	r2, [pc, #432]	; (8003a6c <jd_prepare+0x4f0>)
 80038bc:	f848 5023 	str.w	r5, [r8, r3, lsl #2]
 80038c0:	f817 3c01 	ldrb.w	r3, [r7, #-1]
 80038c4:	035b      	lsls	r3, r3, #13
 80038c6:	602b      	str	r3, [r5, #0]
 80038c8:	f102 063f 	add.w	r6, r2, #63	; 0x3f
 80038cc:	f812 1f01 	ldrb.w	r1, [r2, #1]!
 80038d0:	f810 3b01 	ldrb.w	r3, [r0], #1
 80038d4:	f839 4011 	ldrh.w	r4, [r9, r1, lsl #1]
 80038d8:	4296      	cmp	r6, r2
 80038da:	fb04 f303 	mul.w	r3, r4, r3
 80038de:	f845 3021 	str.w	r3, [r5, r1, lsl #2]
 80038e2:	d1f3      	bne.n	80038cc <jd_prepare+0x350>
 80038e4:	f1ba 0a41 	subs.w	sl, sl, #65	; 0x41
 80038e8:	f107 0741 	add.w	r7, r7, #65	; 0x41
 80038ec:	d1c7      	bne.n	800387e <jd_prepare+0x302>
 80038ee:	e690      	b.n	8003612 <jd_prepare+0x96>
 80038f0:	4652      	mov	r2, sl
 80038f2:	f5b2 6f80 	cmp.w	r2, #1024	; 0x400
 80038f6:	46da      	mov	sl, fp
 80038f8:	f8dd b008 	ldr.w	fp, [sp, #8]
 80038fc:	f63f ae81 	bhi.w	8003602 <jd_prepare+0x86>
 8003900:	f8d8 3098 	ldr.w	r3, [r8, #152]	; 0x98
 8003904:	4651      	mov	r1, sl
 8003906:	4640      	mov	r0, r8
 8003908:	4614      	mov	r4, r2
 800390a:	4798      	blx	r3
 800390c:	42a0      	cmp	r0, r4
 800390e:	f47f ae77 	bne.w	8003600 <jd_prepare+0x84>
 8003912:	f8b8 301c 	ldrh.w	r3, [r8, #28]
 8003916:	2b00      	cmp	r3, #0
 8003918:	f000 80a5 	beq.w	8003a66 <jd_prepare+0x4ea>
 800391c:	f8b8 301e 	ldrh.w	r3, [r8, #30]
 8003920:	2b00      	cmp	r3, #0
 8003922:	f000 80a0 	beq.w	8003a66 <jd_prepare+0x4ea>
 8003926:	f898 2013 	ldrb.w	r2, [r8, #19]
 800392a:	f89a 3000 	ldrb.w	r3, [sl]
 800392e:	4293      	cmp	r3, r2
 8003930:	f47f af0b 	bne.w	800374a <jd_prepare+0x1ce>
 8003934:	2b00      	cmp	r3, #0
 8003936:	d03f      	beq.n	80039b8 <jd_prepare+0x43c>
 8003938:	f89a 2002 	ldrb.w	r2, [sl, #2]
 800393c:	b112      	cbz	r2, 8003944 <jd_prepare+0x3c8>
 800393e:	2a11      	cmp	r2, #17
 8003940:	f47f af03 	bne.w	800374a <jd_prepare+0x1ce>
 8003944:	f8d8 2020 	ldr.w	r2, [r8, #32]
 8003948:	2a00      	cmp	r2, #0
 800394a:	f000 808c 	beq.w	8003a66 <jd_prepare+0x4ea>
 800394e:	f8d8 2024 	ldr.w	r2, [r8, #36]	; 0x24
 8003952:	2a00      	cmp	r2, #0
 8003954:	f000 8087 	beq.w	8003a66 <jd_prepare+0x4ea>
 8003958:	f898 2010 	ldrb.w	r2, [r8, #16]
 800395c:	3214      	adds	r2, #20
 800395e:	f858 2022 	ldr.w	r2, [r8, r2, lsl #2]
 8003962:	2a00      	cmp	r2, #0
 8003964:	d07f      	beq.n	8003a66 <jd_prepare+0x4ea>
 8003966:	2b01      	cmp	r3, #1
 8003968:	d026      	beq.n	80039b8 <jd_prepare+0x43c>
 800396a:	f89a 2004 	ldrb.w	r2, [sl, #4]
 800396e:	b112      	cbz	r2, 8003976 <jd_prepare+0x3fa>
 8003970:	2a11      	cmp	r2, #17
 8003972:	f47f aeea 	bne.w	800374a <jd_prepare+0x1ce>
 8003976:	f8d8 2028 	ldr.w	r2, [r8, #40]	; 0x28
 800397a:	2a00      	cmp	r2, #0
 800397c:	d073      	beq.n	8003a66 <jd_prepare+0x4ea>
 800397e:	f8d8 202c 	ldr.w	r2, [r8, #44]	; 0x2c
 8003982:	2a00      	cmp	r2, #0
 8003984:	d06f      	beq.n	8003a66 <jd_prepare+0x4ea>
 8003986:	f898 2011 	ldrb.w	r2, [r8, #17]
 800398a:	3214      	adds	r2, #20
 800398c:	f858 2022 	ldr.w	r2, [r8, r2, lsl #2]
 8003990:	2a00      	cmp	r2, #0
 8003992:	d068      	beq.n	8003a66 <jd_prepare+0x4ea>
 8003994:	2b02      	cmp	r3, #2
 8003996:	d00f      	beq.n	80039b8 <jd_prepare+0x43c>
 8003998:	f89a 2006 	ldrb.w	r2, [sl, #6]
 800399c:	b112      	cbz	r2, 80039a4 <jd_prepare+0x428>
 800399e:	2a11      	cmp	r2, #17
 80039a0:	f47f aed3 	bne.w	800374a <jd_prepare+0x1ce>
 80039a4:	f898 2012 	ldrb.w	r2, [r8, #18]
 80039a8:	3214      	adds	r2, #20
 80039aa:	f858 2022 	ldr.w	r2, [r8, r2, lsl #2]
 80039ae:	2a00      	cmp	r2, #0
 80039b0:	d059      	beq.n	8003a66 <jd_prepare+0x4ea>
 80039b2:	2b03      	cmp	r3, #3
 80039b4:	f47f aec9 	bne.w	800374a <jd_prepare+0x1ce>
 80039b8:	f898 300f 	ldrb.w	r3, [r8, #15]
 80039bc:	f898 200e 	ldrb.w	r2, [r8, #14]
 80039c0:	fb13 f302 	smulbb	r3, r3, r2
 80039c4:	2b00      	cmp	r3, #0
 80039c6:	d04e      	beq.n	8003a66 <jd_prepare+0x4ea>
 80039c8:	01db      	lsls	r3, r3, #7
 80039ca:	f103 0040 	add.w	r0, r3, #64	; 0x40
 80039ce:	f5b0 7f80 	cmp.w	r0, #256	; 0x100
 80039d2:	f8d8 2094 	ldr.w	r2, [r8, #148]	; 0x94
 80039d6:	bf38      	it	cc
 80039d8:	f44f 7080 	movcc.w	r0, #256	; 0x100
 80039dc:	ebb2 0f40 	cmp.w	r2, r0, lsl #1
 80039e0:	ea4f 0140 	mov.w	r1, r0, lsl #1
 80039e4:	f0c0 8254 	bcc.w	8003e90 <jd_prepare+0x914>
 80039e8:	f8c8 0084 	str.w	r0, [r8, #132]	; 0x84
 80039ec:	f8d8 0090 	ldr.w	r0, [r8, #144]	; 0x90
 80039f0:	f8c8 007c 	str.w	r0, [r8, #124]	; 0x7c
 80039f4:	1a52      	subs	r2, r2, r1
 80039f6:	2400      	movs	r4, #0
 80039f8:	4401      	add	r1, r0
 80039fa:	f8c8 2094 	str.w	r2, [r8, #148]	; 0x94
 80039fe:	f8c8 1090 	str.w	r1, [r8, #144]	; 0x90
 8003a02:	f8c8 4080 	str.w	r4, [r8, #128]	; 0x80
 8003a06:	2800      	cmp	r0, #0
 8003a08:	f43f af1f 	beq.w	800384a <jd_prepare+0x2ce>
 8003a0c:	f503 7380 	add.w	r3, r3, #256	; 0x100
 8003a10:	429a      	cmp	r2, r3
 8003a12:	f0c0 8238 	bcc.w	8003e86 <jd_prepare+0x90a>
 8003a16:	1ad2      	subs	r2, r2, r3
 8003a18:	f8c8 2094 	str.w	r2, [r8, #148]	; 0x94
 8003a1c:	440b      	add	r3, r1
 8003a1e:	f3cb 0209 	ubfx	r2, fp, #0, #10
 8003a22:	e9c8 1323 	strd	r1, r3, [r8, #140]	; 0x8c
 8003a26:	b14a      	cbz	r2, 8003a3c <jd_prepare+0x4c0>
 8003a28:	4492      	add	sl, r2
 8003a2a:	f8d8 3098 	ldr.w	r3, [r8, #152]	; 0x98
 8003a2e:	f5c2 6280 	rsb	r2, r2, #1024	; 0x400
 8003a32:	4651      	mov	r1, sl
 8003a34:	4640      	mov	r0, r8
 8003a36:	4798      	blx	r3
 8003a38:	f8c8 0000 	str.w	r0, [r8]
 8003a3c:	f8c8 a004 	str.w	sl, [r8, #4]
 8003a40:	2000      	movs	r0, #0
 8003a42:	e5de      	b.n	8003602 <jd_prepare+0x86>
 8003a44:	460a      	mov	r2, r1
 8003a46:	3211      	adds	r2, #17
 8003a48:	4620      	mov	r0, r4
 8003a4a:	4410      	add	r0, r2
 8003a4c:	9a0d      	ldr	r2, [sp, #52]	; 0x34
 8003a4e:	9007      	str	r0, [sp, #28]
 8003a50:	1e51      	subs	r1, r2, #1
 8003a52:	e004      	b.n	8003a5e <jd_prepare+0x4e2>
 8003a54:	4283      	cmp	r3, r0
 8003a56:	f801 2f01 	strb.w	r2, [r1, #1]!
 8003a5a:	f000 8125 	beq.w	8003ca8 <jd_prepare+0x72c>
 8003a5e:	f813 2b01 	ldrb.w	r2, [r3], #1
 8003a62:	2a0b      	cmp	r2, #11
 8003a64:	d9f6      	bls.n	8003a54 <jd_prepare+0x4d8>
 8003a66:	2006      	movs	r0, #6
 8003a68:	e5cb      	b.n	8003602 <jd_prepare+0x86>
 8003a6a:	bf00      	nop
 8003a6c:	08006470 	.word	0x08006470
 8003a70:	1a40      	subs	r0, r0, r1
 8003a72:	9011      	str	r0, [sp, #68]	; 0x44
 8003a74:	f8c5 0094 	str.w	r0, [r5, #148]	; 0x94
 8003a78:	f8d5 0090 	ldr.w	r0, [r5, #144]	; 0x90
 8003a7c:	900b      	str	r0, [sp, #44]	; 0x2c
 8003a7e:	1841      	adds	r1, r0, r1
 8003a80:	910d      	str	r1, [sp, #52]	; 0x34
 8003a82:	f8c5 1090 	str.w	r1, [r5, #144]	; 0x90
 8003a86:	2800      	cmp	r0, #0
 8003a88:	f43f aedf 	beq.w	800384a <jd_prepare+0x2ce>
 8003a8c:	4693      	mov	fp, r2
 8003a8e:	1e5a      	subs	r2, r3, #1
 8003a90:	330f      	adds	r3, #15
 8003a92:	9206      	str	r2, [sp, #24]
 8003a94:	9200      	str	r2, [sp, #0]
 8003a96:	6330      	str	r0, [r6, #48]	; 0x30
 8003a98:	9305      	str	r3, [sp, #20]
 8003a9a:	465a      	mov	r2, fp
 8003a9c:	4686      	mov	lr, r0
 8003a9e:	9b00      	ldr	r3, [sp, #0]
 8003aa0:	f813 8f01 	ldrb.w	r8, [r3, #1]!
 8003aa4:	9300      	str	r3, [sp, #0]
 8003aa6:	f108 34ff 	add.w	r4, r8, #4294967295
 8003aaa:	9403      	str	r4, [sp, #12]
 8003aac:	f1b8 0f00 	cmp.w	r8, #0
 8003ab0:	f000 80a4 	beq.w	8003bfc <jd_prepare+0x680>
 8003ab4:	eb0e 014b 	add.w	r1, lr, fp, lsl #1
 8003ab8:	084b      	lsrs	r3, r1, #1
 8003aba:	425b      	negs	r3, r3
 8003abc:	2c09      	cmp	r4, #9
 8003abe:	f003 0303 	and.w	r3, r3, #3
 8003ac2:	ea4f 004b 	mov.w	r0, fp, lsl #1
 8003ac6:	f240 8189 	bls.w	8003ddc <jd_prepare+0x860>
 8003aca:	2b00      	cmp	r3, #0
 8003acc:	f000 8156 	beq.w	8003d7c <jd_prepare+0x800>
 8003ad0:	f82e 2000 	strh.w	r2, [lr, r0]
 8003ad4:	1c50      	adds	r0, r2, #1
 8003ad6:	9004      	str	r0, [sp, #16]
 8003ad8:	b286      	uxth	r6, r0
 8003ada:	2b01      	cmp	r3, #1
 8003adc:	f1a8 0002 	sub.w	r0, r8, #2
 8003ae0:	f10b 0701 	add.w	r7, fp, #1
 8003ae4:	9001      	str	r0, [sp, #4]
 8003ae6:	d011      	beq.n	8003b0c <jd_prepare+0x590>
 8003ae8:	804e      	strh	r6, [r1, #2]
 8003aea:	f1a8 0003 	sub.w	r0, r8, #3
 8003aee:	1c96      	adds	r6, r2, #2
 8003af0:	2b03      	cmp	r3, #3
 8003af2:	b2b6      	uxth	r6, r6
 8003af4:	f10b 0702 	add.w	r7, fp, #2
 8003af8:	9001      	str	r0, [sp, #4]
 8003afa:	d107      	bne.n	8003b0c <jd_prepare+0x590>
 8003afc:	3203      	adds	r2, #3
 8003afe:	808e      	strh	r6, [r1, #4]
 8003b00:	b296      	uxth	r6, r2
 8003b02:	f1a8 0204 	sub.w	r2, r8, #4
 8003b06:	f10b 0703 	add.w	r7, fp, #3
 8003b0a:	9201      	str	r2, [sp, #4]
 8003b0c:	2200      	movs	r2, #0
 8003b0e:	4611      	mov	r1, r2
 8003b10:	1cb0      	adds	r0, r6, #2
 8003b12:	f360 010f 	bfi	r1, r0, #0, #16
 8003b16:	eba8 0a03 	sub.w	sl, r8, r3
 8003b1a:	1c70      	adds	r0, r6, #1
 8003b1c:	f366 020f 	bfi	r2, r6, #0, #16
 8003b20:	445b      	add	r3, fp
 8003b22:	eb0e 0343 	add.w	r3, lr, r3, lsl #1
 8003b26:	f360 421f 	bfi	r2, r0, #16, #16
 8003b2a:	ea4f 0c9a 	mov.w	ip, sl, lsr #2
 8003b2e:	1cf0      	adds	r0, r6, #3
 8003b30:	f360 411f 	bfi	r1, r0, #16, #16
 8003b34:	eb03 0ccc 	add.w	ip, r3, ip, lsl #3
 8003b38:	1d15      	adds	r5, r2, #4
 8003b3a:	2000      	movs	r0, #0
 8003b3c:	4604      	mov	r4, r0
 8003b3e:	f365 000f 	bfi	r0, r5, #0, #16
 8003b42:	f3c2 450f 	ubfx	r5, r2, #16, #16
 8003b46:	601a      	str	r2, [r3, #0]
 8003b48:	1d2a      	adds	r2, r5, #4
 8003b4a:	f362 401f 	bfi	r0, r2, #16, #16
 8003b4e:	4602      	mov	r2, r0
 8003b50:	1d08      	adds	r0, r1, #4
 8003b52:	f360 040f 	bfi	r4, r0, #0, #16
 8003b56:	f3c1 400f 	ubfx	r0, r1, #16, #16
 8003b5a:	6059      	str	r1, [r3, #4]
 8003b5c:	1d01      	adds	r1, r0, #4
 8003b5e:	3308      	adds	r3, #8
 8003b60:	f361 441f 	bfi	r4, r1, #16, #16
 8003b64:	459c      	cmp	ip, r3
 8003b66:	4621      	mov	r1, r4
 8003b68:	d1e6      	bne.n	8003b38 <jd_prepare+0x5bc>
 8003b6a:	f02a 0203 	bic.w	r2, sl, #3
 8003b6e:	9b01      	ldr	r3, [sp, #4]
 8003b70:	4416      	add	r6, r2
 8003b72:	4552      	cmp	r2, sl
 8003b74:	b2b6      	uxth	r6, r6
 8003b76:	4417      	add	r7, r2
 8003b78:	eba3 0102 	sub.w	r1, r3, r2
 8003b7c:	d038      	beq.n	8003bf0 <jd_prepare+0x674>
 8003b7e:	1c73      	adds	r3, r6, #1
 8003b80:	f82e 6017 	strh.w	r6, [lr, r7, lsl #1]
 8003b84:	b29a      	uxth	r2, r3
 8003b86:	007f      	lsls	r7, r7, #1
 8003b88:	2900      	cmp	r1, #0
 8003b8a:	d031      	beq.n	8003bf0 <jd_prepare+0x674>
 8003b8c:	eb0e 0307 	add.w	r3, lr, r7
 8003b90:	2901      	cmp	r1, #1
 8003b92:	805a      	strh	r2, [r3, #2]
 8003b94:	f106 0202 	add.w	r2, r6, #2
 8003b98:	b292      	uxth	r2, r2
 8003b9a:	d029      	beq.n	8003bf0 <jd_prepare+0x674>
 8003b9c:	809a      	strh	r2, [r3, #4]
 8003b9e:	2902      	cmp	r1, #2
 8003ba0:	f106 0203 	add.w	r2, r6, #3
 8003ba4:	b292      	uxth	r2, r2
 8003ba6:	d023      	beq.n	8003bf0 <jd_prepare+0x674>
 8003ba8:	80da      	strh	r2, [r3, #6]
 8003baa:	2903      	cmp	r1, #3
 8003bac:	f106 0204 	add.w	r2, r6, #4
 8003bb0:	b292      	uxth	r2, r2
 8003bb2:	d01d      	beq.n	8003bf0 <jd_prepare+0x674>
 8003bb4:	811a      	strh	r2, [r3, #8]
 8003bb6:	2904      	cmp	r1, #4
 8003bb8:	f106 0205 	add.w	r2, r6, #5
 8003bbc:	b292      	uxth	r2, r2
 8003bbe:	d017      	beq.n	8003bf0 <jd_prepare+0x674>
 8003bc0:	815a      	strh	r2, [r3, #10]
 8003bc2:	2905      	cmp	r1, #5
 8003bc4:	f106 0206 	add.w	r2, r6, #6
 8003bc8:	b292      	uxth	r2, r2
 8003bca:	d011      	beq.n	8003bf0 <jd_prepare+0x674>
 8003bcc:	819a      	strh	r2, [r3, #12]
 8003bce:	2906      	cmp	r1, #6
 8003bd0:	f106 0207 	add.w	r2, r6, #7
 8003bd4:	b292      	uxth	r2, r2
 8003bd6:	d00b      	beq.n	8003bf0 <jd_prepare+0x674>
 8003bd8:	81da      	strh	r2, [r3, #14]
 8003bda:	2907      	cmp	r1, #7
 8003bdc:	f106 0208 	add.w	r2, r6, #8
 8003be0:	b292      	uxth	r2, r2
 8003be2:	d005      	beq.n	8003bf0 <jd_prepare+0x674>
 8003be4:	3609      	adds	r6, #9
 8003be6:	b2b6      	uxth	r6, r6
 8003be8:	2908      	cmp	r1, #8
 8003bea:	821a      	strh	r2, [r3, #16]
 8003bec:	bf18      	it	ne
 8003bee:	825e      	strhne	r6, [r3, #18]
 8003bf0:	e9dd 2303 	ldrd	r2, r3, [sp, #12]
 8003bf4:	fa12 f383 	uxtah	r3, r2, r3
 8003bf8:	44c3      	add	fp, r8
 8003bfa:	b29a      	uxth	r2, r3
 8003bfc:	9b00      	ldr	r3, [sp, #0]
 8003bfe:	9905      	ldr	r1, [sp, #20]
 8003c00:	0052      	lsls	r2, r2, #1
 8003c02:	428b      	cmp	r3, r1
 8003c04:	b292      	uxth	r2, r2
 8003c06:	f47f af4a 	bne.w	8003a9e <jd_prepare+0x522>
 8003c0a:	9b0a      	ldr	r3, [sp, #40]	; 0x28
 8003c0c:	990c      	ldr	r1, [sp, #48]	; 0x30
 8003c0e:	3b11      	subs	r3, #17
 8003c10:	428b      	cmp	r3, r1
 8003c12:	9303      	str	r3, [sp, #12]
 8003c14:	f4ff af27 	bcc.w	8003a66 <jd_prepare+0x4ea>
 8003c18:	9a11      	ldr	r2, [sp, #68]	; 0x44
 8003c1a:	1ccb      	adds	r3, r1, #3
 8003c1c:	f023 0303 	bic.w	r3, r3, #3
 8003c20:	429a      	cmp	r2, r3
 8003c22:	f4ff ae12 	bcc.w	800384a <jd_prepare+0x2ce>
 8003c26:	980d      	ldr	r0, [sp, #52]	; 0x34
 8003c28:	9c08      	ldr	r4, [sp, #32]
 8003c2a:	1ad2      	subs	r2, r2, r3
 8003c2c:	4403      	add	r3, r0
 8003c2e:	e9c4 3224 	strd	r3, r2, [r4, #144]	; 0x90
 8003c32:	2800      	cmp	r0, #0
 8003c34:	f43f ae09 	beq.w	800384a <jd_prepare+0x2ce>
 8003c38:	9b0f      	ldr	r3, [sp, #60]	; 0x3c
 8003c3a:	9c07      	ldr	r4, [sp, #28]
 8003c3c:	6418      	str	r0, [r3, #64]	; 0x40
 8003c3e:	f104 0311 	add.w	r3, r4, #17
 8003c42:	2900      	cmp	r1, #0
 8003c44:	f000 811d 	beq.w	8003e82 <jd_prepare+0x906>
 8003c48:	9a09      	ldr	r2, [sp, #36]	; 0x24
 8003c4a:	2a00      	cmp	r2, #0
 8003c4c:	f43f aefa 	beq.w	8003a44 <jd_prepare+0x4c8>
 8003c50:	f104 0212 	add.w	r2, r4, #18
 8003c54:	1a82      	subs	r2, r0, r2
 8003c56:	2a02      	cmp	r2, #2
 8003c58:	f240 8103 	bls.w	8003e62 <jd_prepare+0x8e6>
 8003c5c:	1e4a      	subs	r2, r1, #1
 8003c5e:	2a05      	cmp	r2, #5
 8003c60:	f240 80ff 	bls.w	8003e62 <jd_prepare+0x8e6>
 8003c64:	088c      	lsrs	r4, r1, #2
 8003c66:	eb00 0484 	add.w	r4, r0, r4, lsl #2
 8003c6a:	4602      	mov	r2, r0
 8003c6c:	4619      	mov	r1, r3
 8003c6e:	f851 0b04 	ldr.w	r0, [r1], #4
 8003c72:	f842 0b04 	str.w	r0, [r2], #4
 8003c76:	42a2      	cmp	r2, r4
 8003c78:	d1f9      	bne.n	8003c6e <jd_prepare+0x6f2>
 8003c7a:	9d0c      	ldr	r5, [sp, #48]	; 0x30
 8003c7c:	f025 0203 	bic.w	r2, r5, #3
 8003c80:	42aa      	cmp	r2, r5
 8003c82:	eb03 0102 	add.w	r1, r3, r2
 8003c86:	d00c      	beq.n	8003ca2 <jd_prepare+0x726>
 8003c88:	9e0d      	ldr	r6, [sp, #52]	; 0x34
 8003c8a:	5c98      	ldrb	r0, [r3, r2]
 8003c8c:	54b0      	strb	r0, [r6, r2]
 8003c8e:	1c50      	adds	r0, r2, #1
 8003c90:	4285      	cmp	r5, r0
 8003c92:	d906      	bls.n	8003ca2 <jd_prepare+0x726>
 8003c94:	3202      	adds	r2, #2
 8003c96:	784c      	ldrb	r4, [r1, #1]
 8003c98:	5434      	strb	r4, [r6, r0]
 8003c9a:	4295      	cmp	r5, r2
 8003c9c:	d901      	bls.n	8003ca2 <jd_prepare+0x726>
 8003c9e:	7889      	ldrb	r1, [r1, #2]
 8003ca0:	54b1      	strb	r1, [r6, r2]
 8003ca2:	9a0c      	ldr	r2, [sp, #48]	; 0x30
 8003ca4:	4413      	add	r3, r2
 8003ca6:	9307      	str	r3, [sp, #28]
 8003ca8:	9b08      	ldr	r3, [sp, #32]
 8003caa:	f8d3 2094 	ldr.w	r2, [r3, #148]	; 0x94
 8003cae:	9b09      	ldr	r3, [sp, #36]	; 0x24
 8003cb0:	2b00      	cmp	r3, #0
 8003cb2:	f000 80ac 	beq.w	8003e0e <jd_prepare+0x892>
 8003cb6:	f5b2 6f00 	cmp.w	r2, #2048	; 0x800
 8003cba:	f4ff adc6 	bcc.w	800384a <jd_prepare+0x2ce>
 8003cbe:	9b08      	ldr	r3, [sp, #32]
 8003cc0:	f5a2 6200 	sub.w	r2, r2, #2048	; 0x800
 8003cc4:	f8d3 b090 	ldr.w	fp, [r3, #144]	; 0x90
 8003cc8:	f8c3 2094 	str.w	r2, [r3, #148]	; 0x94
 8003ccc:	461a      	mov	r2, r3
 8003cce:	f50b 6300 	add.w	r3, fp, #2048	; 0x800
 8003cd2:	f8c2 3090 	str.w	r3, [r2, #144]	; 0x90
 8003cd6:	f1bb 0f00 	cmp.w	fp, #0
 8003cda:	f43f adb6 	beq.w	800384a <jd_prepare+0x2ce>
 8003cde:	9b0e      	ldr	r3, [sp, #56]	; 0x38
 8003ce0:	eb02 0383 	add.w	r3, r2, r3, lsl #2
 8003ce4:	f04f 31ff 	mov.w	r1, #4294967295
 8003ce8:	f8c3 b06c 	str.w	fp, [r3, #108]	; 0x6c
 8003cec:	f44f 7200 	mov.w	r2, #512	; 0x200
 8003cf0:	465b      	mov	r3, fp
 8003cf2:	4312      	orrs	r2, r2
 8003cf4:	d003      	beq.n	8003cfe <jd_prepare+0x782>
 8003cf6:	f843 1b04 	str.w	r1, [r3], #4
 8003cfa:	3a01      	subs	r2, #1
 8003cfc:	d1fb      	bne.n	8003cf6 <jd_prepare+0x77a>
 8003cfe:	f04f 0c00 	mov.w	ip, #0
 8003d02:	9e0d      	ldr	r6, [sp, #52]	; 0x34
 8003d04:	f8cd b004 	str.w	fp, [sp, #4]
 8003d08:	2701      	movs	r7, #1
 8003d0a:	2000      	movs	r0, #0
 8003d0c:	9b06      	ldr	r3, [sp, #24]
 8003d0e:	f813 4f01 	ldrb.w	r4, [r3, #1]!
 8003d12:	9306      	str	r3, [sp, #24]
 8003d14:	b364      	cbz	r4, 8003d70 <jd_prepare+0x7f4>
 8003d16:	2301      	movs	r3, #1
 8003d18:	f1c7 050a 	rsb	r5, r7, #10
 8003d1c:	fa03 fe05 	lsl.w	lr, r3, r5
 8003d20:	9b09      	ldr	r3, [sp, #36]	; 0x24
 8003d22:	ea4f 1a07 	mov.w	sl, r7, lsl #4
 8003d26:	ea4f 2b07 	mov.w	fp, r7, lsl #8
 8003d2a:	bb73      	cbnz	r3, 8003d8a <jd_prepare+0x80e>
 8003d2c:	9b0b      	ldr	r3, [sp, #44]	; 0x2c
 8003d2e:	f100 4b00 	add.w	fp, r0, #2147483648	; 0x80000000
 8003d32:	f10b 3bff 	add.w	fp, fp, #4294967295
 8003d36:	f100 38ff 	add.w	r8, r0, #4294967295
 8003d3a:	eb03 0b4b 	add.w	fp, r3, fp, lsl #1
 8003d3e:	44b0      	add	r8, r6
 8003d40:	f83b 3f02 	ldrh.w	r3, [fp, #2]!
 8003d44:	f818 2f01 	ldrb.w	r2, [r8, #1]!
 8003d48:	40ab      	lsls	r3, r5
 8003d4a:	f3c3 0309 	ubfx	r3, r3, #0, #10
 8003d4e:	4463      	add	r3, ip
 8003d50:	ea42 020a 	orr.w	r2, r2, sl
 8003d54:	4671      	mov	r1, lr
 8003d56:	4309      	orrs	r1, r1
 8003d58:	d003      	beq.n	8003d62 <jd_prepare+0x7e6>
 8003d5a:	f803 2b01 	strb.w	r2, [r3], #1
 8003d5e:	3901      	subs	r1, #1
 8003d60:	d1fb      	bne.n	8003d5a <jd_prepare+0x7de>
 8003d62:	eba6 0308 	sub.w	r3, r6, r8
 8003d66:	3b01      	subs	r3, #1
 8003d68:	4403      	add	r3, r0
 8003d6a:	42e3      	cmn	r3, r4
 8003d6c:	d1e8      	bne.n	8003d40 <jd_prepare+0x7c4>
 8003d6e:	4420      	add	r0, r4
 8003d70:	2f0a      	cmp	r7, #10
 8003d72:	f107 0301 	add.w	r3, r7, #1
 8003d76:	d037      	beq.n	8003de8 <jd_prepare+0x86c>
 8003d78:	461f      	mov	r7, r3
 8003d7a:	e7c7      	b.n	8003d0c <jd_prepare+0x790>
 8003d7c:	4616      	mov	r6, r2
 8003d7e:	9a03      	ldr	r2, [sp, #12]
 8003d80:	9201      	str	r2, [sp, #4]
 8003d82:	1c72      	adds	r2, r6, #1
 8003d84:	465f      	mov	r7, fp
 8003d86:	9204      	str	r2, [sp, #16]
 8003d88:	e6c0      	b.n	8003b0c <jd_prepare+0x590>
 8003d8a:	9b0b      	ldr	r3, [sp, #44]	; 0x2c
 8003d8c:	f8cd c000 	str.w	ip, [sp]
 8003d90:	f100 4a00 	add.w	sl, r0, #2147483648	; 0x80000000
 8003d94:	f10a 3aff 	add.w	sl, sl, #4294967295
 8003d98:	f100 38ff 	add.w	r8, r0, #4294967295
 8003d9c:	f8dd c004 	ldr.w	ip, [sp, #4]
 8003da0:	eb03 0a4a 	add.w	sl, r3, sl, lsl #1
 8003da4:	44b0      	add	r8, r6
 8003da6:	f83a 3f02 	ldrh.w	r3, [sl, #2]!
 8003daa:	f818 2f01 	ldrb.w	r2, [r8, #1]!
 8003dae:	40ab      	lsls	r3, r5
 8003db0:	f3c3 0309 	ubfx	r3, r3, #0, #10
 8003db4:	eb0c 0343 	add.w	r3, ip, r3, lsl #1
 8003db8:	ea42 020b 	orr.w	r2, r2, fp
 8003dbc:	4671      	mov	r1, lr
 8003dbe:	4309      	orrs	r1, r1
 8003dc0:	d003      	beq.n	8003dca <jd_prepare+0x84e>
 8003dc2:	f823 2b02 	strh.w	r2, [r3], #2
 8003dc6:	3901      	subs	r1, #1
 8003dc8:	d1fb      	bne.n	8003dc2 <jd_prepare+0x846>
 8003dca:	eba6 0308 	sub.w	r3, r6, r8
 8003dce:	3b01      	subs	r3, #1
 8003dd0:	4403      	add	r3, r0
 8003dd2:	42e3      	cmn	r3, r4
 8003dd4:	d1e7      	bne.n	8003da6 <jd_prepare+0x82a>
 8003dd6:	f8dd c000 	ldr.w	ip, [sp]
 8003dda:	e7c8      	b.n	8003d6e <jd_prepare+0x7f2>
 8003ddc:	1c53      	adds	r3, r2, #1
 8003dde:	4621      	mov	r1, r4
 8003de0:	4616      	mov	r6, r2
 8003de2:	465f      	mov	r7, fp
 8003de4:	9304      	str	r3, [sp, #16]
 8003de6:	e6ca      	b.n	8003b7e <jd_prepare+0x602>
 8003de8:	9a0e      	ldr	r2, [sp, #56]	; 0x38
 8003dea:	9b08      	ldr	r3, [sp, #32]
 8003dec:	eb03 0342 	add.w	r3, r3, r2, lsl #1
 8003df0:	9a09      	ldr	r2, [sp, #36]	; 0x24
 8003df2:	4413      	add	r3, r2
 8003df4:	9a0c      	ldr	r2, [sp, #48]	; 0x30
 8003df6:	f883 0065 	strb.w	r0, [r3, #101]	; 0x65
 8003dfa:	9b03      	ldr	r3, [sp, #12]
 8003dfc:	1a9b      	subs	r3, r3, r2
 8003dfe:	930a      	str	r3, [sp, #40]	; 0x28
 8003e00:	f47f acc2 	bne.w	8003788 <jd_prepare+0x20c>
 8003e04:	f8dd 8020 	ldr.w	r8, [sp, #32]
 8003e08:	f8dd b040 	ldr.w	fp, [sp, #64]	; 0x40
 8003e0c:	e401      	b.n	8003612 <jd_prepare+0x96>
 8003e0e:	f5b2 6f80 	cmp.w	r2, #1024	; 0x400
 8003e12:	f4ff ad1a 	bcc.w	800384a <jd_prepare+0x2ce>
 8003e16:	9b08      	ldr	r3, [sp, #32]
 8003e18:	f5a2 6280 	sub.w	r2, r2, #1024	; 0x400
 8003e1c:	f8d3 c090 	ldr.w	ip, [r3, #144]	; 0x90
 8003e20:	f8c3 2094 	str.w	r2, [r3, #148]	; 0x94
 8003e24:	461a      	mov	r2, r3
 8003e26:	f50c 6380 	add.w	r3, ip, #1024	; 0x400
 8003e2a:	f8c2 3090 	str.w	r3, [r2, #144]	; 0x90
 8003e2e:	f1bc 0f00 	cmp.w	ip, #0
 8003e32:	f43f ad0a 	beq.w	800384a <jd_prepare+0x2ce>
 8003e36:	9b0e      	ldr	r3, [sp, #56]	; 0x38
 8003e38:	eb02 0383 	add.w	r3, r2, r3, lsl #2
 8003e3c:	f04f 31ff 	mov.w	r1, #4294967295
 8003e40:	f8c3 c074 	str.w	ip, [r3, #116]	; 0x74
 8003e44:	f44f 7280 	mov.w	r2, #256	; 0x100
 8003e48:	4663      	mov	r3, ip
 8003e4a:	4312      	orrs	r2, r2
 8003e4c:	d003      	beq.n	8003e56 <jd_prepare+0x8da>
 8003e4e:	f843 1b04 	str.w	r1, [r3], #4
 8003e52:	3a01      	subs	r2, #1
 8003e54:	d1fb      	bne.n	8003e4e <jd_prepare+0x8d2>
 8003e56:	f8dd b024 	ldr.w	fp, [sp, #36]	; 0x24
 8003e5a:	e752      	b.n	8003d02 <jd_prepare+0x786>
 8003e5c:	2004      	movs	r0, #4
 8003e5e:	f7ff bbd0 	b.w	8003602 <jd_prepare+0x86>
 8003e62:	9a0c      	ldr	r2, [sp, #48]	; 0x30
 8003e64:	f102 0011 	add.w	r0, r2, #17
 8003e68:	9a07      	ldr	r2, [sp, #28]
 8003e6a:	4402      	add	r2, r0
 8003e6c:	4610      	mov	r0, r2
 8003e6e:	9a0d      	ldr	r2, [sp, #52]	; 0x34
 8003e70:	1e51      	subs	r1, r2, #1
 8003e72:	461a      	mov	r2, r3
 8003e74:	f812 4b01 	ldrb.w	r4, [r2], #1
 8003e78:	f801 4f01 	strb.w	r4, [r1, #1]!
 8003e7c:	4290      	cmp	r0, r2
 8003e7e:	d1f9      	bne.n	8003e74 <jd_prepare+0x8f8>
 8003e80:	e70f      	b.n	8003ca2 <jd_prepare+0x726>
 8003e82:	9307      	str	r3, [sp, #28]
 8003e84:	e713      	b.n	8003cae <jd_prepare+0x732>
 8003e86:	f8c8 408c 	str.w	r4, [r8, #140]	; 0x8c
 8003e8a:	2003      	movs	r0, #3
 8003e8c:	f7ff bbb9 	b.w	8003602 <jd_prepare+0x86>
 8003e90:	2300      	movs	r3, #0
 8003e92:	e9c8 3020 	strd	r3, r0, [r8, #128]	; 0x80
 8003e96:	f8c8 307c 	str.w	r3, [r8, #124]	; 0x7c
 8003e9a:	2003      	movs	r0, #3
 8003e9c:	f7ff bbb1 	b.w	8003602 <jd_prepare+0x86>

08003ea0 <jd_decomp>:
 8003ea0:	e92d 4ff0 	stmdb	sp!, {r4, r5, r6, r7, r8, r9, sl, fp, lr}
 8003ea4:	b09b      	sub	sp, #108	; 0x6c
 8003ea6:	2a03      	cmp	r2, #3
 8003ea8:	9001      	str	r0, [sp, #4]
 8003eaa:	9117      	str	r1, [sp, #92]	; 0x5c
 8003eac:	f200 878a 	bhi.w	8004dc4 <jd_decomp+0xf24>
 8003eb0:	7b81      	ldrb	r1, [r0, #14]
 8003eb2:	7bc3      	ldrb	r3, [r0, #15]
 8003eb4:	7342      	strb	r2, [r0, #13]
 8003eb6:	00ca      	lsls	r2, r1, #3
 8003eb8:	00db      	lsls	r3, r3, #3
 8003eba:	9212      	str	r2, [sp, #72]	; 0x48
 8003ebc:	8bc2      	ldrh	r2, [r0, #30]
 8003ebe:	9315      	str	r3, [sp, #84]	; 0x54
 8003ec0:	2300      	movs	r3, #0
 8003ec2:	6143      	str	r3, [r0, #20]
 8003ec4:	8303      	strh	r3, [r0, #24]
 8003ec6:	2a00      	cmp	r2, #0
 8003ec8:	f000 8117 	beq.w	80040fa <jd_decomp+0x25a>
 8003ecc:	8b80      	ldrh	r0, [r0, #28]
 8003ece:	9313      	str	r3, [sp, #76]	; 0x4c
 8003ed0:	9311      	str	r3, [sp, #68]	; 0x44
 8003ed2:	930e      	str	r3, [sp, #56]	; 0x38
 8003ed4:	2800      	cmp	r0, #0
 8003ed6:	f000 8109 	beq.w	80040ec <jd_decomp+0x24c>
 8003eda:	2300      	movs	r3, #0
 8003edc:	930b      	str	r3, [sp, #44]	; 0x2c
 8003ede:	9b01      	ldr	r3, [sp, #4]
 8003ee0:	8b5a      	ldrh	r2, [r3, #26]
 8003ee2:	b132      	cbz	r2, 8003ef2 <jd_decomp+0x52>
 8003ee4:	9911      	ldr	r1, [sp, #68]	; 0x44
 8003ee6:	1c4b      	adds	r3, r1, #1
 8003ee8:	428a      	cmp	r2, r1
 8003eea:	b29b      	uxth	r3, r3
 8003eec:	f000 84ae 	beq.w	800484c <jd_decomp+0x9ac>
 8003ef0:	9311      	str	r3, [sp, #68]	; 0x44
 8003ef2:	9c01      	ldr	r4, [sp, #4]
 8003ef4:	e9d4 231f 	ldrd	r2, r3, [r4, #124]	; 0x7c
 8003ef8:	7ba0      	ldrb	r0, [r4, #14]
 8003efa:	7be1      	ldrb	r1, [r4, #15]
 8003efc:	18d3      	adds	r3, r2, r3
 8003efe:	fb10 f101 	smulbb	r1, r0, r1
 8003f02:	9307      	str	r3, [sp, #28]
 8003f04:	f1c1 0301 	rsb	r3, r1, #1
 8003f08:	f8d4 008c 	ldr.w	r0, [r4, #140]	; 0x8c
 8003f0c:	930a      	str	r3, [sp, #40]	; 0x28
 8003f0e:	1e4b      	subs	r3, r1, #1
 8003f10:	910d      	str	r1, [sp, #52]	; 0x34
 8003f12:	900c      	str	r0, [sp, #48]	; 0x30
 8003f14:	930f      	str	r3, [sp, #60]	; 0x3c
 8003f16:	9b0f      	ldr	r3, [sp, #60]	; 0x3c
 8003f18:	9a0a      	ldr	r2, [sp, #40]	; 0x28
 8003f1a:	990d      	ldr	r1, [sp, #52]	; 0x34
 8003f1c:	4413      	add	r3, r2
 8003f1e:	4299      	cmp	r1, r3
 8003f20:	f200 80ed 	bhi.w	80040fe <jd_decomp+0x25e>
 8003f24:	2a00      	cmp	r2, #0
 8003f26:	f000 847a 	beq.w	800481e <jd_decomp+0x97e>
 8003f2a:	9b01      	ldr	r3, [sp, #4]
 8003f2c:	7cdb      	ldrb	r3, [r3, #19]
 8003f2e:	2b03      	cmp	r3, #3
 8003f30:	f000 8481 	beq.w	8004836 <jd_decomp+0x996>
 8003f34:	2320      	movs	r3, #32
 8003f36:	f04f 1180 	mov.w	r1, #8388736	; 0x800080
 8003f3a:	9a0c      	ldr	r2, [sp, #48]	; 0x30
 8003f3c:	431b      	orrs	r3, r3
 8003f3e:	d003      	beq.n	8003f48 <jd_decomp+0xa8>
 8003f40:	f842 1b04 	str.w	r1, [r2], #4
 8003f44:	3b01      	subs	r3, #1
 8003f46:	d1fb      	bne.n	8003f40 <jd_decomp+0xa0>
 8003f48:	9b0a      	ldr	r3, [sp, #40]	; 0x28
 8003f4a:	9a0c      	ldr	r2, [sp, #48]	; 0x30
 8003f4c:	3301      	adds	r3, #1
 8003f4e:	3280      	adds	r2, #128	; 0x80
 8003f50:	2b03      	cmp	r3, #3
 8003f52:	930a      	str	r3, [sp, #40]	; 0x28
 8003f54:	920c      	str	r2, [sp, #48]	; 0x30
 8003f56:	d1de      	bne.n	8003f16 <jd_decomp+0x76>
 8003f58:	9a01      	ldr	r2, [sp, #4]
 8003f5a:	9c0b      	ldr	r4, [sp, #44]	; 0x2c
 8003f5c:	7b91      	ldrb	r1, [r2, #14]
 8003f5e:	7bd6      	ldrb	r6, [r2, #15]
 8003f60:	8b90      	ldrh	r0, [r2, #28]
 8003f62:	9103      	str	r1, [sp, #12]
 8003f64:	2308      	movs	r3, #8
 8003f66:	460d      	mov	r5, r1
 8003f68:	fb13 4101 	smlabb	r1, r3, r1, r4
 8003f6c:	fb15 fb03 	smulbb	fp, r5, r3
 8003f70:	4281      	cmp	r1, r0
 8003f72:	ea4f 03c6 	mov.w	r3, r6, lsl #3
 8003f76:	f8d2 c07c 	ldr.w	ip, [r2, #124]	; 0x7c
 8003f7a:	9604      	str	r6, [sp, #16]
 8003f7c:	f8d2 2080 	ldr.w	r2, [r2, #128]	; 0x80
 8003f80:	930a      	str	r3, [sp, #40]	; 0x28
 8003f82:	f200 843c 	bhi.w	80047fe <jd_decomp+0x95e>
 8003f86:	4659      	mov	r1, fp
 8003f88:	9b01      	ldr	r3, [sp, #4]
 8003f8a:	9e0e      	ldr	r6, [sp, #56]	; 0x38
 8003f8c:	9c0a      	ldr	r4, [sp, #40]	; 0x28
 8003f8e:	8bdb      	ldrh	r3, [r3, #30]
 8003f90:	19a5      	adds	r5, r4, r6
 8003f92:	429d      	cmp	r5, r3
 8003f94:	bf88      	it	hi
 8003f96:	1b9b      	subhi	r3, r3, r6
 8003f98:	9e01      	ldr	r6, [sp, #4]
 8003f9a:	f896 800d 	ldrb.w	r8, [r6, #13]
 8003f9e:	bf98      	it	ls
 8003fa0:	4623      	movls	r3, r4
 8003fa2:	fa31 f108 	lsrs.w	r1, r1, r8
 8003fa6:	910d      	str	r1, [sp, #52]	; 0x34
 8003fa8:	f000 8090 	beq.w	80040cc <jd_decomp+0x22c>
 8003fac:	fa33 f308 	lsrs.w	r3, r3, r8
 8003fb0:	461d      	mov	r5, r3
 8003fb2:	930f      	str	r3, [sp, #60]	; 0x3c
 8003fb4:	f000 808a 	beq.w	80040cc <jd_decomp+0x22c>
 8003fb8:	980b      	ldr	r0, [sp, #44]	; 0x2c
 8003fba:	fa20 f308 	lsr.w	r3, r0, r8
 8003fbe:	b29b      	uxth	r3, r3
 8003fc0:	f8ad 3060 	strh.w	r3, [sp, #96]	; 0x60
 8003fc4:	3b01      	subs	r3, #1
 8003fc6:	440b      	add	r3, r1
 8003fc8:	990e      	ldr	r1, [sp, #56]	; 0x38
 8003fca:	f8ad 3062 	strh.w	r3, [sp, #98]	; 0x62
 8003fce:	fa21 f308 	lsr.w	r3, r1, r8
 8003fd2:	b29b      	uxth	r3, r3
 8003fd4:	f8ad 3064 	strh.w	r3, [sp, #100]	; 0x64
 8003fd8:	3b01      	subs	r3, #1
 8003fda:	eb0c 0402 	add.w	r4, ip, r2
 8003fde:	442b      	add	r3, r5
 8003fe0:	f1b8 0f03 	cmp.w	r8, #3
 8003fe4:	940c      	str	r4, [sp, #48]	; 0x30
 8003fe6:	f8ad 3066 	strh.w	r3, [sp, #102]	; 0x66
 8003fea:	f000 8622 	beq.w	8004c32 <jd_decomp+0xd92>
 8003fee:	f896 e088 	ldrb.w	lr, [r6, #136]	; 0x88
 8003ff2:	f1be 0f01 	cmp.w	lr, #1
 8003ff6:	f240 8474 	bls.w	80048e2 <jd_decomp+0xa42>
 8003ffa:	f8d6 408c 	ldr.w	r4, [r6, #140]	; 0x8c
 8003ffe:	9d0a      	ldr	r5, [sp, #40]	; 0x28
 8004000:	9e0c      	ldr	r6, [sp, #48]	; 0x30
 8004002:	2300      	movs	r3, #0
 8004004:	eb04 1203 	add.w	r2, r4, r3, lsl #4
 8004008:	2d10      	cmp	r5, #16
 800400a:	d102      	bne.n	8004012 <jd_decomp+0x172>
 800400c:	2b08      	cmp	r3, #8
 800400e:	bf28      	it	cs
 8004010:	3280      	addcs	r2, #128	; 0x80
 8004012:	2100      	movs	r1, #0
 8004014:	f1bb 0f10 	cmp.w	fp, #16
 8004018:	d102      	bne.n	8004020 <jd_decomp+0x180>
 800401a:	2908      	cmp	r1, #8
 800401c:	bf08      	it	eq
 800401e:	3270      	addeq	r2, #112	; 0x70
 8004020:	f932 0b02 	ldrsh.w	r0, [r2], #2
 8004024:	f1be 0f02 	cmp.w	lr, #2
 8004028:	d104      	bne.n	8004034 <jd_decomp+0x194>
 800402a:	f380 0008 	usat	r0, #8, r0
 800402e:	f806 0b01 	strb.w	r0, [r6], #1
 8004032:	e007      	b.n	8004044 <jd_decomp+0x1a4>
 8004034:	f3a0 00c5 	usat	r0, #5, r0, asr #3
 8004038:	ea40 1080 	orr.w	r0, r0, r0, lsl #6
 800403c:	ea40 20c0 	orr.w	r0, r0, r0, lsl #11
 8004040:	f826 0b02 	strh.w	r0, [r6], #2
 8004044:	3101      	adds	r1, #1
 8004046:	4559      	cmp	r1, fp
 8004048:	d3e4      	bcc.n	8004014 <jd_decomp+0x174>
 800404a:	3301      	adds	r3, #1
 800404c:	42ab      	cmp	r3, r5
 800404e:	d3d9      	bcc.n	8004004 <jd_decomp+0x164>
 8004050:	f1b8 0f00 	cmp.w	r8, #0
 8004054:	f040 86a0 	bne.w	8004d98 <jd_decomp+0xef8>
 8004058:	9b0d      	ldr	r3, [sp, #52]	; 0x34
 800405a:	fa2b f508 	lsr.w	r5, fp, r8
 800405e:	42ab      	cmp	r3, r5
 8004060:	d227      	bcs.n	80040b2 <jd_decomp+0x212>
 8004062:	9b01      	ldr	r3, [sp, #4]
 8004064:	f893 2088 	ldrb.w	r2, [r3, #136]	; 0x88
 8004068:	f002 03fd 	and.w	r3, r2, #253	; 0xfd
 800406c:	2b01      	cmp	r3, #1
 800406e:	f000 841a 	beq.w	80048a6 <jd_decomp+0xa06>
 8004072:	b92a      	cbnz	r2, 8004080 <jd_decomp+0x1e0>
 8004074:	9b0d      	ldr	r3, [sp, #52]	; 0x34
 8004076:	eb03 0343 	add.w	r3, r3, r3, lsl #1
 800407a:	930d      	str	r3, [sp, #52]	; 0x34
 800407c:	eb05 0545 	add.w	r5, r5, r5, lsl #1
 8004080:	9b0f      	ldr	r3, [sp, #60]	; 0x3c
 8004082:	2b01      	cmp	r3, #1
 8004084:	d015      	beq.n	80040b2 <jd_decomp+0x212>
 8004086:	9e0c      	ldr	r6, [sp, #48]	; 0x30
 8004088:	f8dd e034 	ldr.w	lr, [sp, #52]	; 0x34
 800408c:	46b4      	mov	ip, r6
 800408e:	2401      	movs	r4, #1
 8004090:	4476      	add	r6, lr
 8004092:	44ac      	add	ip, r5
 8004094:	4633      	mov	r3, r6
 8004096:	4662      	mov	r2, ip
 8004098:	4671      	mov	r1, lr
 800409a:	4309      	orrs	r1, r1
 800409c:	d005      	beq.n	80040aa <jd_decomp+0x20a>
 800409e:	f812 0b01 	ldrb.w	r0, [r2], #1
 80040a2:	f803 0b01 	strb.w	r0, [r3], #1
 80040a6:	3901      	subs	r1, #1
 80040a8:	d1f9      	bne.n	800409e <jd_decomp+0x1fe>
 80040aa:	9b0f      	ldr	r3, [sp, #60]	; 0x3c
 80040ac:	3401      	adds	r4, #1
 80040ae:	42a3      	cmp	r3, r4
 80040b0:	d1ee      	bne.n	8004090 <jd_decomp+0x1f0>
 80040b2:	9d01      	ldr	r5, [sp, #4]
 80040b4:	990c      	ldr	r1, [sp, #48]	; 0x30
 80040b6:	9c17      	ldr	r4, [sp, #92]	; 0x5c
 80040b8:	aa18      	add	r2, sp, #96	; 0x60
 80040ba:	4628      	mov	r0, r5
 80040bc:	47a0      	blx	r4
 80040be:	f010 00ff 	ands.w	r0, r0, #255	; 0xff
 80040c2:	f040 813f 	bne.w	8004344 <jd_decomp+0x4a4>
 80040c6:	f8d5 2080 	ldr.w	r2, [r5, #128]	; 0x80
 80040ca:	8ba8      	ldrh	r0, [r5, #28]
 80040cc:	2a00      	cmp	r2, #0
 80040ce:	f340 8399 	ble.w	8004804 <jd_decomp+0x964>
 80040d2:	9a0b      	ldr	r2, [sp, #44]	; 0x2c
 80040d4:	9912      	ldr	r1, [sp, #72]	; 0x48
 80040d6:	440a      	add	r2, r1
 80040d8:	9901      	ldr	r1, [sp, #4]
 80040da:	920b      	str	r2, [sp, #44]	; 0x2c
 80040dc:	2300      	movs	r3, #0
 80040de:	4282      	cmp	r2, r0
 80040e0:	f8c1 3080 	str.w	r3, [r1, #128]	; 0x80
 80040e4:	f4ff aefb 	bcc.w	8003ede <jd_decomp+0x3e>
 80040e8:	9b01      	ldr	r3, [sp, #4]
 80040ea:	8bda      	ldrh	r2, [r3, #30]
 80040ec:	9b0e      	ldr	r3, [sp, #56]	; 0x38
 80040ee:	9915      	ldr	r1, [sp, #84]	; 0x54
 80040f0:	440b      	add	r3, r1
 80040f2:	429a      	cmp	r2, r3
 80040f4:	930e      	str	r3, [sp, #56]	; 0x38
 80040f6:	f63f aeed 	bhi.w	8003ed4 <jd_decomp+0x34>
 80040fa:	2000      	movs	r0, #0
 80040fc:	e122      	b.n	8004344 <jd_decomp+0x4a4>
 80040fe:	2300      	movs	r3, #0
 8004100:	9305      	str	r3, [sp, #20]
 8004102:	9309      	str	r3, [sp, #36]	; 0x24
 8004104:	9901      	ldr	r1, [sp, #4]
 8004106:	7b0b      	ldrb	r3, [r1, #12]
 8004108:	6e0c      	ldr	r4, [r1, #96]	; 0x60
 800410a:	f003 051f 	and.w	r5, r3, #31
 800410e:	f04f 32ff 	mov.w	r2, #4294967295
 8004112:	40aa      	lsls	r2, r5
 8004114:	f013 0610 	ands.w	r6, r3, #16
 8004118:	e9d1 0a00 	ldrd	r0, sl, [r1]
 800411c:	ea24 0402 	bic.w	r4, r4, r2
 8004120:	f040 82c0 	bne.w	80046a4 <jd_decomp+0x804>
 8004124:	4688      	mov	r8, r1
 8004126:	f898 3064 	ldrb.w	r3, [r8, #100]	; 0x64
 800412a:	bb1b      	cbnz	r3, 8004174 <jd_decomp+0x2d4>
 800412c:	b958      	cbnz	r0, 8004146 <jd_decomp+0x2a6>
 800412e:	f8d8 a008 	ldr.w	sl, [r8, #8]
 8004132:	f8d8 3098 	ldr.w	r3, [r8, #152]	; 0x98
 8004136:	f44f 6280 	mov.w	r2, #1024	; 0x400
 800413a:	4651      	mov	r1, sl
 800413c:	4640      	mov	r0, r8
 800413e:	4798      	blx	r3
 8004140:	2800      	cmp	r0, #0
 8004142:	f000 82a2 	beq.w	800468a <jd_decomp+0x7ea>
 8004146:	f81a 3b01 	ldrb.w	r3, [sl], #1
 800414a:	3801      	subs	r0, #1
 800414c:	2e00      	cmp	r6, #0
 800414e:	f000 8132 	beq.w	80043b6 <jd_decomp+0x516>
 8004152:	2b00      	cmp	r3, #0
 8004154:	f000 829f 	beq.w	8004696 <jd_decomp+0x7f6>
 8004158:	f888 3064 	strb.w	r3, [r8, #100]	; 0x64
 800415c:	23ff      	movs	r3, #255	; 0xff
 800415e:	3508      	adds	r5, #8
 8004160:	2d0f      	cmp	r5, #15
 8004162:	ea43 2404 	orr.w	r4, r3, r4, lsl #8
 8004166:	f200 829d 	bhi.w	80046a4 <jd_decomp+0x804>
 800416a:	f898 3064 	ldrb.w	r3, [r8, #100]	; 0x64
 800416e:	2600      	movs	r6, #0
 8004170:	2b00      	cmp	r3, #0
 8004172:	d0db      	beq.n	800412c <jd_decomp+0x28c>
 8004174:	f105 0308 	add.w	r3, r5, #8
 8004178:	0224      	lsls	r4, r4, #8
 800417a:	2b0f      	cmp	r3, #15
 800417c:	f044 04ff 	orr.w	r4, r4, #255	; 0xff
 8004180:	d804      	bhi.n	800418c <jd_decomp+0x2ec>
 8004182:	0224      	lsls	r4, r4, #8
 8004184:	f044 04ff 	orr.w	r4, r4, #255	; 0xff
 8004188:	f105 0310 	add.w	r3, r5, #16
 800418c:	9d01      	ldr	r5, [sp, #4]
 800418e:	9a05      	ldr	r2, [sp, #20]
 8004190:	662c      	str	r4, [r5, #96]	; 0x60
 8004192:	e9c5 0a00 	strd	r0, sl, [r5]
 8004196:	eb05 0282 	add.w	r2, r5, r2, lsl #2
 800419a:	f1a3 010a 	sub.w	r1, r3, #10
 800419e:	9203      	str	r2, [sp, #12]
 80041a0:	fa24 f101 	lsr.w	r1, r4, r1
 80041a4:	6f52      	ldr	r2, [r2, #116]	; 0x74
 80041a6:	5c56      	ldrb	r6, [r2, r1]
 80041a8:	2eff      	cmp	r6, #255	; 0xff
 80041aa:	f000 827f 	beq.w	80046ac <jd_decomp+0x80c>
 80041ae:	9909      	ldr	r1, [sp, #36]	; 0x24
 80041b0:	eba3 1316 	sub.w	r3, r3, r6, lsr #4
 80041b4:	462a      	mov	r2, r5
 80041b6:	b2db      	uxtb	r3, r3
 80041b8:	eb02 0941 	add.w	r9, r2, r1, lsl #1
 80041bc:	732b      	strb	r3, [r5, #12]
 80041be:	f006 060f 	and.w	r6, r6, #15
 80041c2:	f9b9 b014 	ldrsh.w	fp, [r9, #20]
 80041c6:	2e00      	cmp	r6, #0
 80041c8:	f040 82b5 	bne.w	8004736 <jd_decomp+0x896>
 80041cc:	9d01      	ldr	r5, [sp, #4]
 80041ce:	9b09      	ldr	r3, [sp, #36]	; 0x24
 80041d0:	18eb      	adds	r3, r5, r3
 80041d2:	2100      	movs	r1, #0
 80041d4:	7c1b      	ldrb	r3, [r3, #16]
 80041d6:	3314      	adds	r3, #20
 80041d8:	f855 3023 	ldr.w	r3, [r5, r3, lsl #2]
 80041dc:	9308      	str	r3, [sp, #32]
 80041de:	461a      	mov	r2, r3
 80041e0:	9b07      	ldr	r3, [sp, #28]
 80041e2:	6812      	ldr	r2, [r2, #0]
 80041e4:	fb02 f20b 	mul.w	r2, r2, fp
 80041e8:	1212      	asrs	r2, r2, #8
 80041ea:	f843 2b04 	str.w	r2, [r3], #4
 80041ee:	223f      	movs	r2, #63	; 0x3f
 80041f0:	4312      	orrs	r2, r2
 80041f2:	d003      	beq.n	80041fc <jd_decomp+0x35c>
 80041f4:	f843 1b04 	str.w	r1, [r3], #4
 80041f8:	3a01      	subs	r2, #1
 80041fa:	d1fb      	bne.n	80041f4 <jd_decomp+0x354>
 80041fc:	f04f 0b01 	mov.w	fp, #1
 8004200:	4651      	mov	r1, sl
 8004202:	f895 800c 	ldrb.w	r8, [r5, #12]
 8004206:	6e2c      	ldr	r4, [r5, #96]	; 0x60
 8004208:	f008 061f 	and.w	r6, r8, #31
 800420c:	f04f 33ff 	mov.w	r3, #4294967295
 8004210:	40b3      	lsls	r3, r6
 8004212:	f018 0810 	ands.w	r8, r8, #16
 8004216:	ea24 0403 	bic.w	r4, r4, r3
 800421a:	f040 8245 	bne.w	80046a8 <jd_decomp+0x808>
 800421e:	f895 3064 	ldrb.w	r3, [r5, #100]	; 0x64
 8004222:	2b00      	cmp	r3, #0
 8004224:	d148      	bne.n	80042b8 <jd_decomp+0x418>
 8004226:	2800      	cmp	r0, #0
 8004228:	d153      	bne.n	80042d2 <jd_decomp+0x432>
 800422a:	f8d5 9008 	ldr.w	r9, [r5, #8]
 800422e:	f8d5 3098 	ldr.w	r3, [r5, #152]	; 0x98
 8004232:	f44f 6280 	mov.w	r2, #1024	; 0x400
 8004236:	4649      	mov	r1, r9
 8004238:	4628      	mov	r0, r5
 800423a:	4798      	blx	r3
 800423c:	2800      	cmp	r0, #0
 800423e:	f000 8224 	beq.w	800468a <jd_decomp+0x7ea>
 8004242:	4649      	mov	r1, r9
 8004244:	3801      	subs	r0, #1
 8004246:	f811 3b01 	ldrb.w	r3, [r1], #1
 800424a:	f1b8 0f00 	cmp.w	r8, #0
 800424e:	d048      	beq.n	80042e2 <jd_decomp+0x442>
 8004250:	2b00      	cmp	r3, #0
 8004252:	d04f      	beq.n	80042f4 <jd_decomp+0x454>
 8004254:	f885 3064 	strb.w	r3, [r5, #100]	; 0x64
 8004258:	23ff      	movs	r3, #255	; 0xff
 800425a:	ea43 2404 	orr.w	r4, r3, r4, lsl #8
 800425e:	f106 0308 	add.w	r3, r6, #8
 8004262:	2b0f      	cmp	r3, #15
 8004264:	d942      	bls.n	80042ec <jd_decomp+0x44c>
 8004266:	e9c5 0100 	strd	r0, r1, [r5]
 800426a:	9a03      	ldr	r2, [sp, #12]
 800426c:	662c      	str	r4, [r5, #96]	; 0x60
 800426e:	f1a3 060a 	sub.w	r6, r3, #10
 8004272:	6ed2      	ldr	r2, [r2, #108]	; 0x6c
 8004274:	fa24 f606 	lsr.w	r6, r4, r6
 8004278:	f832 8016 	ldrh.w	r8, [r2, r6, lsl #1]
 800427c:	f64f 72ff 	movw	r2, #65535	; 0xffff
 8004280:	4590      	cmp	r8, r2
 8004282:	d039      	beq.n	80042f8 <jd_decomp+0x458>
 8004284:	eba3 2618 	sub.w	r6, r3, r8, lsr #8
 8004288:	b2f6      	uxtb	r6, r6
 800428a:	fa5f f388 	uxtb.w	r3, r8
 800428e:	732e      	strb	r6, [r5, #12]
 8004290:	2b00      	cmp	r3, #0
 8004292:	d072      	beq.n	800437a <jd_decomp+0x4da>
 8004294:	eb0b 1a13 	add.w	sl, fp, r3, lsr #4
 8004298:	f1ba 0f3f 	cmp.w	sl, #63	; 0x3f
 800429c:	d851      	bhi.n	8004342 <jd_decomp+0x4a2>
 800429e:	f013 080f 	ands.w	r8, r3, #15
 80042a2:	f040 808d 	bne.w	80043c0 <jd_decomp+0x520>
 80042a6:	f1ba 0f3f 	cmp.w	sl, #63	; 0x3f
 80042aa:	f10a 0b01 	add.w	fp, sl, #1
 80042ae:	f000 80f0 	beq.w	8004492 <jd_decomp+0x5f2>
 80042b2:	e9d5 0100 	ldrd	r0, r1, [r5]
 80042b6:	e7a4      	b.n	8004202 <jd_decomp+0x362>
 80042b8:	f106 0308 	add.w	r3, r6, #8
 80042bc:	0224      	lsls	r4, r4, #8
 80042be:	2b0f      	cmp	r3, #15
 80042c0:	f044 04ff 	orr.w	r4, r4, #255	; 0xff
 80042c4:	d8cf      	bhi.n	8004266 <jd_decomp+0x3c6>
 80042c6:	0224      	lsls	r4, r4, #8
 80042c8:	f044 04ff 	orr.w	r4, r4, #255	; 0xff
 80042cc:	f106 0310 	add.w	r3, r6, #16
 80042d0:	e7c9      	b.n	8004266 <jd_decomp+0x3c6>
 80042d2:	4689      	mov	r9, r1
 80042d4:	4649      	mov	r1, r9
 80042d6:	3801      	subs	r0, #1
 80042d8:	f811 3b01 	ldrb.w	r3, [r1], #1
 80042dc:	f1b8 0f00 	cmp.w	r8, #0
 80042e0:	d1b6      	bne.n	8004250 <jd_decomp+0x3b0>
 80042e2:	2bff      	cmp	r3, #255	; 0xff
 80042e4:	d1b9      	bne.n	800425a <jd_decomp+0x3ba>
 80042e6:	f04f 0801 	mov.w	r8, #1
 80042ea:	e798      	b.n	800421e <jd_decomp+0x37e>
 80042ec:	461e      	mov	r6, r3
 80042ee:	f04f 0800 	mov.w	r8, #0
 80042f2:	e794      	b.n	800421e <jd_decomp+0x37e>
 80042f4:	23ff      	movs	r3, #255	; 0xff
 80042f6:	e7b0      	b.n	800425a <jd_decomp+0x3ba>
 80042f8:	9e05      	ldr	r6, [sp, #20]
 80042fa:	9306      	str	r3, [sp, #24]
 80042fc:	eb05 02c6 	add.w	r2, r5, r6, lsl #3
 8004300:	eb05 0646 	add.w	r6, r5, r6, lsl #1
 8004304:	f8d2 c024 	ldr.w	ip, [r2, #36]	; 0x24
 8004308:	f896 e066 	ldrb.w	lr, [r6, #102]	; 0x66
 800430c:	6b56      	ldr	r6, [r2, #52]	; 0x34
 800430e:	6c52      	ldr	r2, [r2, #68]	; 0x44
 8004310:	eb06 064e 	add.w	r6, r6, lr, lsl #1
 8004314:	4496      	add	lr, r2
 8004316:	f10c 0210 	add.w	r2, ip, #16
 800431a:	9202      	str	r2, [sp, #8]
 800431c:	eb03 020c 	add.w	r2, r3, ip
 8004320:	f10c 080a 	add.w	r8, ip, #10
 8004324:	f1cc 0a01 	rsb	sl, ip, #1
 8004328:	9204      	str	r2, [sp, #16]
 800432a:	468c      	mov	ip, r1
 800432c:	4672      	mov	r2, lr
 800432e:	eb08 030a 	add.w	r3, r8, sl
 8004332:	f818 eb01 	ldrb.w	lr, [r8], #1
 8004336:	f1be 0f00 	cmp.w	lr, #0
 800433a:	d106      	bne.n	800434a <jd_decomp+0x4aa>
 800433c:	9b02      	ldr	r3, [sp, #8]
 800433e:	4598      	cmp	r8, r3
 8004340:	d1f5      	bne.n	800432e <jd_decomp+0x48e>
 8004342:	2006      	movs	r0, #6
 8004344:	b01b      	add	sp, #108	; 0x6c
 8004346:	e8bd 8ff0 	ldmia.w	sp!, {r4, r5, r6, r7, r8, r9, sl, fp, pc}
 800434a:	9904      	ldr	r1, [sp, #16]
 800434c:	eba1 0908 	sub.w	r9, r1, r8
 8004350:	4496      	add	lr, r2
 8004352:	fa24 f909 	lsr.w	r9, r4, r9
 8004356:	4661      	mov	r1, ip
 8004358:	e003      	b.n	8004362 <jd_decomp+0x4c2>
 800435a:	3201      	adds	r2, #1
 800435c:	4572      	cmp	r2, lr
 800435e:	f000 8198 	beq.w	8004692 <jd_decomp+0x7f2>
 8004362:	f836 cb02 	ldrh.w	ip, [r6], #2
 8004366:	45e1      	cmp	r9, ip
 8004368:	d1f7      	bne.n	800435a <jd_decomp+0x4ba>
 800436a:	461e      	mov	r6, r3
 800436c:	9b06      	ldr	r3, [sp, #24]
 800436e:	1b9e      	subs	r6, r3, r6
 8004370:	b2f6      	uxtb	r6, r6
 8004372:	732e      	strb	r6, [r5, #12]
 8004374:	7813      	ldrb	r3, [r2, #0]
 8004376:	2b00      	cmp	r3, #0
 8004378:	d18c      	bne.n	8004294 <jd_decomp+0x3f4>
 800437a:	9b01      	ldr	r3, [sp, #4]
 800437c:	f893 3088 	ldrb.w	r3, [r3, #136]	; 0x88
 8004380:	3b02      	subs	r3, #2
 8004382:	2b01      	cmp	r3, #1
 8004384:	f240 825d 	bls.w	8004842 <jd_decomp+0x9a2>
 8004388:	f1bb 0f01 	cmp.w	fp, #1
 800438c:	f040 8088 	bne.w	80044a0 <jd_decomp+0x600>
 8004390:	9b07      	ldr	r3, [sp, #28]
 8004392:	990c      	ldr	r1, [sp, #48]	; 0x30
 8004394:	681b      	ldr	r3, [r3, #0]
 8004396:	2b00      	cmp	r3, #0
 8004398:	bfb8      	it	lt
 800439a:	33ff      	addlt	r3, #255	; 0xff
 800439c:	121b      	asrs	r3, r3, #8
 800439e:	3380      	adds	r3, #128	; 0x80
 80043a0:	b21a      	sxth	r2, r3
 80043a2:	ea42 4203 	orr.w	r2, r2, r3, lsl #16
 80043a6:	2320      	movs	r3, #32
 80043a8:	431b      	orrs	r3, r3
 80043aa:	d003      	beq.n	80043b4 <jd_decomp+0x514>
 80043ac:	f841 2b04 	str.w	r2, [r1], #4
 80043b0:	3b01      	subs	r3, #1
 80043b2:	d1fb      	bne.n	80043ac <jd_decomp+0x50c>
 80043b4:	e5c8      	b.n	8003f48 <jd_decomp+0xa8>
 80043b6:	2bff      	cmp	r3, #255	; 0xff
 80043b8:	f47f aed1 	bne.w	800415e <jd_decomp+0x2be>
 80043bc:	2601      	movs	r6, #1
 80043be:	e6b2      	b.n	8004126 <jd_decomp+0x286>
 80043c0:	f006 061f 	and.w	r6, r6, #31
 80043c4:	f04f 33ff 	mov.w	r3, #4294967295
 80043c8:	40b3      	lsls	r3, r6
 80043ca:	45b0      	cmp	r8, r6
 80043cc:	ea24 0403 	bic.w	r4, r4, r3
 80043d0:	d823      	bhi.n	800441a <jd_decomp+0x57a>
 80043d2:	e227      	b.n	8004824 <jd_decomp+0x984>
 80043d4:	2800      	cmp	r0, #0
 80043d6:	f040 8144 	bne.w	8004662 <jd_decomp+0x7c2>
 80043da:	f8d5 b008 	ldr.w	fp, [r5, #8]
 80043de:	f8d5 3098 	ldr.w	r3, [r5, #152]	; 0x98
 80043e2:	f44f 6280 	mov.w	r2, #1024	; 0x400
 80043e6:	4659      	mov	r1, fp
 80043e8:	4628      	mov	r0, r5
 80043ea:	4798      	blx	r3
 80043ec:	2800      	cmp	r0, #0
 80043ee:	f000 814c 	beq.w	800468a <jd_decomp+0x7ea>
 80043f2:	4659      	mov	r1, fp
 80043f4:	3801      	subs	r0, #1
 80043f6:	f811 3b01 	ldrb.w	r3, [r1], #1
 80043fa:	f1b9 0f00 	cmp.w	r9, #0
 80043fe:	f000 8139 	beq.w	8004674 <jd_decomp+0x7d4>
 8004402:	2b00      	cmp	r3, #0
 8004404:	f000 813f 	beq.w	8004686 <jd_decomp+0x7e6>
 8004408:	f885 3064 	strb.w	r3, [r5, #100]	; 0x64
 800440c:	23ff      	movs	r3, #255	; 0xff
 800440e:	3608      	adds	r6, #8
 8004410:	45b0      	cmp	r8, r6
 8004412:	ea43 2404 	orr.w	r4, r3, r4, lsl #8
 8004416:	f240 8212 	bls.w	800483e <jd_decomp+0x99e>
 800441a:	f04f 0900 	mov.w	r9, #0
 800441e:	f895 3064 	ldrb.w	r3, [r5, #100]	; 0x64
 8004422:	2b00      	cmp	r3, #0
 8004424:	d0d6      	beq.n	80043d4 <jd_decomp+0x534>
 8004426:	f106 0308 	add.w	r3, r6, #8
 800442a:	0224      	lsls	r4, r4, #8
 800442c:	4598      	cmp	r8, r3
 800442e:	f044 04ff 	orr.w	r4, r4, #255	; 0xff
 8004432:	d904      	bls.n	800443e <jd_decomp+0x59e>
 8004434:	0224      	lsls	r4, r4, #8
 8004436:	f044 04ff 	orr.w	r4, r4, #255	; 0xff
 800443a:	f106 0310 	add.w	r3, r6, #16
 800443e:	eba3 0308 	sub.w	r3, r3, r8
 8004442:	732b      	strb	r3, [r5, #12]
 8004444:	f003 031f 	and.w	r3, r3, #31
 8004448:	662c      	str	r4, [r5, #96]	; 0x60
 800444a:	40dc      	lsrs	r4, r3
 800444c:	2c00      	cmp	r4, #0
 800444e:	e9c5 0100 	strd	r0, r1, [r5]
 8004452:	4621      	mov	r1, r4
 8004454:	f2c0 84cf 	blt.w	8004df6 <jd_decomp+0xf56>
 8004458:	f108 38ff 	add.w	r8, r8, #4294967295
 800445c:	2301      	movs	r3, #1
 800445e:	fa03 f308 	lsl.w	r3, r3, r8
 8004462:	4223      	tst	r3, r4
 8004464:	d103      	bne.n	800446e <jd_decomp+0x5ce>
 8004466:	005b      	lsls	r3, r3, #1
 8004468:	f1c3 0301 	rsb	r3, r3, #1
 800446c:	1919      	adds	r1, r3, r4
 800446e:	4ba6      	ldr	r3, [pc, #664]	; (8004708 <jd_decomp+0x868>)
 8004470:	f813 200a 	ldrb.w	r2, [r3, sl]
 8004474:	9b08      	ldr	r3, [sp, #32]
 8004476:	f853 3022 	ldr.w	r3, [r3, r2, lsl #2]
 800447a:	fb01 f303 	mul.w	r3, r1, r3
 800447e:	9907      	ldr	r1, [sp, #28]
 8004480:	121b      	asrs	r3, r3, #8
 8004482:	f1ba 0f3f 	cmp.w	sl, #63	; 0x3f
 8004486:	f841 3022 	str.w	r3, [r1, r2, lsl #2]
 800448a:	f10a 0b01 	add.w	fp, sl, #1
 800448e:	f47f af10 	bne.w	80042b2 <jd_decomp+0x412>
 8004492:	9b01      	ldr	r3, [sp, #4]
 8004494:	f893 3088 	ldrb.w	r3, [r3, #136]	; 0x88
 8004498:	3b02      	subs	r3, #2
 800449a:	2b01      	cmp	r3, #1
 800449c:	f240 81fd 	bls.w	800489a <jd_decomp+0x9fa>
 80044a0:	9b01      	ldr	r3, [sp, #4]
 80044a2:	7b5b      	ldrb	r3, [r3, #13]
 80044a4:	2b03      	cmp	r3, #3
 80044a6:	f43f af73 	beq.w	8004390 <jd_decomp+0x4f0>
 80044aa:	9907      	ldr	r1, [sp, #28]
 80044ac:	980c      	ldr	r0, [sp, #48]	; 0x30
 80044ae:	f04f 0c08 	mov.w	ip, #8
 80044b2:	f851 2b04 	ldr.w	r2, [r1], #4
 80044b6:	6bcb      	ldr	r3, [r1, #60]	; 0x3c
 80044b8:	6fcc      	ldr	r4, [r1, #124]	; 0x7c
 80044ba:	f8d1 50bc 	ldr.w	r5, [r1, #188]	; 0xbc
 80044be:	f44f 5eb5 	mov.w	lr, #5792	; 0x16a0
 80044c2:	1b5e      	subs	r6, r3, r5
 80044c4:	fb0e f606 	mul.w	r6, lr, r6
 80044c8:	18ed      	adds	r5, r5, r3
 80044ca:	ebc5 3626 	rsb	r6, r5, r6, asr #12
 80044ce:	1b17      	subs	r7, r2, r4
 80044d0:	19f3      	adds	r3, r6, r7
 80044d2:	eb02 0804 	add.w	r8, r2, r4
 80044d6:	1bbc      	subs	r4, r7, r6
 80044d8:	eb08 0205 	add.w	r2, r8, r5
 80044dc:	eba8 0505 	sub.w	r5, r8, r5
 80044e0:	f8d1 60dc 	ldr.w	r6, [r1, #220]	; 0xdc
 80044e4:	69cf      	ldr	r7, [r1, #28]
 80044e6:	f8d1 809c 	ldr.w	r8, [r1, #156]	; 0x9c
 80044ea:	f8d1 905c 	ldr.w	r9, [r1, #92]	; 0x5c
 80044ee:	eb07 0a06 	add.w	sl, r7, r6
 80044f2:	eb09 0e08 	add.w	lr, r9, r8
 80044f6:	eb0e 0b0a 	add.w	fp, lr, sl
 80044fa:	ebaa 0a0e 	sub.w	sl, sl, lr
 80044fe:	eb02 0e0b 	add.w	lr, r2, fp
 8004502:	f841 ec04 	str.w	lr, [r1, #-4]
 8004506:	eba2 020b 	sub.w	r2, r2, fp
 800450a:	f8c1 20dc 	str.w	r2, [r1, #220]	; 0xdc
 800450e:	f44f 52b5 	mov.w	r2, #5792	; 0x16a0
 8004512:	fb02 fe0a 	mul.w	lr, r2, sl
 8004516:	eba7 0a06 	sub.w	sl, r7, r6
 800451a:	eba8 0909 	sub.w	r9, r8, r9
 800451e:	eb0a 0609 	add.w	r6, sl, r9
 8004522:	f641 5290 	movw	r2, #7568	; 0x1d90
 8004526:	fb02 f606 	mul.w	r6, r2, r6
 800452a:	1336      	asrs	r6, r6, #12
 800452c:	f642 12cf 	movw	r2, #10703	; 0x29cf
 8004530:	fb02 f209 	mul.w	r2, r2, r9
 8004534:	eba6 3822 	sub.w	r8, r6, r2, asr #12
 8004538:	eba8 080b 	sub.w	r8, r8, fp
 800453c:	ebc8 372e 	rsb	r7, r8, lr, asr #12
 8004540:	f241 1251 	movw	r2, #4433	; 0x1151
 8004544:	fb02 f20a 	mul.w	r2, r2, sl
 8004548:	eba6 3622 	sub.w	r6, r6, r2, asr #12
 800454c:	1bf6      	subs	r6, r6, r7
 800454e:	eb03 0208 	add.w	r2, r3, r8
 8004552:	61ca      	str	r2, [r1, #28]
 8004554:	eba3 0208 	sub.w	r2, r3, r8
 8004558:	f8c1 20bc 	str.w	r2, [r1, #188]	; 0xbc
 800455c:	19e2      	adds	r2, r4, r7
 800455e:	63ca      	str	r2, [r1, #60]	; 0x3c
 8004560:	1be2      	subs	r2, r4, r7
 8004562:	f8c1 209c 	str.w	r2, [r1, #156]	; 0x9c
 8004566:	19aa      	adds	r2, r5, r6
 8004568:	65ca      	str	r2, [r1, #92]	; 0x5c
 800456a:	1baa      	subs	r2, r5, r6
 800456c:	67ca      	str	r2, [r1, #124]	; 0x7c
 800456e:	f1bc 0c01 	subs.w	ip, ip, #1
 8004572:	d19e      	bne.n	80044b2 <jd_decomp+0x612>
 8004574:	f04f 0c08 	mov.w	ip, #8
 8004578:	3920      	subs	r1, #32
 800457a:	f851 2b20 	ldr.w	r2, [r1], #32
 800457e:	f851 3c18 	ldr.w	r3, [r1, #-24]
 8004582:	f851 4c10 	ldr.w	r4, [r1, #-16]
 8004586:	f851 5c08 	ldr.w	r5, [r1, #-8]
 800458a:	f502 4200 	add.w	r2, r2, #32768	; 0x8000
 800458e:	f44f 5eb5 	mov.w	lr, #5792	; 0x16a0
 8004592:	1b5e      	subs	r6, r3, r5
 8004594:	fb0e f606 	mul.w	r6, lr, r6
 8004598:	18ed      	adds	r5, r5, r3
 800459a:	ebc5 3626 	rsb	r6, r5, r6, asr #12
 800459e:	1b17      	subs	r7, r2, r4
 80045a0:	19f3      	adds	r3, r6, r7
 80045a2:	eb02 0804 	add.w	r8, r2, r4
 80045a6:	1bbc      	subs	r4, r7, r6
 80045a8:	eb08 0205 	add.w	r2, r8, r5
 80045ac:	eba8 0505 	sub.w	r5, r8, r5
 80045b0:	f851 6c04 	ldr.w	r6, [r1, #-4]
 80045b4:	f851 7c1c 	ldr.w	r7, [r1, #-28]
 80045b8:	f851 8c0c 	ldr.w	r8, [r1, #-12]
 80045bc:	f851 9c14 	ldr.w	r9, [r1, #-20]
 80045c0:	eb07 0a06 	add.w	sl, r7, r6
 80045c4:	eb09 0e08 	add.w	lr, r9, r8
 80045c8:	eb0e 0b0a 	add.w	fp, lr, sl
 80045cc:	ebaa 0a0e 	sub.w	sl, sl, lr
 80045d0:	eb02 0e0b 	add.w	lr, r2, fp
 80045d4:	ea4f 2e2e 	mov.w	lr, lr, asr #8
 80045d8:	f820 eb10 	strh.w	lr, [r0], #16
 80045dc:	eba2 020b 	sub.w	r2, r2, fp
 80045e0:	1212      	asrs	r2, r2, #8
 80045e2:	f820 2c02 	strh.w	r2, [r0, #-2]
 80045e6:	f44f 52b5 	mov.w	r2, #5792	; 0x16a0
 80045ea:	fb02 fe0a 	mul.w	lr, r2, sl
 80045ee:	eba7 0a06 	sub.w	sl, r7, r6
 80045f2:	eba8 0909 	sub.w	r9, r8, r9
 80045f6:	eb0a 0609 	add.w	r6, sl, r9
 80045fa:	f641 5290 	movw	r2, #7568	; 0x1d90
 80045fe:	fb02 f606 	mul.w	r6, r2, r6
 8004602:	1336      	asrs	r6, r6, #12
 8004604:	f642 12cf 	movw	r2, #10703	; 0x29cf
 8004608:	fb02 f209 	mul.w	r2, r2, r9
 800460c:	eba6 3822 	sub.w	r8, r6, r2, asr #12
 8004610:	eba8 080b 	sub.w	r8, r8, fp
 8004614:	ebc8 372e 	rsb	r7, r8, lr, asr #12
 8004618:	f241 1251 	movw	r2, #4433	; 0x1151
 800461c:	fb02 f20a 	mul.w	r2, r2, sl
 8004620:	eba6 3622 	sub.w	r6, r6, r2, asr #12
 8004624:	1bf6      	subs	r6, r6, r7
 8004626:	eb03 0208 	add.w	r2, r3, r8
 800462a:	1212      	asrs	r2, r2, #8
 800462c:	f820 2c0e 	strh.w	r2, [r0, #-14]
 8004630:	eba3 0208 	sub.w	r2, r3, r8
 8004634:	1212      	asrs	r2, r2, #8
 8004636:	f820 2c04 	strh.w	r2, [r0, #-4]
 800463a:	19e2      	adds	r2, r4, r7
 800463c:	1212      	asrs	r2, r2, #8
 800463e:	f820 2c0c 	strh.w	r2, [r0, #-12]
 8004642:	1be2      	subs	r2, r4, r7
 8004644:	1212      	asrs	r2, r2, #8
 8004646:	f820 2c06 	strh.w	r2, [r0, #-6]
 800464a:	19aa      	adds	r2, r5, r6
 800464c:	1212      	asrs	r2, r2, #8
 800464e:	f820 2c0a 	strh.w	r2, [r0, #-10]
 8004652:	1baa      	subs	r2, r5, r6
 8004654:	1212      	asrs	r2, r2, #8
 8004656:	f820 2c08 	strh.w	r2, [r0, #-8]
 800465a:	f1bc 0c01 	subs.w	ip, ip, #1
 800465e:	d18c      	bne.n	800457a <jd_decomp+0x6da>
 8004660:	e472      	b.n	8003f48 <jd_decomp+0xa8>
 8004662:	468b      	mov	fp, r1
 8004664:	4659      	mov	r1, fp
 8004666:	3801      	subs	r0, #1
 8004668:	f811 3b01 	ldrb.w	r3, [r1], #1
 800466c:	f1b9 0f00 	cmp.w	r9, #0
 8004670:	f47f aec7 	bne.w	8004402 <jd_decomp+0x562>
 8004674:	2bff      	cmp	r3, #255	; 0xff
 8004676:	f47f aeca 	bne.w	800440e <jd_decomp+0x56e>
 800467a:	45b0      	cmp	r8, r6
 800467c:	f240 80df 	bls.w	800483e <jd_decomp+0x99e>
 8004680:	f04f 0901 	mov.w	r9, #1
 8004684:	e6cb      	b.n	800441e <jd_decomp+0x57e>
 8004686:	23ff      	movs	r3, #255	; 0xff
 8004688:	e6c1      	b.n	800440e <jd_decomp+0x56e>
 800468a:	2002      	movs	r0, #2
 800468c:	b01b      	add	sp, #108	; 0x6c
 800468e:	e8bd 8ff0 	ldmia.w	sp!, {r4, r5, r6, r7, r8, r9, sl, fp, pc}
 8004692:	468c      	mov	ip, r1
 8004694:	e652      	b.n	800433c <jd_decomp+0x49c>
 8004696:	3508      	adds	r5, #8
 8004698:	23ff      	movs	r3, #255	; 0xff
 800469a:	2d0f      	cmp	r5, #15
 800469c:	ea43 2404 	orr.w	r4, r3, r4, lsl #8
 80046a0:	f67f ad63 	bls.w	800416a <jd_decomp+0x2ca>
 80046a4:	462b      	mov	r3, r5
 80046a6:	e571      	b.n	800418c <jd_decomp+0x2ec>
 80046a8:	4633      	mov	r3, r6
 80046aa:	e5dc      	b.n	8004266 <jd_decomp+0x3c6>
 80046ac:	4629      	mov	r1, r5
 80046ae:	9d05      	ldr	r5, [sp, #20]
 80046b0:	eb01 02c5 	add.w	r2, r1, r5, lsl #3
 80046b4:	eb01 0145 	add.w	r1, r1, r5, lsl #1
 80046b8:	6b15      	ldr	r5, [r2, #48]	; 0x30
 80046ba:	f891 6065 	ldrb.w	r6, [r1, #101]	; 0x65
 80046be:	6a11      	ldr	r1, [r2, #32]
 80046c0:	6c12      	ldr	r2, [r2, #64]	; 0x40
 80046c2:	f101 0e0a 	add.w	lr, r1, #10
 80046c6:	f1c1 0901 	rsb	r9, r1, #1
 80046ca:	f101 0b10 	add.w	fp, r1, #16
 80046ce:	1859      	adds	r1, r3, r1
 80046d0:	eb05 0546 	add.w	r5, r5, r6, lsl #1
 80046d4:	4432      	add	r2, r6
 80046d6:	9102      	str	r1, [sp, #8]
 80046d8:	eb0e 0109 	add.w	r1, lr, r9
 80046dc:	f81e 6b01 	ldrb.w	r6, [lr], #1
 80046e0:	b946      	cbnz	r6, 80046f4 <jd_decomp+0x854>
 80046e2:	45de      	cmp	lr, fp
 80046e4:	f43f ae2d 	beq.w	8004342 <jd_decomp+0x4a2>
 80046e8:	eb0e 0109 	add.w	r1, lr, r9
 80046ec:	f81e 6b01 	ldrb.w	r6, [lr], #1
 80046f0:	2e00      	cmp	r6, #0
 80046f2:	d0f6      	beq.n	80046e2 <jd_decomp+0x842>
 80046f4:	eb06 0c02 	add.w	ip, r6, r2
 80046f8:	9e02      	ldr	r6, [sp, #8]
 80046fa:	eba6 080e 	sub.w	r8, r6, lr
 80046fe:	fa24 f808 	lsr.w	r8, r4, r8
 8004702:	4666      	mov	r6, ip
 8004704:	e005      	b.n	8004712 <jd_decomp+0x872>
 8004706:	bf00      	nop
 8004708:	08006470 	.word	0x08006470
 800470c:	3201      	adds	r2, #1
 800470e:	42b2      	cmp	r2, r6
 8004710:	d0e7      	beq.n	80046e2 <jd_decomp+0x842>
 8004712:	f835 cb02 	ldrh.w	ip, [r5], #2
 8004716:	45e0      	cmp	r8, ip
 8004718:	d1f8      	bne.n	800470c <jd_decomp+0x86c>
 800471a:	1a5b      	subs	r3, r3, r1
 800471c:	9901      	ldr	r1, [sp, #4]
 800471e:	b2db      	uxtb	r3, r3
 8004720:	730b      	strb	r3, [r1, #12]
 8004722:	7816      	ldrb	r6, [r2, #0]
 8004724:	460a      	mov	r2, r1
 8004726:	9909      	ldr	r1, [sp, #36]	; 0x24
 8004728:	eb02 0941 	add.w	r9, r2, r1, lsl #1
 800472c:	f9b9 b014 	ldrsh.w	fp, [r9, #20]
 8004730:	2e00      	cmp	r6, #0
 8004732:	f43f ad4b 	beq.w	80041cc <jd_decomp+0x32c>
 8004736:	f04f 32ff 	mov.w	r2, #4294967295
 800473a:	409a      	lsls	r2, r3
 800473c:	429e      	cmp	r6, r3
 800473e:	461d      	mov	r5, r3
 8004740:	ea24 0402 	bic.w	r4, r4, r2
 8004744:	f240 8346 	bls.w	8004dd4 <jd_decomp+0xf34>
 8004748:	f04f 0800 	mov.w	r8, #0
 800474c:	4653      	mov	r3, sl
 800474e:	46ca      	mov	sl, r9
 8004750:	46b1      	mov	r9, r6
 8004752:	4626      	mov	r6, r4
 8004754:	4644      	mov	r4, r8
 8004756:	f8dd 8004 	ldr.w	r8, [sp, #4]
 800475a:	f898 2064 	ldrb.w	r2, [r8, #100]	; 0x64
 800475e:	bb02      	cbnz	r2, 80047a2 <jd_decomp+0x902>
 8004760:	b960      	cbnz	r0, 800477c <jd_decomp+0x8dc>
 8004762:	f8d8 3008 	ldr.w	r3, [r8, #8]
 8004766:	9302      	str	r3, [sp, #8]
 8004768:	4619      	mov	r1, r3
 800476a:	f44f 6280 	mov.w	r2, #1024	; 0x400
 800476e:	f8d8 3098 	ldr.w	r3, [r8, #152]	; 0x98
 8004772:	4640      	mov	r0, r8
 8004774:	4798      	blx	r3
 8004776:	9b02      	ldr	r3, [sp, #8]
 8004778:	2800      	cmp	r0, #0
 800477a:	d086      	beq.n	800468a <jd_decomp+0x7ea>
 800477c:	f813 2b01 	ldrb.w	r2, [r3], #1
 8004780:	3801      	subs	r0, #1
 8004782:	b39c      	cbz	r4, 80047ec <jd_decomp+0x94c>
 8004784:	b3ca      	cbz	r2, 80047fa <jd_decomp+0x95a>
 8004786:	f888 2064 	strb.w	r2, [r8, #100]	; 0x64
 800478a:	22ff      	movs	r2, #255	; 0xff
 800478c:	3508      	adds	r5, #8
 800478e:	45a9      	cmp	r9, r5
 8004790:	ea42 2606 	orr.w	r6, r2, r6, lsl #8
 8004794:	f240 8319 	bls.w	8004dca <jd_decomp+0xf2a>
 8004798:	f898 2064 	ldrb.w	r2, [r8, #100]	; 0x64
 800479c:	2400      	movs	r4, #0
 800479e:	2a00      	cmp	r2, #0
 80047a0:	d0de      	beq.n	8004760 <jd_decomp+0x8c0>
 80047a2:	4634      	mov	r4, r6
 80047a4:	464e      	mov	r6, r9
 80047a6:	46d1      	mov	r9, sl
 80047a8:	469a      	mov	sl, r3
 80047aa:	3508      	adds	r5, #8
 80047ac:	0224      	lsls	r4, r4, #8
 80047ae:	42ae      	cmp	r6, r5
 80047b0:	f044 04ff 	orr.w	r4, r4, #255	; 0xff
 80047b4:	d8f9      	bhi.n	80047aa <jd_decomp+0x90a>
 80047b6:	9a01      	ldr	r2, [sp, #4]
 80047b8:	1bab      	subs	r3, r5, r6
 80047ba:	7313      	strb	r3, [r2, #12]
 80047bc:	f003 031f 	and.w	r3, r3, #31
 80047c0:	fa24 f303 	lsr.w	r3, r4, r3
 80047c4:	2b00      	cmp	r3, #0
 80047c6:	e9c2 0a00 	strd	r0, sl, [r2]
 80047ca:	6614      	str	r4, [r2, #96]	; 0x60
 80047cc:	4619      	mov	r1, r3
 80047ce:	f2c0 830b 	blt.w	8004de8 <jd_decomp+0xf48>
 80047d2:	3e01      	subs	r6, #1
 80047d4:	2201      	movs	r2, #1
 80047d6:	40b2      	lsls	r2, r6
 80047d8:	421a      	tst	r2, r3
 80047da:	d103      	bne.n	80047e4 <jd_decomp+0x944>
 80047dc:	0052      	lsls	r2, r2, #1
 80047de:	f1c2 0201 	rsb	r2, r2, #1
 80047e2:	18d1      	adds	r1, r2, r3
 80047e4:	448b      	add	fp, r1
 80047e6:	f8a9 b014 	strh.w	fp, [r9, #20]
 80047ea:	e4ef      	b.n	80041cc <jd_decomp+0x32c>
 80047ec:	2aff      	cmp	r2, #255	; 0xff
 80047ee:	d1cd      	bne.n	800478c <jd_decomp+0x8ec>
 80047f0:	45a9      	cmp	r9, r5
 80047f2:	f240 82ea 	bls.w	8004dca <jd_decomp+0xf2a>
 80047f6:	2401      	movs	r4, #1
 80047f8:	e7af      	b.n	800475a <jd_decomp+0x8ba>
 80047fa:	22ff      	movs	r2, #255	; 0xff
 80047fc:	e7c6      	b.n	800478c <jd_decomp+0x8ec>
 80047fe:	1b01      	subs	r1, r0, r4
 8004800:	f7ff bbc2 	b.w	8003f88 <jd_decomp+0xe8>
 8004804:	9a0b      	ldr	r2, [sp, #44]	; 0x2c
 8004806:	9c12      	ldr	r4, [sp, #72]	; 0x48
 8004808:	9901      	ldr	r1, [sp, #4]
 800480a:	4422      	add	r2, r4
 800480c:	f8d1 3084 	ldr.w	r3, [r1, #132]	; 0x84
 8004810:	920b      	str	r2, [sp, #44]	; 0x2c
 8004812:	4282      	cmp	r2, r0
 8004814:	f8c1 3080 	str.w	r3, [r1, #128]	; 0x80
 8004818:	f4ff ab61 	bcc.w	8003ede <jd_decomp+0x3e>
 800481c:	e464      	b.n	80040e8 <jd_decomp+0x248>
 800481e:	9205      	str	r2, [sp, #20]
 8004820:	9209      	str	r2, [sp, #36]	; 0x24
 8004822:	e46f      	b.n	8004104 <jd_decomp+0x264>
 8004824:	eba6 0308 	sub.w	r3, r6, r8
 8004828:	732b      	strb	r3, [r5, #12]
 800482a:	f003 031f 	and.w	r3, r3, #31
 800482e:	662c      	str	r4, [r5, #96]	; 0x60
 8004830:	40dc      	lsrs	r4, r3
 8004832:	4621      	mov	r1, r4
 8004834:	e610      	b.n	8004458 <jd_decomp+0x5b8>
 8004836:	2301      	movs	r3, #1
 8004838:	9209      	str	r2, [sp, #36]	; 0x24
 800483a:	9305      	str	r3, [sp, #20]
 800483c:	e462      	b.n	8004104 <jd_decomp+0x264>
 800483e:	4633      	mov	r3, r6
 8004840:	e5fd      	b.n	800443e <jd_decomp+0x59e>
 8004842:	9b09      	ldr	r3, [sp, #36]	; 0x24
 8004844:	2b00      	cmp	r3, #0
 8004846:	f47f ab7f 	bne.w	8003f48 <jd_decomp+0xa8>
 800484a:	e59d      	b.n	8004388 <jd_decomp+0x4e8>
 800484c:	9a01      	ldr	r2, [sp, #4]
 800484e:	f892 4064 	ldrb.w	r4, [r2, #100]	; 0x64
 8004852:	6855      	ldr	r5, [r2, #4]
 8004854:	6811      	ldr	r1, [r2, #0]
 8004856:	2c00      	cmp	r4, #0
 8004858:	f000 8281 	beq.w	8004d5e <jd_decomp+0xebe>
 800485c:	2300      	movs	r3, #0
 800485e:	f444 447f 	orr.w	r4, r4, #65280	; 0xff00
 8004862:	f882 3064 	strb.w	r3, [r2, #100]	; 0x64
 8004866:	f024 0327 	bic.w	r3, r4, #39	; 0x27
 800486a:	b29b      	uxth	r3, r3
 800486c:	f64f 72d0 	movw	r2, #65488	; 0xffd0
 8004870:	4293      	cmp	r3, r2
 8004872:	f47f ad66 	bne.w	8004342 <jd_decomp+0x4a2>
 8004876:	9a13      	ldr	r2, [sp, #76]	; 0x4c
 8004878:	ea84 0302 	eor.w	r3, r4, r2
 800487c:	f013 0307 	ands.w	r3, r3, #7
 8004880:	f47f ad5f 	bne.w	8004342 <jd_decomp+0x4a2>
 8004884:	3201      	adds	r2, #1
 8004886:	b292      	uxth	r2, r2
 8004888:	9213      	str	r2, [sp, #76]	; 0x4c
 800488a:	9a01      	ldr	r2, [sp, #4]
 800488c:	7313      	strb	r3, [r2, #12]
 800488e:	6153      	str	r3, [r2, #20]
 8004890:	8313      	strh	r3, [r2, #24]
 8004892:	2301      	movs	r3, #1
 8004894:	9311      	str	r3, [sp, #68]	; 0x44
 8004896:	f7ff bb2c 	b.w	8003ef2 <jd_decomp+0x52>
 800489a:	9b09      	ldr	r3, [sp, #36]	; 0x24
 800489c:	2b00      	cmp	r3, #0
 800489e:	f43f adff 	beq.w	80044a0 <jd_decomp+0x600>
 80048a2:	f7ff bb51 	b.w	8003f48 <jd_decomp+0xa8>
 80048a6:	9a0d      	ldr	r2, [sp, #52]	; 0x34
 80048a8:	ea4f 0e42 	mov.w	lr, r2, lsl #1
 80048ac:	9a0f      	ldr	r2, [sp, #60]	; 0x3c
 80048ae:	2a01      	cmp	r2, #1
 80048b0:	ea4f 0545 	mov.w	r5, r5, lsl #1
 80048b4:	f43f abfd 	beq.w	80040b2 <jd_decomp+0x212>
 80048b8:	9e0c      	ldr	r6, [sp, #48]	; 0x30
 80048ba:	46b4      	mov	ip, r6
 80048bc:	4476      	add	r6, lr
 80048be:	44ac      	add	ip, r5
 80048c0:	9c0d      	ldr	r4, [sp, #52]	; 0x34
 80048c2:	4632      	mov	r2, r6
 80048c4:	4661      	mov	r1, ip
 80048c6:	4324      	orrs	r4, r4
 80048c8:	d005      	beq.n	80048d6 <jd_decomp+0xa36>
 80048ca:	f831 0b02 	ldrh.w	r0, [r1], #2
 80048ce:	f822 0b02 	strh.w	r0, [r2], #2
 80048d2:	3c01      	subs	r4, #1
 80048d4:	d1f9      	bne.n	80048ca <jd_decomp+0xa2a>
 80048d6:	9a0f      	ldr	r2, [sp, #60]	; 0x3c
 80048d8:	3301      	adds	r3, #1
 80048da:	429a      	cmp	r2, r3
 80048dc:	d1ee      	bne.n	80048bc <jd_decomp+0xa1c>
 80048de:	f7ff bbe8 	b.w	80040b2 <jd_decomp+0x212>
 80048e2:	9b04      	ldr	r3, [sp, #16]
 80048e4:	2b00      	cmp	r3, #0
 80048e6:	d059      	beq.n	800499c <jd_decomp+0xafc>
 80048e8:	ea4f 130b 	mov.w	r3, fp, lsl #4
 80048ec:	9305      	str	r3, [sp, #20]
 80048ee:	2300      	movs	r3, #0
 80048f0:	9302      	str	r3, [sp, #8]
 80048f2:	9b01      	ldr	r3, [sp, #4]
 80048f4:	f8d3 608c 	ldr.w	r6, [r3, #140]	; 0x8c
 80048f8:	9b0a      	ldr	r3, [sp, #40]	; 0x28
 80048fa:	2b10      	cmp	r3, #16
 80048fc:	f000 818f 	beq.w	8004c1e <jd_decomp+0xd7e>
 8004900:	9b05      	ldr	r3, [sp, #20]
 8004902:	18f3      	adds	r3, r6, r3
 8004904:	9a02      	ldr	r2, [sp, #8]
 8004906:	eb06 1602 	add.w	r6, r6, r2, lsl #4
 800490a:	9a03      	ldr	r2, [sp, #12]
 800490c:	2a00      	cmp	r2, #0
 800490e:	d039      	beq.n	8004984 <jd_decomp+0xae4>
 8004910:	2500      	movs	r5, #0
 8004912:	f9b3 c000 	ldrsh.w	ip, [r3]
 8004916:	f9b3 e080 	ldrsh.w	lr, [r3, #128]	; 0x80
 800491a:	f1bb 0f10 	cmp.w	fp, #16
 800491e:	f1ac 0c80 	sub.w	ip, ip, #128	; 0x80
 8004922:	f1ae 0e80 	sub.w	lr, lr, #128	; 0x80
 8004926:	f000 8151 	beq.w	8004bcc <jd_decomp+0xd2c>
 800492a:	4631      	mov	r1, r6
 800492c:	3302      	adds	r3, #2
 800492e:	9a01      	ldr	r2, [sp, #4]
 8004930:	f9b1 8000 	ldrsh.w	r8, [r1]
 8004934:	f892 2088 	ldrb.w	r2, [r2, #136]	; 0x88
 8004938:	3602      	adds	r6, #2
 800493a:	2a00      	cmp	r2, #0
 800493c:	f040 80e9 	bne.w	8004b12 <jd_decomp+0xc72>
 8004940:	202d      	movs	r0, #45	; 0x2d
 8004942:	fb00 f00e 	mul.w	r0, r0, lr
 8004946:	eb08 1060 	add.w	r0, r8, r0, asr #5
 800494a:	f380 0a08 	usat	sl, #8, r0
 800494e:	2017      	movs	r0, #23
 8004950:	fb00 f10e 	mul.w	r1, r0, lr
 8004954:	200b      	movs	r0, #11
 8004956:	fb00 100c 	mla	r0, r0, ip, r1
 800495a:	eba8 1060 	sub.w	r0, r8, r0, asr #5
 800495e:	f380 0908 	usat	r9, #8, r0
 8004962:	2071      	movs	r0, #113	; 0x71
 8004964:	fb00 f00c 	mul.w	r0, r0, ip
 8004968:	eb08 10a0 	add.w	r0, r8, r0, asr #6
 800496c:	f380 0208 	usat	r2, #8, r0
 8004970:	3501      	adds	r5, #1
 8004972:	45ab      	cmp	fp, r5
 8004974:	f884 a000 	strb.w	sl, [r4]
 8004978:	f884 9001 	strb.w	r9, [r4, #1]
 800497c:	70a2      	strb	r2, [r4, #2]
 800497e:	f104 0403 	add.w	r4, r4, #3
 8004982:	d1c6      	bne.n	8004912 <jd_decomp+0xa72>
 8004984:	9a05      	ldr	r2, [sp, #20]
 8004986:	9b02      	ldr	r3, [sp, #8]
 8004988:	3210      	adds	r2, #16
 800498a:	9205      	str	r2, [sp, #20]
 800498c:	9a0a      	ldr	r2, [sp, #40]	; 0x28
 800498e:	3301      	adds	r3, #1
 8004990:	429a      	cmp	r2, r3
 8004992:	9302      	str	r3, [sp, #8]
 8004994:	d1ad      	bne.n	80048f2 <jd_decomp+0xa52>
 8004996:	9b01      	ldr	r3, [sp, #4]
 8004998:	f893 800d 	ldrb.w	r8, [r3, #13]
 800499c:	f1b8 0f00 	cmp.w	r8, #0
 80049a0:	f43f ab5a 	beq.w	8004058 <jd_decomp+0x1b8>
 80049a4:	9b01      	ldr	r3, [sp, #4]
 80049a6:	2001      	movs	r0, #1
 80049a8:	f893 e088 	ldrb.w	lr, [r3, #136]	; 0x88
 80049ac:	fa00 f008 	lsl.w	r0, r0, r8
 80049b0:	ea4f 0348 	mov.w	r3, r8, lsl #1
 80049b4:	9307      	str	r3, [sp, #28]
 80049b6:	ebab 0a00 	sub.w	sl, fp, r0
 80049ba:	f1be 0f00 	cmp.w	lr, #0
 80049be:	f040 81fa 	bne.w	8004db6 <jd_decomp+0xf16>
 80049c2:	eb0a 0a4a 	add.w	sl, sl, sl, lsl #1
 80049c6:	2303      	movs	r3, #3
 80049c8:	9a04      	ldr	r2, [sp, #16]
 80049ca:	2a00      	cmp	r2, #0
 80049cc:	f43f ab44 	beq.w	8004058 <jd_decomp+0x1b8>
 80049d0:	9a03      	ldr	r2, [sp, #12]
 80049d2:	2a00      	cmp	r2, #0
 80049d4:	f43f ab40 	beq.w	8004058 <jd_decomp+0x1b8>
 80049d8:	fb03 f300 	mul.w	r3, r3, r0
 80049dc:	9309      	str	r3, [sp, #36]	; 0x24
 80049de:	fb03 f30b 	mul.w	r3, r3, fp
 80049e2:	9316      	str	r3, [sp, #88]	; 0x58
 80049e4:	9b0c      	ldr	r3, [sp, #48]	; 0x30
 80049e6:	9310      	str	r3, [sp, #64]	; 0x40
 80049e8:	eb00 0240 	add.w	r2, r0, r0, lsl #1
 80049ec:	9306      	str	r3, [sp, #24]
 80049ee:	2300      	movs	r3, #0
 80049f0:	0041      	lsls	r1, r0, #1
 80049f2:	9314      	str	r3, [sp, #80]	; 0x50
 80049f4:	1cd3      	adds	r3, r2, #3
 80049f6:	f8cd b020 	str.w	fp, [sp, #32]
 80049fa:	9202      	str	r2, [sp, #8]
 80049fc:	9104      	str	r1, [sp, #16]
 80049fe:	469b      	mov	fp, r3
 8004a00:	9b10      	ldr	r3, [sp, #64]	; 0x40
 8004a02:	9303      	str	r3, [sp, #12]
 8004a04:	2300      	movs	r3, #0
 8004a06:	9903      	ldr	r1, [sp, #12]
 8004a08:	9305      	str	r3, [sp, #20]
 8004a0a:	2800      	cmp	r0, #0
 8004a0c:	d03d      	beq.n	8004a8a <jd_decomp+0xbea>
 8004a0e:	2400      	movs	r4, #0
 8004a10:	4626      	mov	r6, r4
 8004a12:	4623      	mov	r3, r4
 8004a14:	46a4      	mov	ip, r4
 8004a16:	f1be 0f00 	cmp.w	lr, #0
 8004a1a:	d14e      	bne.n	8004aba <jd_decomp+0xc1a>
 8004a1c:	1cca      	adds	r2, r1, #3
 8004a1e:	eb01 050b 	add.w	r5, r1, fp
 8004a22:	f812 8c03 	ldrb.w	r8, [r2, #-3]
 8004a26:	4443      	add	r3, r8
 8004a28:	f812 8c02 	ldrb.w	r8, [r2, #-2]
 8004a2c:	3203      	adds	r2, #3
 8004a2e:	4446      	add	r6, r8
 8004a30:	f812 8c04 	ldrb.w	r8, [r2, #-4]
 8004a34:	42aa      	cmp	r2, r5
 8004a36:	4444      	add	r4, r8
 8004a38:	d1f3      	bne.n	8004a22 <jd_decomp+0xb82>
 8004a3a:	9a02      	ldr	r2, [sp, #8]
 8004a3c:	188a      	adds	r2, r1, r2
 8004a3e:	f10c 0c01 	add.w	ip, ip, #1
 8004a42:	4560      	cmp	r0, ip
 8004a44:	eb02 010a 	add.w	r1, r2, sl
 8004a48:	d1e5      	bne.n	8004a16 <jd_decomp+0xb76>
 8004a4a:	9a07      	ldr	r2, [sp, #28]
 8004a4c:	40d3      	lsrs	r3, r2
 8004a4e:	f1be 0f00 	cmp.w	lr, #0
 8004a52:	d120      	bne.n	8004a96 <jd_decomp+0xbf6>
 8004a54:	9a06      	ldr	r2, [sp, #24]
 8004a56:	9907      	ldr	r1, [sp, #28]
 8004a58:	7013      	strb	r3, [r2, #0]
 8004a5a:	4613      	mov	r3, r2
 8004a5c:	40ce      	lsrs	r6, r1
 8004a5e:	40cc      	lsrs	r4, r1
 8004a60:	3303      	adds	r3, #3
 8004a62:	7056      	strb	r6, [r2, #1]
 8004a64:	7094      	strb	r4, [r2, #2]
 8004a66:	9306      	str	r3, [sp, #24]
 8004a68:	9a03      	ldr	r2, [sp, #12]
 8004a6a:	9909      	ldr	r1, [sp, #36]	; 0x24
 8004a6c:	9b05      	ldr	r3, [sp, #20]
 8004a6e:	440a      	add	r2, r1
 8004a70:	9203      	str	r2, [sp, #12]
 8004a72:	9a08      	ldr	r2, [sp, #32]
 8004a74:	4403      	add	r3, r0
 8004a76:	429a      	cmp	r2, r3
 8004a78:	9305      	str	r3, [sp, #20]
 8004a7a:	f240 80c1 	bls.w	8004c00 <jd_decomp+0xd60>
 8004a7e:	9b01      	ldr	r3, [sp, #4]
 8004a80:	9903      	ldr	r1, [sp, #12]
 8004a82:	f893 e088 	ldrb.w	lr, [r3, #136]	; 0x88
 8004a86:	2800      	cmp	r0, #0
 8004a88:	d1c1      	bne.n	8004a0e <jd_decomp+0xb6e>
 8004a8a:	4603      	mov	r3, r0
 8004a8c:	4604      	mov	r4, r0
 8004a8e:	4606      	mov	r6, r0
 8004a90:	f1be 0f00 	cmp.w	lr, #0
 8004a94:	d0de      	beq.n	8004a54 <jd_decomp+0xbb4>
 8004a96:	f1be 0f01 	cmp.w	lr, #1
 8004a9a:	f000 80a0 	beq.w	8004bde <jd_decomp+0xd3e>
 8004a9e:	f1be 0f02 	cmp.w	lr, #2
 8004aa2:	f000 80a8 	beq.w	8004bf6 <jd_decomp+0xd56>
 8004aa6:	b29b      	uxth	r3, r3
 8004aa8:	019a      	lsls	r2, r3, #6
 8004aaa:	ea42 22c3 	orr.w	r2, r2, r3, lsl #11
 8004aae:	4313      	orrs	r3, r2
 8004ab0:	9a06      	ldr	r2, [sp, #24]
 8004ab2:	f822 3b02 	strh.w	r3, [r2], #2
 8004ab6:	9206      	str	r2, [sp, #24]
 8004ab8:	e7d6      	b.n	8004a68 <jd_decomp+0xbc8>
 8004aba:	f1be 0f01 	cmp.w	lr, #1
 8004abe:	d00f      	beq.n	8004ae0 <jd_decomp+0xc40>
 8004ac0:	f1be 0f02 	cmp.w	lr, #2
 8004ac4:	d01e      	beq.n	8004b04 <jd_decomp+0xc64>
 8004ac6:	4688      	mov	r8, r1
 8004ac8:	2500      	movs	r5, #0
 8004aca:	f838 2b02 	ldrh.w	r2, [r8], #2
 8004ace:	3501      	adds	r5, #1
 8004ad0:	f002 021f 	and.w	r2, r2, #31
 8004ad4:	42a8      	cmp	r0, r5
 8004ad6:	4413      	add	r3, r2
 8004ad8:	d1f7      	bne.n	8004aca <jd_decomp+0xc2a>
 8004ada:	9a04      	ldr	r2, [sp, #16]
 8004adc:	188a      	adds	r2, r1, r2
 8004ade:	e7ae      	b.n	8004a3e <jd_decomp+0xb9e>
 8004ae0:	4688      	mov	r8, r1
 8004ae2:	2500      	movs	r5, #0
 8004ae4:	f838 2b02 	ldrh.w	r2, [r8], #2
 8004ae8:	3501      	adds	r5, #1
 8004aea:	f3c2 1984 	ubfx	r9, r2, #6, #5
 8004aee:	eb03 23d2 	add.w	r3, r3, r2, lsr #11
 8004af2:	42a8      	cmp	r0, r5
 8004af4:	f002 021f 	and.w	r2, r2, #31
 8004af8:	444e      	add	r6, r9
 8004afa:	4414      	add	r4, r2
 8004afc:	d1f2      	bne.n	8004ae4 <jd_decomp+0xc44>
 8004afe:	9a04      	ldr	r2, [sp, #16]
 8004b00:	188a      	adds	r2, r1, r2
 8004b02:	e79c      	b.n	8004a3e <jd_decomp+0xb9e>
 8004b04:	180a      	adds	r2, r1, r0
 8004b06:	f811 5b01 	ldrb.w	r5, [r1], #1
 8004b0a:	428a      	cmp	r2, r1
 8004b0c:	442b      	add	r3, r5
 8004b0e:	d1fa      	bne.n	8004b06 <jd_decomp+0xc66>
 8004b10:	e795      	b.n	8004a3e <jd_decomp+0xb9e>
 8004b12:	222d      	movs	r2, #45	; 0x2d
 8004b14:	fb02 f20e 	mul.w	r2, r2, lr
 8004b18:	eb08 1262 	add.w	r2, r8, r2, asr #5
 8004b1c:	f3a2 02c5 	usat	r2, #5, r2, asr #3
 8004b20:	2117      	movs	r1, #23
 8004b22:	fb01 f10e 	mul.w	r1, r1, lr
 8004b26:	200b      	movs	r0, #11
 8004b28:	fb00 110c 	mla	r1, r0, ip, r1
 8004b2c:	eba8 1161 	sub.w	r1, r8, r1, asr #5
 8004b30:	f3a1 01c5 	usat	r1, #5, r1, asr #3
 8004b34:	2071      	movs	r0, #113	; 0x71
 8004b36:	fb00 f00c 	mul.w	r0, r0, ip
 8004b3a:	eb08 10a0 	add.w	r0, r8, r0, asr #6
 8004b3e:	f3a0 00c5 	usat	r0, #5, r0, asr #3
 8004b42:	ea40 1081 	orr.w	r0, r0, r1, lsl #6
 8004b46:	ea40 29c2 	orr.w	r9, r0, r2, lsl #11
 8004b4a:	3501      	adds	r5, #1
 8004b4c:	45ab      	cmp	fp, r5
 8004b4e:	f824 9b02 	strh.w	r9, [r4], #2
 8004b52:	d127      	bne.n	8004ba4 <jd_decomp+0xd04>
 8004b54:	e716      	b.n	8004984 <jd_decomp+0xae4>
 8004b56:	4632      	mov	r2, r6
 8004b58:	3302      	adds	r3, #2
 8004b5a:	f9b2 9000 	ldrsh.w	r9, [r2]
 8004b5e:	3602      	adds	r6, #2
 8004b60:	222d      	movs	r2, #45	; 0x2d
 8004b62:	fb02 f20e 	mul.w	r2, r2, lr
 8004b66:	eb09 1262 	add.w	r2, r9, r2, asr #5
 8004b6a:	f3a2 02c5 	usat	r2, #5, r2, asr #3
 8004b6e:	2117      	movs	r1, #23
 8004b70:	fb01 f10e 	mul.w	r1, r1, lr
 8004b74:	200b      	movs	r0, #11
 8004b76:	fb00 110c 	mla	r1, r0, ip, r1
 8004b7a:	eba9 1161 	sub.w	r1, r9, r1, asr #5
 8004b7e:	f3a1 01c5 	usat	r1, #5, r1, asr #3
 8004b82:	2071      	movs	r0, #113	; 0x71
 8004b84:	fb00 f00c 	mul.w	r0, r0, ip
 8004b88:	eb09 10a0 	add.w	r0, r9, r0, asr #6
 8004b8c:	f3a0 00c5 	usat	r0, #5, r0, asr #3
 8004b90:	ea40 1081 	orr.w	r0, r0, r1, lsl #6
 8004b94:	ea40 28c2 	orr.w	r8, r0, r2, lsl #11
 8004b98:	3501      	adds	r5, #1
 8004b9a:	45ab      	cmp	fp, r5
 8004b9c:	f824 8b02 	strh.w	r8, [r4], #2
 8004ba0:	f67f aef0 	bls.w	8004984 <jd_decomp+0xae4>
 8004ba4:	f9b3 c000 	ldrsh.w	ip, [r3]
 8004ba8:	f9b3 e080 	ldrsh.w	lr, [r3, #128]	; 0x80
 8004bac:	f1bb 0f10 	cmp.w	fp, #16
 8004bb0:	f1ac 0c80 	sub.w	ip, ip, #128	; 0x80
 8004bb4:	f1ae 0e80 	sub.w	lr, lr, #128	; 0x80
 8004bb8:	d1cd      	bne.n	8004b56 <jd_decomp+0xcb6>
 8004bba:	2d08      	cmp	r5, #8
 8004bbc:	f005 0201 	and.w	r2, r5, #1
 8004bc0:	bf08      	it	eq
 8004bc2:	3670      	addeq	r6, #112	; 0x70
 8004bc4:	eb03 0342 	add.w	r3, r3, r2, lsl #1
 8004bc8:	4632      	mov	r2, r6
 8004bca:	e7c6      	b.n	8004b5a <jd_decomp+0xcba>
 8004bcc:	2d08      	cmp	r5, #8
 8004bce:	f005 0201 	and.w	r2, r5, #1
 8004bd2:	bf08      	it	eq
 8004bd4:	3670      	addeq	r6, #112	; 0x70
 8004bd6:	eb03 0342 	add.w	r3, r3, r2, lsl #1
 8004bda:	4631      	mov	r1, r6
 8004bdc:	e6a7      	b.n	800492e <jd_decomp+0xa8e>
 8004bde:	9a07      	ldr	r2, [sp, #28]
 8004be0:	40d4      	lsrs	r4, r2
 8004be2:	ea44 24c3 	orr.w	r4, r4, r3, lsl #11
 8004be6:	40d6      	lsrs	r6, r2
 8004be8:	9b06      	ldr	r3, [sp, #24]
 8004bea:	ea44 1486 	orr.w	r4, r4, r6, lsl #6
 8004bee:	f823 4b02 	strh.w	r4, [r3], #2
 8004bf2:	9306      	str	r3, [sp, #24]
 8004bf4:	e738      	b.n	8004a68 <jd_decomp+0xbc8>
 8004bf6:	9a06      	ldr	r2, [sp, #24]
 8004bf8:	f802 3b01 	strb.w	r3, [r2], #1
 8004bfc:	9206      	str	r2, [sp, #24]
 8004bfe:	e733      	b.n	8004a68 <jd_decomp+0xbc8>
 8004c00:	9a10      	ldr	r2, [sp, #64]	; 0x40
 8004c02:	9916      	ldr	r1, [sp, #88]	; 0x58
 8004c04:	9b14      	ldr	r3, [sp, #80]	; 0x50
 8004c06:	440a      	add	r2, r1
 8004c08:	9210      	str	r2, [sp, #64]	; 0x40
 8004c0a:	9a0a      	ldr	r2, [sp, #40]	; 0x28
 8004c0c:	4403      	add	r3, r0
 8004c0e:	429a      	cmp	r2, r3
 8004c10:	9314      	str	r3, [sp, #80]	; 0x50
 8004c12:	f240 809d 	bls.w	8004d50 <jd_decomp+0xeb0>
 8004c16:	9b01      	ldr	r3, [sp, #4]
 8004c18:	f893 e088 	ldrb.w	lr, [r3, #136]	; 0x88
 8004c1c:	e6f0      	b.n	8004a00 <jd_decomp+0xb60>
 8004c1e:	9a02      	ldr	r2, [sp, #8]
 8004c20:	0853      	lsrs	r3, r2, #1
 8004c22:	3320      	adds	r3, #32
 8004c24:	2a07      	cmp	r2, #7
 8004c26:	eb06 1303 	add.w	r3, r6, r3, lsl #4
 8004c2a:	f67f ae6b 	bls.w	8004904 <jd_decomp+0xa64>
 8004c2e:	3680      	adds	r6, #128	; 0x80
 8004c30:	e668      	b.n	8004904 <jd_decomp+0xa64>
 8004c32:	9b0a      	ldr	r3, [sp, #40]	; 0x28
 8004c34:	f8d6 408c 	ldr.w	r4, [r6, #140]	; 0x8c
 8004c38:	fb03 f30b 	mul.w	r3, r3, fp
 8004c3c:	eb04 0243 	add.w	r2, r4, r3, lsl #1
 8004c40:	f934 c013 	ldrsh.w	ip, [r4, r3, lsl #1]
 8004c44:	f9b2 e080 	ldrsh.w	lr, [r2, #128]	; 0x80
 8004c48:	9b04      	ldr	r3, [sp, #16]
 8004c4a:	f1ac 0c80 	sub.w	ip, ip, #128	; 0x80
 8004c4e:	f1ae 0e80 	sub.w	lr, lr, #128	; 0x80
 8004c52:	2b00      	cmp	r3, #0
 8004c54:	f43f aa00 	beq.w	8004058 <jd_decomp+0x1b8>
 8004c58:	9b03      	ldr	r3, [sp, #12]
 8004c5a:	2b00      	cmp	r3, #0
 8004c5c:	f43f a9fc 	beq.w	8004058 <jd_decomp+0x1b8>
 8004c60:	f04f 0a00 	mov.w	sl, #0
 8004c64:	9b0c      	ldr	r3, [sp, #48]	; 0x30
 8004c66:	f8dd 8004 	ldr.w	r8, [sp, #4]
 8004c6a:	f8cd a008 	str.w	sl, [sp, #8]
 8004c6e:	3480      	adds	r4, #128	; 0x80
 8004c70:	2500      	movs	r5, #0
 8004c72:	e022      	b.n	8004cba <jd_decomp+0xe1a>
 8004c74:	202d      	movs	r0, #45	; 0x2d
 8004c76:	fb00 f00e 	mul.w	r0, r0, lr
 8004c7a:	eb06 1060 	add.w	r0, r6, r0, asr #5
 8004c7e:	f380 0a08 	usat	sl, #8, r0
 8004c82:	2017      	movs	r0, #23
 8004c84:	fb00 f10e 	mul.w	r1, r0, lr
 8004c88:	200b      	movs	r0, #11
 8004c8a:	fb00 100c 	mla	r0, r0, ip, r1
 8004c8e:	eba6 1060 	sub.w	r0, r6, r0, asr #5
 8004c92:	f380 0908 	usat	r9, #8, r0
 8004c96:	2071      	movs	r0, #113	; 0x71
 8004c98:	fb00 f00c 	mul.w	r0, r0, ip
 8004c9c:	eb06 10a0 	add.w	r0, r6, r0, asr #6
 8004ca0:	f380 0208 	usat	r2, #8, r0
 8004ca4:	f883 a000 	strb.w	sl, [r3]
 8004ca8:	f883 9001 	strb.w	r9, [r3, #1]
 8004cac:	709a      	strb	r2, [r3, #2]
 8004cae:	3303      	adds	r3, #3
 8004cb0:	3508      	adds	r5, #8
 8004cb2:	45ab      	cmp	fp, r5
 8004cb4:	f104 0480 	add.w	r4, r4, #128	; 0x80
 8004cb8:	d916      	bls.n	8004ce8 <jd_decomp+0xe48>
 8004cba:	f898 2088 	ldrb.w	r2, [r8, #136]	; 0x88
 8004cbe:	f934 6c80 	ldrsh.w	r6, [r4, #-128]
 8004cc2:	2a00      	cmp	r2, #0
 8004cc4:	d0d6      	beq.n	8004c74 <jd_decomp+0xdd4>
 8004cc6:	2a01      	cmp	r2, #1
 8004cc8:	d01b      	beq.n	8004d02 <jd_decomp+0xe62>
 8004cca:	2a02      	cmp	r2, #2
 8004ccc:	d038      	beq.n	8004d40 <jd_decomp+0xea0>
 8004cce:	f3a6 00c5 	usat	r0, #5, r6, asr #3
 8004cd2:	ea40 1280 	orr.w	r2, r0, r0, lsl #6
 8004cd6:	ea42 22c0 	orr.w	r2, r2, r0, lsl #11
 8004cda:	3508      	adds	r5, #8
 8004cdc:	45ab      	cmp	fp, r5
 8004cde:	f823 2b02 	strh.w	r2, [r3], #2
 8004ce2:	f104 0480 	add.w	r4, r4, #128	; 0x80
 8004ce6:	d8e8      	bhi.n	8004cba <jd_decomp+0xe1a>
 8004ce8:	9a02      	ldr	r2, [sp, #8]
 8004cea:	990a      	ldr	r1, [sp, #40]	; 0x28
 8004cec:	3208      	adds	r2, #8
 8004cee:	4291      	cmp	r1, r2
 8004cf0:	9202      	str	r2, [sp, #8]
 8004cf2:	d928      	bls.n	8004d46 <jd_decomp+0xea6>
 8004cf4:	2a08      	cmp	r2, #8
 8004cf6:	f8d8 408c 	ldr.w	r4, [r8, #140]	; 0x8c
 8004cfa:	d1b8      	bne.n	8004c6e <jd_decomp+0xdce>
 8004cfc:	f504 7480 	add.w	r4, r4, #256	; 0x100
 8004d00:	e7b5      	b.n	8004c6e <jd_decomp+0xdce>
 8004d02:	222d      	movs	r2, #45	; 0x2d
 8004d04:	fb02 f20e 	mul.w	r2, r2, lr
 8004d08:	eb06 1262 	add.w	r2, r6, r2, asr #5
 8004d0c:	f3a2 02c5 	usat	r2, #5, r2, asr #3
 8004d10:	2117      	movs	r1, #23
 8004d12:	fb01 f10e 	mul.w	r1, r1, lr
 8004d16:	200b      	movs	r0, #11
 8004d18:	fb00 110c 	mla	r1, r0, ip, r1
 8004d1c:	eba6 1161 	sub.w	r1, r6, r1, asr #5
 8004d20:	f3a1 01c5 	usat	r1, #5, r1, asr #3
 8004d24:	2071      	movs	r0, #113	; 0x71
 8004d26:	fb00 f00c 	mul.w	r0, r0, ip
 8004d2a:	eb06 10a0 	add.w	r0, r6, r0, asr #6
 8004d2e:	f3a0 00c5 	usat	r0, #5, r0, asr #3
 8004d32:	ea40 1081 	orr.w	r0, r0, r1, lsl #6
 8004d36:	ea40 29c2 	orr.w	r9, r0, r2, lsl #11
 8004d3a:	f823 9b02 	strh.w	r9, [r3], #2
 8004d3e:	e7b7      	b.n	8004cb0 <jd_decomp+0xe10>
 8004d40:	f803 6b01 	strb.w	r6, [r3], #1
 8004d44:	e7b4      	b.n	8004cb0 <jd_decomp+0xe10>
 8004d46:	9b01      	ldr	r3, [sp, #4]
 8004d48:	f893 800d 	ldrb.w	r8, [r3, #13]
 8004d4c:	f7ff b984 	b.w	8004058 <jd_decomp+0x1b8>
 8004d50:	9b01      	ldr	r3, [sp, #4]
 8004d52:	f8dd b020 	ldr.w	fp, [sp, #32]
 8004d56:	f893 800d 	ldrb.w	r8, [r3, #13]
 8004d5a:	f7ff b97d 	b.w	8004058 <jd_decomp+0x1b8>
 8004d5e:	4690      	mov	r8, r2
 8004d60:	2602      	movs	r6, #2
 8004d62:	f44f 6280 	mov.w	r2, #1024	; 0x400
 8004d66:	4640      	mov	r0, r8
 8004d68:	b949      	cbnz	r1, 8004d7e <jd_decomp+0xede>
 8004d6a:	f8d8 5008 	ldr.w	r5, [r8, #8]
 8004d6e:	f8d8 3098 	ldr.w	r3, [r8, #152]	; 0x98
 8004d72:	4629      	mov	r1, r5
 8004d74:	4798      	blx	r3
 8004d76:	4601      	mov	r1, r0
 8004d78:	2800      	cmp	r0, #0
 8004d7a:	f43f ac86 	beq.w	800468a <jd_decomp+0x7ea>
 8004d7e:	f815 3b01 	ldrb.w	r3, [r5], #1
 8004d82:	2e01      	cmp	r6, #1
 8004d84:	ea43 2404 	orr.w	r4, r3, r4, lsl #8
 8004d88:	f101 31ff 	add.w	r1, r1, #4294967295
 8004d8c:	b2a4      	uxth	r4, r4
 8004d8e:	d110      	bne.n	8004db2 <jd_decomp+0xf12>
 8004d90:	9b01      	ldr	r3, [sp, #4]
 8004d92:	e9c3 1500 	strd	r1, r5, [r3]
 8004d96:	e566      	b.n	8004866 <jd_decomp+0x9c6>
 8004d98:	2001      	movs	r0, #1
 8004d9a:	fa00 f008 	lsl.w	r0, r0, r8
 8004d9e:	ea4f 0348 	mov.w	r3, r8, lsl #1
 8004da2:	9307      	str	r3, [sp, #28]
 8004da4:	ebab 0a00 	sub.w	sl, fp, r0
 8004da8:	f1be 0f03 	cmp.w	lr, #3
 8004dac:	d006      	beq.n	8004dbc <jd_decomp+0xf1c>
 8004dae:	2301      	movs	r3, #1
 8004db0:	e60a      	b.n	80049c8 <jd_decomp+0xb28>
 8004db2:	2601      	movs	r6, #1
 8004db4:	e7d5      	b.n	8004d62 <jd_decomp+0xec2>
 8004db6:	f1be 0f01 	cmp.w	lr, #1
 8004dba:	d1f5      	bne.n	8004da8 <jd_decomp+0xf08>
 8004dbc:	ea4f 0a4a 	mov.w	sl, sl, lsl #1
 8004dc0:	2302      	movs	r3, #2
 8004dc2:	e601      	b.n	80049c8 <jd_decomp+0xb28>
 8004dc4:	2005      	movs	r0, #5
 8004dc6:	f7ff babd 	b.w	8004344 <jd_decomp+0x4a4>
 8004dca:	4634      	mov	r4, r6
 8004dcc:	464e      	mov	r6, r9
 8004dce:	46d1      	mov	r9, sl
 8004dd0:	469a      	mov	sl, r3
 8004dd2:	e4f0      	b.n	80047b6 <jd_decomp+0x916>
 8004dd4:	9a01      	ldr	r2, [sp, #4]
 8004dd6:	1b9b      	subs	r3, r3, r6
 8004dd8:	7313      	strb	r3, [r2, #12]
 8004dda:	f003 031f 	and.w	r3, r3, #31
 8004dde:	fa24 f303 	lsr.w	r3, r4, r3
 8004de2:	6614      	str	r4, [r2, #96]	; 0x60
 8004de4:	4619      	mov	r1, r3
 8004de6:	e4f4      	b.n	80047d2 <jd_decomp+0x932>
 8004de8:	425b      	negs	r3, r3
 8004dea:	b2d8      	uxtb	r0, r3
 8004dec:	2800      	cmp	r0, #0
 8004dee:	f43f a8b3 	beq.w	8003f58 <jd_decomp+0xb8>
 8004df2:	f7ff baa7 	b.w	8004344 <jd_decomp+0x4a4>
 8004df6:	4264      	negs	r4, r4
 8004df8:	b2e0      	uxtb	r0, r4
 8004dfa:	2800      	cmp	r0, #0
 8004dfc:	f43f a8ac 	beq.w	8003f58 <jd_decomp+0xb8>
 8004e00:	f7ff baa0 	b.w	8004344 <jd_decomp+0x4a4>

08004e04 <USBD_CDC_EP0_RxReady>:
 8004e04:	f8d0 32d4 	ldr.w	r3, [r0, #724]	; 0x2d4
 8004e08:	eb00 0083 	add.w	r0, r0, r3, lsl #2
 8004e0c:	b510      	push	{r4, lr}
 8004e0e:	f8d0 42c0 	ldr.w	r4, [r0, #704]	; 0x2c0
 8004e12:	b184      	cbz	r4, 8004e36 <USBD_CDC_EP0_RxReady+0x32>
 8004e14:	f8d0 32c4 	ldr.w	r3, [r0, #708]	; 0x2c4
 8004e18:	b15b      	cbz	r3, 8004e32 <USBD_CDC_EP0_RxReady+0x2e>
 8004e1a:	f894 0200 	ldrb.w	r0, [r4, #512]	; 0x200
 8004e1e:	28ff      	cmp	r0, #255	; 0xff
 8004e20:	d007      	beq.n	8004e32 <USBD_CDC_EP0_RxReady+0x2e>
 8004e22:	689b      	ldr	r3, [r3, #8]
 8004e24:	f894 2201 	ldrb.w	r2, [r4, #513]	; 0x201
 8004e28:	4621      	mov	r1, r4
 8004e2a:	4798      	blx	r3
 8004e2c:	23ff      	movs	r3, #255	; 0xff
 8004e2e:	f884 3200 	strb.w	r3, [r4, #512]	; 0x200
 8004e32:	2000      	movs	r0, #0
 8004e34:	bd10      	pop	{r4, pc}
 8004e36:	2003      	movs	r0, #3
 8004e38:	bd10      	pop	{r4, pc}
 8004e3a:	bf00      	nop

08004e3c <USBD_CDC_GetDeviceQualifierDescriptor>:
 8004e3c:	230a      	movs	r3, #10
 8004e3e:	8003      	strh	r3, [r0, #0]
 8004e40:	4800      	ldr	r0, [pc, #0]	; (8004e44 <USBD_CDC_GetDeviceQualifierDescriptor+0x8>)
 8004e42:	4770      	bx	lr
 8004e44:	2000011c 	.word	0x2000011c

08004e48 <USBD_CDC_GetFSCfgDesc>:
 8004e48:	b570      	push	{r4, r5, r6, lr}
 8004e4a:	2182      	movs	r1, #130	; 0x82
 8004e4c:	4606      	mov	r6, r0
 8004e4e:	480f      	ldr	r0, [pc, #60]	; (8004e8c <USBD_CDC_GetFSCfgDesc+0x44>)
 8004e50:	f000 fbf6 	bl	8005640 <USBD_GetEpDesc>
 8004e54:	2101      	movs	r1, #1
 8004e56:	4605      	mov	r5, r0
 8004e58:	480c      	ldr	r0, [pc, #48]	; (8004e8c <USBD_CDC_GetFSCfgDesc+0x44>)
 8004e5a:	f000 fbf1 	bl	8005640 <USBD_GetEpDesc>
 8004e5e:	2181      	movs	r1, #129	; 0x81
 8004e60:	4604      	mov	r4, r0
 8004e62:	480a      	ldr	r0, [pc, #40]	; (8004e8c <USBD_CDC_GetFSCfgDesc+0x44>)
 8004e64:	f000 fbec 	bl	8005640 <USBD_GetEpDesc>
 8004e68:	b10d      	cbz	r5, 8004e6e <USBD_CDC_GetFSCfgDesc+0x26>
 8004e6a:	2210      	movs	r2, #16
 8004e6c:	71aa      	strb	r2, [r5, #6]
 8004e6e:	b11c      	cbz	r4, 8004e78 <USBD_CDC_GetFSCfgDesc+0x30>
 8004e70:	2200      	movs	r2, #0
 8004e72:	2140      	movs	r1, #64	; 0x40
 8004e74:	7121      	strb	r1, [r4, #4]
 8004e76:	7162      	strb	r2, [r4, #5]
 8004e78:	b118      	cbz	r0, 8004e82 <USBD_CDC_GetFSCfgDesc+0x3a>
 8004e7a:	2200      	movs	r2, #0
 8004e7c:	2140      	movs	r1, #64	; 0x40
 8004e7e:	7101      	strb	r1, [r0, #4]
 8004e80:	7142      	strb	r2, [r0, #5]
 8004e82:	2343      	movs	r3, #67	; 0x43
 8004e84:	4801      	ldr	r0, [pc, #4]	; (8004e8c <USBD_CDC_GetFSCfgDesc+0x44>)
 8004e86:	8033      	strh	r3, [r6, #0]
 8004e88:	bd70      	pop	{r4, r5, r6, pc}
 8004e8a:	bf00      	nop
 8004e8c:	200000d8 	.word	0x200000d8

08004e90 <USBD_CDC_GetHSCfgDesc>:
 8004e90:	b570      	push	{r4, r5, r6, lr}
 8004e92:	2182      	movs	r1, #130	; 0x82
 8004e94:	4606      	mov	r6, r0
 8004e96:	480f      	ldr	r0, [pc, #60]	; (8004ed4 <USBD_CDC_GetHSCfgDesc+0x44>)
 8004e98:	f000 fbd2 	bl	8005640 <USBD_GetEpDesc>
 8004e9c:	2101      	movs	r1, #1
 8004e9e:	4605      	mov	r5, r0
 8004ea0:	480c      	ldr	r0, [pc, #48]	; (8004ed4 <USBD_CDC_GetHSCfgDesc+0x44>)
 8004ea2:	f000 fbcd 	bl	8005640 <USBD_GetEpDesc>
 8004ea6:	2181      	movs	r1, #129	; 0x81
 8004ea8:	4604      	mov	r4, r0
 8004eaa:	480a      	ldr	r0, [pc, #40]	; (8004ed4 <USBD_CDC_GetHSCfgDesc+0x44>)
 8004eac:	f000 fbc8 	bl	8005640 <USBD_GetEpDesc>
 8004eb0:	b10d      	cbz	r5, 8004eb6 <USBD_CDC_GetHSCfgDesc+0x26>
 8004eb2:	2210      	movs	r2, #16
 8004eb4:	71aa      	strb	r2, [r5, #6]
 8004eb6:	b11c      	cbz	r4, 8004ec0 <USBD_CDC_GetHSCfgDesc+0x30>
 8004eb8:	2100      	movs	r1, #0
 8004eba:	2202      	movs	r2, #2
 8004ebc:	7121      	strb	r1, [r4, #4]
 8004ebe:	7162      	strb	r2, [r4, #5]
 8004ec0:	b118      	cbz	r0, 8004eca <USBD_CDC_GetHSCfgDesc+0x3a>
 8004ec2:	2100      	movs	r1, #0
 8004ec4:	2202      	movs	r2, #2
 8004ec6:	7101      	strb	r1, [r0, #4]
 8004ec8:	7142      	strb	r2, [r0, #5]
 8004eca:	2343      	movs	r3, #67	; 0x43
 8004ecc:	4801      	ldr	r0, [pc, #4]	; (8004ed4 <USBD_CDC_GetHSCfgDesc+0x44>)
 8004ece:	8033      	strh	r3, [r6, #0]
 8004ed0:	bd70      	pop	{r4, r5, r6, pc}
 8004ed2:	bf00      	nop
 8004ed4:	200000d8 	.word	0x200000d8

08004ed8 <USBD_CDC_DataOut>:
 8004ed8:	b538      	push	{r3, r4, r5, lr}
 8004eda:	f8d0 32d4 	ldr.w	r3, [r0, #724]	; 0x2d4
 8004ede:	33b0      	adds	r3, #176	; 0xb0
 8004ee0:	f850 5023 	ldr.w	r5, [r0, r3, lsl #2]
 8004ee4:	b195      	cbz	r5, 8004f0c <USBD_CDC_DataOut+0x34>
 8004ee6:	4604      	mov	r4, r0
 8004ee8:	f001 f9d6 	bl	8006298 <USBD_LL_GetRxDataSize>
 8004eec:	f8d4 32d4 	ldr.w	r3, [r4, #724]	; 0x2d4
 8004ef0:	f8c5 020c 	str.w	r0, [r5, #524]	; 0x20c
 8004ef4:	eb04 0483 	add.w	r4, r4, r3, lsl #2
 8004ef8:	f8d5 0204 	ldr.w	r0, [r5, #516]	; 0x204
 8004efc:	f8d4 32c4 	ldr.w	r3, [r4, #708]	; 0x2c4
 8004f00:	f505 7103 	add.w	r1, r5, #524	; 0x20c
 8004f04:	68db      	ldr	r3, [r3, #12]
 8004f06:	4798      	blx	r3
 8004f08:	2000      	movs	r0, #0
 8004f0a:	bd38      	pop	{r3, r4, r5, pc}
 8004f0c:	2003      	movs	r0, #3
 8004f0e:	bd38      	pop	{r3, r4, r5, pc}

08004f10 <USBD_CDC_DataIn>:
 8004f10:	b570      	push	{r4, r5, r6, lr}
 8004f12:	f8d0 42d4 	ldr.w	r4, [r0, #724]	; 0x2d4
 8004f16:	f8d0 62c8 	ldr.w	r6, [r0, #712]	; 0x2c8
 8004f1a:	eb00 0e84 	add.w	lr, r0, r4, lsl #2
 8004f1e:	f8de 52c0 	ldr.w	r5, [lr, #704]	; 0x2c0
 8004f22:	b365      	cbz	r5, 8004f7e <USBD_CDC_DataIn+0x6e>
 8004f24:	f001 040f 	and.w	r4, r1, #15
 8004f28:	eb04 0c84 	add.w	ip, r4, r4, lsl #2
 8004f2c:	eb00 0c8c 	add.w	ip, r0, ip, lsl #2
 8004f30:	460a      	mov	r2, r1
 8004f32:	f8dc 3018 	ldr.w	r3, [ip, #24]
 8004f36:	b96b      	cbnz	r3, 8004f54 <USBD_CDC_DataIn+0x44>
 8004f38:	f8de 32c4 	ldr.w	r3, [lr, #708]	; 0x2c4
 8004f3c:	691b      	ldr	r3, [r3, #16]
 8004f3e:	2400      	movs	r4, #0
 8004f40:	f8c5 4214 	str.w	r4, [r5, #532]	; 0x214
 8004f44:	b1cb      	cbz	r3, 8004f7a <USBD_CDC_DataIn+0x6a>
 8004f46:	f8d5 0208 	ldr.w	r0, [r5, #520]	; 0x208
 8004f4a:	f505 7104 	add.w	r1, r5, #528	; 0x210
 8004f4e:	4798      	blx	r3
 8004f50:	4620      	mov	r0, r4
 8004f52:	bd70      	pop	{r4, r5, r6, pc}
 8004f54:	eb04 04c4 	add.w	r4, r4, r4, lsl #3
 8004f58:	eb06 0684 	add.w	r6, r6, r4, lsl #2
 8004f5c:	6cb4      	ldr	r4, [r6, #72]	; 0x48
 8004f5e:	fbb3 f6f4 	udiv	r6, r3, r4
 8004f62:	fb04 3416 	mls	r4, r4, r6, r3
 8004f66:	2c00      	cmp	r4, #0
 8004f68:	d1e6      	bne.n	8004f38 <USBD_CDC_DataIn+0x28>
 8004f6a:	f8cc 4018 	str.w	r4, [ip, #24]
 8004f6e:	4623      	mov	r3, r4
 8004f70:	4622      	mov	r2, r4
 8004f72:	f001 f975 	bl	8006260 <USBD_LL_Transmit>
 8004f76:	4620      	mov	r0, r4
 8004f78:	bd70      	pop	{r4, r5, r6, pc}
 8004f7a:	4618      	mov	r0, r3
 8004f7c:	bd70      	pop	{r4, r5, r6, pc}
 8004f7e:	2003      	movs	r0, #3
 8004f80:	bd70      	pop	{r4, r5, r6, pc}
 8004f82:	bf00      	nop

08004f84 <USBD_CDC_Setup>:
 8004f84:	b5f0      	push	{r4, r5, r6, r7, lr}
 8004f86:	f8d0 32d4 	ldr.w	r3, [r0, #724]	; 0x2d4
 8004f8a:	eb00 0383 	add.w	r3, r0, r3, lsl #2
 8004f8e:	b083      	sub	sp, #12
 8004f90:	f8d3 72c0 	ldr.w	r7, [r3, #704]	; 0x2c0
 8004f94:	4604      	mov	r4, r0
 8004f96:	2000      	movs	r0, #0
 8004f98:	f88d 0005 	strb.w	r0, [sp, #5]
 8004f9c:	f8ad 0006 	strh.w	r0, [sp, #6]
 8004fa0:	2f00      	cmp	r7, #0
 8004fa2:	d068      	beq.n	8005076 <USBD_CDC_Setup+0xf2>
 8004fa4:	f891 c000 	ldrb.w	ip, [r1]
 8004fa8:	f01c 0660 	ands.w	r6, ip, #96	; 0x60
 8004fac:	460d      	mov	r5, r1
 8004fae:	d01f      	beq.n	8004ff0 <USBD_CDC_Setup+0x6c>
 8004fb0:	2e20      	cmp	r6, #32
 8004fb2:	d007      	beq.n	8004fc4 <USBD_CDC_Setup+0x40>
 8004fb4:	4629      	mov	r1, r5
 8004fb6:	4620      	mov	r0, r4
 8004fb8:	f000 fe02 	bl	8005bc0 <USBD_CtlError>
 8004fbc:	2603      	movs	r6, #3
 8004fbe:	4630      	mov	r0, r6
 8004fc0:	b003      	add	sp, #12
 8004fc2:	bdf0      	pop	{r4, r5, r6, r7, pc}
 8004fc4:	88ce      	ldrh	r6, [r1, #6]
 8004fc6:	b38e      	cbz	r6, 800502c <USBD_CDC_Setup+0xa8>
 8004fc8:	f01c 0f80 	tst.w	ip, #128	; 0x80
 8004fcc:	d157      	bne.n	800507e <USBD_CDC_Setup+0xfa>
 8004fce:	2e3f      	cmp	r6, #63	; 0x3f
 8004fd0:	784b      	ldrb	r3, [r1, #1]
 8004fd2:	f887 3200 	strb.w	r3, [r7, #512]	; 0x200
 8004fd6:	bf95      	itete	ls
 8004fd8:	4632      	movls	r2, r6
 8004fda:	2340      	movhi	r3, #64	; 0x40
 8004fdc:	b2d3      	uxtbls	r3, r2
 8004fde:	461a      	movhi	r2, r3
 8004fe0:	f887 3201 	strb.w	r3, [r7, #513]	; 0x201
 8004fe4:	4639      	mov	r1, r7
 8004fe6:	4620      	mov	r0, r4
 8004fe8:	f000 fe36 	bl	8005c58 <USBD_CtlPrepareRx>
 8004fec:	2600      	movs	r6, #0
 8004fee:	e7e6      	b.n	8004fbe <USBD_CDC_Setup+0x3a>
 8004ff0:	784f      	ldrb	r7, [r1, #1]
 8004ff2:	2f0b      	cmp	r7, #11
 8004ff4:	d8de      	bhi.n	8004fb4 <USBD_CDC_Setup+0x30>
 8004ff6:	a301      	add	r3, pc, #4	; (adr r3, 8004ffc <USBD_CDC_Setup+0x78>)
 8004ff8:	f853 f027 	ldr.w	pc, [r3, r7, lsl #2]
 8004ffc:	0800505f 	.word	0x0800505f
 8005000:	08004fbf 	.word	0x08004fbf
 8005004:	08004fb5 	.word	0x08004fb5
 8005008:	08004fb5 	.word	0x08004fb5
 800500c:	08004fb5 	.word	0x08004fb5
 8005010:	08004fb5 	.word	0x08004fb5
 8005014:	08004fb5 	.word	0x08004fb5
 8005018:	08004fb5 	.word	0x08004fb5
 800501c:	08004fb5 	.word	0x08004fb5
 8005020:	08004fb5 	.word	0x08004fb5
 8005024:	08005049 	.word	0x08005049
 8005028:	0800503f 	.word	0x0800503f
 800502c:	f8d3 32c4 	ldr.w	r3, [r3, #708]	; 0x2c4
 8005030:	7848      	ldrb	r0, [r1, #1]
 8005032:	689b      	ldr	r3, [r3, #8]
 8005034:	4632      	mov	r2, r6
 8005036:	4798      	blx	r3
 8005038:	4630      	mov	r0, r6
 800503a:	b003      	add	sp, #12
 800503c:	bdf0      	pop	{r4, r5, r6, r7, pc}
 800503e:	f894 329c 	ldrb.w	r3, [r4, #668]	; 0x29c
 8005042:	2b03      	cmp	r3, #3
 8005044:	d0bb      	beq.n	8004fbe <USBD_CDC_Setup+0x3a>
 8005046:	e7b5      	b.n	8004fb4 <USBD_CDC_Setup+0x30>
 8005048:	f894 329c 	ldrb.w	r3, [r4, #668]	; 0x29c
 800504c:	2b03      	cmp	r3, #3
 800504e:	d1b1      	bne.n	8004fb4 <USBD_CDC_Setup+0x30>
 8005050:	2201      	movs	r2, #1
 8005052:	f10d 0105 	add.w	r1, sp, #5
 8005056:	4620      	mov	r0, r4
 8005058:	f000 fde8 	bl	8005c2c <USBD_CtlSendData>
 800505c:	e7af      	b.n	8004fbe <USBD_CDC_Setup+0x3a>
 800505e:	f894 329c 	ldrb.w	r3, [r4, #668]	; 0x29c
 8005062:	2b03      	cmp	r3, #3
 8005064:	d1a6      	bne.n	8004fb4 <USBD_CDC_Setup+0x30>
 8005066:	2202      	movs	r2, #2
 8005068:	f10d 0106 	add.w	r1, sp, #6
 800506c:	4620      	mov	r0, r4
 800506e:	f000 fddd 	bl	8005c2c <USBD_CtlSendData>
 8005072:	463e      	mov	r6, r7
 8005074:	e7a3      	b.n	8004fbe <USBD_CDC_Setup+0x3a>
 8005076:	2603      	movs	r6, #3
 8005078:	4630      	mov	r0, r6
 800507a:	b003      	add	sp, #12
 800507c:	bdf0      	pop	{r4, r5, r6, r7, pc}
 800507e:	f8d3 32c4 	ldr.w	r3, [r3, #708]	; 0x2c4
 8005082:	4632      	mov	r2, r6
 8005084:	4639      	mov	r1, r7
 8005086:	689b      	ldr	r3, [r3, #8]
 8005088:	4606      	mov	r6, r0
 800508a:	7868      	ldrb	r0, [r5, #1]
 800508c:	4798      	blx	r3
 800508e:	88ea      	ldrh	r2, [r5, #6]
 8005090:	2a07      	cmp	r2, #7
 8005092:	4639      	mov	r1, r7
 8005094:	bf28      	it	cs
 8005096:	2207      	movcs	r2, #7
 8005098:	4620      	mov	r0, r4
 800509a:	f000 fdc7 	bl	8005c2c <USBD_CtlSendData>
 800509e:	e78e      	b.n	8004fbe <USBD_CDC_Setup+0x3a>

080050a0 <USBD_CDC_DeInit>:
 80050a0:	b538      	push	{r3, r4, r5, lr}
 80050a2:	4604      	mov	r4, r0
 80050a4:	2500      	movs	r5, #0
 80050a6:	2181      	movs	r1, #129	; 0x81
 80050a8:	f001 f88e 	bl	80061c8 <USBD_LL_CloseEP>
 80050ac:	2101      	movs	r1, #1
 80050ae:	8725      	strh	r5, [r4, #56]	; 0x38
 80050b0:	4620      	mov	r0, r4
 80050b2:	f001 f889 	bl	80061c8 <USBD_LL_CloseEP>
 80050b6:	f8a4 5178 	strh.w	r5, [r4, #376]	; 0x178
 80050ba:	2182      	movs	r1, #130	; 0x82
 80050bc:	4620      	mov	r0, r4
 80050be:	f001 f883 	bl	80061c8 <USBD_LL_CloseEP>
 80050c2:	f8d4 32d4 	ldr.w	r3, [r4, #724]	; 0x2d4
 80050c6:	64e5      	str	r5, [r4, #76]	; 0x4c
 80050c8:	eb04 0383 	add.w	r3, r4, r3, lsl #2
 80050cc:	f8d3 22c0 	ldr.w	r2, [r3, #704]	; 0x2c0
 80050d0:	b18a      	cbz	r2, 80050f6 <USBD_CDC_DeInit+0x56>
 80050d2:	f8d3 32c4 	ldr.w	r3, [r3, #708]	; 0x2c4
 80050d6:	685b      	ldr	r3, [r3, #4]
 80050d8:	4798      	blx	r3
 80050da:	f8d4 32d4 	ldr.w	r3, [r4, #724]	; 0x2d4
 80050de:	33b0      	adds	r3, #176	; 0xb0
 80050e0:	f854 0023 	ldr.w	r0, [r4, r3, lsl #2]
 80050e4:	f001 f8e0 	bl	80062a8 <USBD_static_free>
 80050e8:	f8d4 32d4 	ldr.w	r3, [r4, #724]	; 0x2d4
 80050ec:	33b0      	adds	r3, #176	; 0xb0
 80050ee:	f844 5023 	str.w	r5, [r4, r3, lsl #2]
 80050f2:	f8c4 52bc 	str.w	r5, [r4, #700]	; 0x2bc
 80050f6:	2000      	movs	r0, #0
 80050f8:	bd38      	pop	{r3, r4, r5, pc}
 80050fa:	bf00      	nop

080050fc <USBD_CDC_Init>:
 80050fc:	e92d 41f0 	stmdb	sp!, {r4, r5, r6, r7, r8, lr}
 8005100:	4604      	mov	r4, r0
 8005102:	f44f 7007 	mov.w	r0, #540	; 0x21c
 8005106:	f001 f8cb 	bl	80062a0 <USBD_static_malloc>
 800510a:	4605      	mov	r5, r0
 800510c:	2800      	cmp	r0, #0
 800510e:	d061      	beq.n	80051d4 <USBD_CDC_Init+0xd8>
 8005110:	f44f 7207 	mov.w	r2, #540	; 0x21c
 8005114:	2100      	movs	r1, #0
 8005116:	f001 f90d 	bl	8006334 <memset>
 800511a:	f8d4 32d4 	ldr.w	r3, [r4, #724]	; 0x2d4
 800511e:	33b0      	adds	r3, #176	; 0xb0
 8005120:	f844 5023 	str.w	r5, [r4, r3, lsl #2]
 8005124:	7c23      	ldrb	r3, [r4, #16]
 8005126:	f8c4 52bc 	str.w	r5, [r4, #700]	; 0x2bc
 800512a:	b3d3      	cbz	r3, 80051a2 <USBD_CDC_Init+0xa6>
 800512c:	2340      	movs	r3, #64	; 0x40
 800512e:	2202      	movs	r2, #2
 8005130:	2181      	movs	r1, #129	; 0x81
 8005132:	4620      	mov	r0, r4
 8005134:	f001 f838 	bl	80061a8 <USBD_LL_OpenEP>
 8005138:	2101      	movs	r1, #1
 800513a:	8721      	strh	r1, [r4, #56]	; 0x38
 800513c:	2340      	movs	r3, #64	; 0x40
 800513e:	2202      	movs	r2, #2
 8005140:	4620      	mov	r0, r4
 8005142:	f001 f831 	bl	80061a8 <USBD_LL_OpenEP>
 8005146:	2701      	movs	r7, #1
 8005148:	2210      	movs	r2, #16
 800514a:	2308      	movs	r3, #8
 800514c:	f8a4 204e 	strh.w	r2, [r4, #78]	; 0x4e
 8005150:	2182      	movs	r1, #130	; 0x82
 8005152:	2203      	movs	r2, #3
 8005154:	f8a4 7178 	strh.w	r7, [r4, #376]	; 0x178
 8005158:	4620      	mov	r0, r4
 800515a:	f001 f825 	bl	80061a8 <USBD_LL_OpenEP>
 800515e:	f8d4 32d4 	ldr.w	r3, [r4, #724]	; 0x2d4
 8005162:	f8a4 704c 	strh.w	r7, [r4, #76]	; 0x4c
 8005166:	eb04 0383 	add.w	r3, r4, r3, lsl #2
 800516a:	2600      	movs	r6, #0
 800516c:	f8d3 32c4 	ldr.w	r3, [r3, #708]	; 0x2c4
 8005170:	f8c5 6204 	str.w	r6, [r5, #516]	; 0x204
 8005174:	681b      	ldr	r3, [r3, #0]
 8005176:	4798      	blx	r3
 8005178:	f8d5 2204 	ldr.w	r2, [r5, #516]	; 0x204
 800517c:	f8c5 6214 	str.w	r6, [r5, #532]	; 0x214
 8005180:	f8c5 6218 	str.w	r6, [r5, #536]	; 0x218
 8005184:	b382      	cbz	r2, 80051e8 <USBD_CDC_Init+0xec>
 8005186:	f894 8010 	ldrb.w	r8, [r4, #16]
 800518a:	f1b8 0f00 	cmp.w	r8, #0
 800518e:	d118      	bne.n	80051c2 <USBD_CDC_Init+0xc6>
 8005190:	f44f 7300 	mov.w	r3, #512	; 0x200
 8005194:	4639      	mov	r1, r7
 8005196:	4620      	mov	r0, r4
 8005198:	f001 f870 	bl	800627c <USBD_LL_PrepareReceive>
 800519c:	4640      	mov	r0, r8
 800519e:	e8bd 81f0 	ldmia.w	sp!, {r4, r5, r6, r7, r8, pc}
 80051a2:	f44f 7300 	mov.w	r3, #512	; 0x200
 80051a6:	2202      	movs	r2, #2
 80051a8:	2181      	movs	r1, #129	; 0x81
 80051aa:	4620      	mov	r0, r4
 80051ac:	f000 fffc 	bl	80061a8 <USBD_LL_OpenEP>
 80051b0:	2101      	movs	r1, #1
 80051b2:	8721      	strh	r1, [r4, #56]	; 0x38
 80051b4:	f44f 7300 	mov.w	r3, #512	; 0x200
 80051b8:	2202      	movs	r2, #2
 80051ba:	4620      	mov	r0, r4
 80051bc:	f000 fff4 	bl	80061a8 <USBD_LL_OpenEP>
 80051c0:	e7c1      	b.n	8005146 <USBD_CDC_Init+0x4a>
 80051c2:	2340      	movs	r3, #64	; 0x40
 80051c4:	4639      	mov	r1, r7
 80051c6:	4620      	mov	r0, r4
 80051c8:	46b0      	mov	r8, r6
 80051ca:	f001 f857 	bl	800627c <USBD_LL_PrepareReceive>
 80051ce:	4640      	mov	r0, r8
 80051d0:	e8bd 81f0 	ldmia.w	sp!, {r4, r5, r6, r7, r8, pc}
 80051d4:	f8d4 32d4 	ldr.w	r3, [r4, #724]	; 0x2d4
 80051d8:	33b0      	adds	r3, #176	; 0xb0
 80051da:	f04f 0802 	mov.w	r8, #2
 80051de:	f844 0023 	str.w	r0, [r4, r3, lsl #2]
 80051e2:	4640      	mov	r0, r8
 80051e4:	e8bd 81f0 	ldmia.w	sp!, {r4, r5, r6, r7, r8, pc}
 80051e8:	f04f 0802 	mov.w	r8, #2
 80051ec:	e7d6      	b.n	800519c <USBD_CDC_Init+0xa0>
 80051ee:	bf00      	nop

080051f0 <USBD_CDC_GetOtherSpeedCfgDesc>:
 80051f0:	b570      	push	{r4, r5, r6, lr}
 80051f2:	2182      	movs	r1, #130	; 0x82
 80051f4:	4606      	mov	r6, r0
 80051f6:	480f      	ldr	r0, [pc, #60]	; (8005234 <USBD_CDC_GetOtherSpeedCfgDesc+0x44>)
 80051f8:	f000 fa22 	bl	8005640 <USBD_GetEpDesc>
 80051fc:	2101      	movs	r1, #1
 80051fe:	4605      	mov	r5, r0
 8005200:	480c      	ldr	r0, [pc, #48]	; (8005234 <USBD_CDC_GetOtherSpeedCfgDesc+0x44>)
 8005202:	f000 fa1d 	bl	8005640 <USBD_GetEpDesc>
 8005206:	2181      	movs	r1, #129	; 0x81
 8005208:	4604      	mov	r4, r0
 800520a:	480a      	ldr	r0, [pc, #40]	; (8005234 <USBD_CDC_GetOtherSpeedCfgDesc+0x44>)
 800520c:	f000 fa18 	bl	8005640 <USBD_GetEpDesc>
 8005210:	b10d      	cbz	r5, 8005216 <USBD_CDC_GetOtherSpeedCfgDesc+0x26>
 8005212:	2210      	movs	r2, #16
 8005214:	71aa      	strb	r2, [r5, #6]
 8005216:	b11c      	cbz	r4, 8005220 <USBD_CDC_GetOtherSpeedCfgDesc+0x30>
 8005218:	2200      	movs	r2, #0
 800521a:	2140      	movs	r1, #64	; 0x40
 800521c:	7121      	strb	r1, [r4, #4]
 800521e:	7162      	strb	r2, [r4, #5]
 8005220:	b118      	cbz	r0, 800522a <USBD_CDC_GetOtherSpeedCfgDesc+0x3a>
 8005222:	2200      	movs	r2, #0
 8005224:	2140      	movs	r1, #64	; 0x40
 8005226:	7101      	strb	r1, [r0, #4]
 8005228:	7142      	strb	r2, [r0, #5]
 800522a:	2343      	movs	r3, #67	; 0x43
 800522c:	4801      	ldr	r0, [pc, #4]	; (8005234 <USBD_CDC_GetOtherSpeedCfgDesc+0x44>)
 800522e:	8033      	strh	r3, [r6, #0]
 8005230:	bd70      	pop	{r4, r5, r6, pc}
 8005232:	bf00      	nop
 8005234:	200000d8 	.word	0x200000d8

08005238 <USBD_CDC_RegisterInterface>:
 8005238:	4603      	mov	r3, r0
 800523a:	b139      	cbz	r1, 800524c <USBD_CDC_RegisterInterface+0x14>
 800523c:	f8d0 22d4 	ldr.w	r2, [r0, #724]	; 0x2d4
 8005240:	eb03 0382 	add.w	r3, r3, r2, lsl #2
 8005244:	2000      	movs	r0, #0
 8005246:	f8c3 12c4 	str.w	r1, [r3, #708]	; 0x2c4
 800524a:	4770      	bx	lr
 800524c:	2003      	movs	r0, #3
 800524e:	4770      	bx	lr

08005250 <USBD_CDC_SetTxBuffer>:
 8005250:	f8d0 32d4 	ldr.w	r3, [r0, #724]	; 0x2d4
 8005254:	33b0      	adds	r3, #176	; 0xb0
 8005256:	f850 3023 	ldr.w	r3, [r0, r3, lsl #2]
 800525a:	b12b      	cbz	r3, 8005268 <USBD_CDC_SetTxBuffer+0x18>
 800525c:	f8c3 1208 	str.w	r1, [r3, #520]	; 0x208
 8005260:	f8c3 2210 	str.w	r2, [r3, #528]	; 0x210
 8005264:	2000      	movs	r0, #0
 8005266:	4770      	bx	lr
 8005268:	2003      	movs	r0, #3
 800526a:	4770      	bx	lr

0800526c <USBD_CDC_SetRxBuffer>:
 800526c:	f8d0 32d4 	ldr.w	r3, [r0, #724]	; 0x2d4
 8005270:	33b0      	adds	r3, #176	; 0xb0
 8005272:	f850 3023 	ldr.w	r3, [r0, r3, lsl #2]
 8005276:	b11b      	cbz	r3, 8005280 <USBD_CDC_SetRxBuffer+0x14>
 8005278:	f8c3 1204 	str.w	r1, [r3, #516]	; 0x204
 800527c:	2000      	movs	r0, #0
 800527e:	4770      	bx	lr
 8005280:	2003      	movs	r0, #3
 8005282:	4770      	bx	lr

08005284 <USBD_CDC_TransmitPacket>:
 8005284:	f8d0 32d4 	ldr.w	r3, [r0, #724]	; 0x2d4
 8005288:	33b0      	adds	r3, #176	; 0xb0
 800528a:	f850 2023 	ldr.w	r2, [r0, r3, lsl #2]
 800528e:	b192      	cbz	r2, 80052b6 <USBD_CDC_TransmitPacket+0x32>
 8005290:	b510      	push	{r4, lr}
 8005292:	f8d2 4214 	ldr.w	r4, [r2, #532]	; 0x214
 8005296:	b10c      	cbz	r4, 800529c <USBD_CDC_TransmitPacket+0x18>
 8005298:	2001      	movs	r0, #1
 800529a:	bd10      	pop	{r4, pc}
 800529c:	2301      	movs	r3, #1
 800529e:	f8c2 3214 	str.w	r3, [r2, #532]	; 0x214
 80052a2:	f8d2 3210 	ldr.w	r3, [r2, #528]	; 0x210
 80052a6:	f8d2 2208 	ldr.w	r2, [r2, #520]	; 0x208
 80052aa:	62c3      	str	r3, [r0, #44]	; 0x2c
 80052ac:	2181      	movs	r1, #129	; 0x81
 80052ae:	f000 ffd7 	bl	8006260 <USBD_LL_Transmit>
 80052b2:	4620      	mov	r0, r4
 80052b4:	bd10      	pop	{r4, pc}
 80052b6:	2003      	movs	r0, #3
 80052b8:	4770      	bx	lr
 80052ba:	bf00      	nop

080052bc <USBD_CDC_ReceivePacket>:
 80052bc:	f8d0 22d4 	ldr.w	r2, [r0, #724]	; 0x2d4
 80052c0:	32b0      	adds	r2, #176	; 0xb0
 80052c2:	b510      	push	{r4, lr}
 80052c4:	f850 2022 	ldr.w	r2, [r0, r2, lsl #2]
 80052c8:	b18a      	cbz	r2, 80052ee <USBD_CDC_ReceivePacket+0x32>
 80052ca:	7c04      	ldrb	r4, [r0, #16]
 80052cc:	f8d2 2204 	ldr.w	r2, [r2, #516]	; 0x204
 80052d0:	b134      	cbz	r4, 80052e0 <USBD_CDC_ReceivePacket+0x24>
 80052d2:	2340      	movs	r3, #64	; 0x40
 80052d4:	2101      	movs	r1, #1
 80052d6:	2400      	movs	r4, #0
 80052d8:	f000 ffd0 	bl	800627c <USBD_LL_PrepareReceive>
 80052dc:	4620      	mov	r0, r4
 80052de:	bd10      	pop	{r4, pc}
 80052e0:	f44f 7300 	mov.w	r3, #512	; 0x200
 80052e4:	2101      	movs	r1, #1
 80052e6:	f000 ffc9 	bl	800627c <USBD_LL_PrepareReceive>
 80052ea:	4620      	mov	r0, r4
 80052ec:	bd10      	pop	{r4, pc}
 80052ee:	2403      	movs	r4, #3
 80052f0:	4620      	mov	r0, r4
 80052f2:	bd10      	pop	{r4, pc}

080052f4 <USBD_Init>:
 80052f4:	b178      	cbz	r0, 8005316 <USBD_Init+0x22>
 80052f6:	2300      	movs	r3, #0
 80052f8:	f8c0 32b8 	str.w	r3, [r0, #696]	; 0x2b8
 80052fc:	f8c0 32c4 	str.w	r3, [r0, #708]	; 0x2c4
 8005300:	f8c0 32d0 	str.w	r3, [r0, #720]	; 0x2d0
 8005304:	b109      	cbz	r1, 800530a <USBD_Init+0x16>
 8005306:	f8c0 12b4 	str.w	r1, [r0, #692]	; 0x2b4
 800530a:	2301      	movs	r3, #1
 800530c:	f880 329c 	strb.w	r3, [r0, #668]	; 0x29c
 8005310:	7002      	strb	r2, [r0, #0]
 8005312:	f000 befd 	b.w	8006110 <USBD_LL_Init>
 8005316:	2003      	movs	r0, #3
 8005318:	4770      	bx	lr
 800531a:	bf00      	nop

0800531c <USBD_RegisterClass>:
 800531c:	b510      	push	{r4, lr}
 800531e:	b082      	sub	sp, #8
 8005320:	2300      	movs	r3, #0
 8005322:	f8ad 3006 	strh.w	r3, [sp, #6]
 8005326:	b189      	cbz	r1, 800534c <USBD_RegisterClass+0x30>
 8005328:	6acb      	ldr	r3, [r1, #44]	; 0x2c
 800532a:	f8c0 12b8 	str.w	r1, [r0, #696]	; 0x2b8
 800532e:	4604      	mov	r4, r0
 8005330:	b123      	cbz	r3, 800533c <USBD_RegisterClass+0x20>
 8005332:	f10d 0006 	add.w	r0, sp, #6
 8005336:	4798      	blx	r3
 8005338:	f8c4 02d0 	str.w	r0, [r4, #720]	; 0x2d0
 800533c:	f8d4 32d8 	ldr.w	r3, [r4, #728]	; 0x2d8
 8005340:	2000      	movs	r0, #0
 8005342:	3301      	adds	r3, #1
 8005344:	f8c4 32d8 	str.w	r3, [r4, #728]	; 0x2d8
 8005348:	b002      	add	sp, #8
 800534a:	bd10      	pop	{r4, pc}
 800534c:	2003      	movs	r0, #3
 800534e:	b002      	add	sp, #8
 8005350:	bd10      	pop	{r4, pc}
 8005352:	bf00      	nop

08005354 <USBD_Start>:
 8005354:	f000 bf1a 	b.w	800618c <USBD_LL_Start>

08005358 <USBD_SetClassConfig>:
 8005358:	f8d0 32b8 	ldr.w	r3, [r0, #696]	; 0x2b8
 800535c:	b10b      	cbz	r3, 8005362 <USBD_SetClassConfig+0xa>
 800535e:	681b      	ldr	r3, [r3, #0]
 8005360:	4718      	bx	r3
 8005362:	4618      	mov	r0, r3
 8005364:	4770      	bx	lr
 8005366:	bf00      	nop

08005368 <USBD_ClrClassConfig>:
 8005368:	b508      	push	{r3, lr}
 800536a:	f8d0 32b8 	ldr.w	r3, [r0, #696]	; 0x2b8
 800536e:	685b      	ldr	r3, [r3, #4]
 8005370:	4798      	blx	r3
 8005372:	2800      	cmp	r0, #0
 8005374:	bf18      	it	ne
 8005376:	2003      	movne	r0, #3
 8005378:	bd08      	pop	{r3, pc}
 800537a:	bf00      	nop

0800537c <USBD_LL_SetupStage>:
 800537c:	b538      	push	{r3, r4, r5, lr}
 800537e:	4604      	mov	r4, r0
 8005380:	f200 25aa 	addw	r5, r0, #682	; 0x2aa
 8005384:	4628      	mov	r0, r5
 8005386:	f000 fc0f 	bl	8005ba8 <USBD_ParseSetupRequest>
 800538a:	f894 12aa 	ldrb.w	r1, [r4, #682]	; 0x2aa
 800538e:	f8b4 22b0 	ldrh.w	r2, [r4, #688]	; 0x2b0
 8005392:	f8c4 2298 	str.w	r2, [r4, #664]	; 0x298
 8005396:	2301      	movs	r3, #1
 8005398:	f8c4 3294 	str.w	r3, [r4, #660]	; 0x294
 800539c:	f001 031f 	and.w	r3, r1, #31
 80053a0:	2b01      	cmp	r3, #1
 80053a2:	d009      	beq.n	80053b8 <USBD_LL_SetupStage+0x3c>
 80053a4:	2b02      	cmp	r3, #2
 80053a6:	d013      	beq.n	80053d0 <USBD_LL_SetupStage+0x54>
 80053a8:	b163      	cbz	r3, 80053c4 <USBD_LL_SetupStage+0x48>
 80053aa:	4620      	mov	r0, r4
 80053ac:	f001 0180 	and.w	r1, r1, #128	; 0x80
 80053b0:	e8bd 4038 	ldmia.w	sp!, {r3, r4, r5, lr}
 80053b4:	f000 bf16 	b.w	80061e4 <USBD_LL_StallEP>
 80053b8:	4629      	mov	r1, r5
 80053ba:	4620      	mov	r0, r4
 80053bc:	e8bd 4038 	ldmia.w	sp!, {r3, r4, r5, lr}
 80053c0:	f000 bb0e 	b.w	80059e0 <USBD_StdItfReq>
 80053c4:	4629      	mov	r1, r5
 80053c6:	4620      	mov	r0, r4
 80053c8:	e8bd 4038 	ldmia.w	sp!, {r3, r4, r5, lr}
 80053cc:	f000 b94e 	b.w	800566c <USBD_StdDevReq>
 80053d0:	4629      	mov	r1, r5
 80053d2:	4620      	mov	r0, r4
 80053d4:	e8bd 4038 	ldmia.w	sp!, {r3, r4, r5, lr}
 80053d8:	f000 bb3c 	b.w	8005a54 <USBD_StdEPReq>

080053dc <USBD_LL_DataOutStage>:
 80053dc:	b510      	push	{r4, lr}
 80053de:	4604      	mov	r4, r0
 80053e0:	b931      	cbnz	r1, 80053f0 <USBD_LL_DataOutStage+0x14>
 80053e2:	4694      	mov	ip, r2
 80053e4:	f8d0 2294 	ldr.w	r2, [r0, #660]	; 0x294
 80053e8:	2a03      	cmp	r2, #3
 80053ea:	d010      	beq.n	800540e <USBD_LL_DataOutStage+0x32>
 80053ec:	2000      	movs	r0, #0
 80053ee:	bd10      	pop	{r4, pc}
 80053f0:	f890 329c 	ldrb.w	r3, [r0, #668]	; 0x29c
 80053f4:	2b03      	cmp	r3, #3
 80053f6:	d1f9      	bne.n	80053ec <USBD_LL_DataOutStage+0x10>
 80053f8:	f8d0 32b8 	ldr.w	r3, [r0, #696]	; 0x2b8
 80053fc:	699b      	ldr	r3, [r3, #24]
 80053fe:	2b00      	cmp	r3, #0
 8005400:	d0f4      	beq.n	80053ec <USBD_LL_DataOutStage+0x10>
 8005402:	2200      	movs	r2, #0
 8005404:	e8bd 4010 	ldmia.w	sp!, {r4, lr}
 8005408:	f8c0 22d4 	str.w	r2, [r0, #724]	; 0x2d4
 800540c:	4718      	bx	r3
 800540e:	460b      	mov	r3, r1
 8005410:	e9d0 1257 	ldrd	r1, r2, [r0, #348]	; 0x15c
 8005414:	4291      	cmp	r1, r2
 8005416:	d808      	bhi.n	800542a <USBD_LL_DataOutStage+0x4e>
 8005418:	f890 229c 	ldrb.w	r2, [r0, #668]	; 0x29c
 800541c:	2a03      	cmp	r2, #3
 800541e:	d00e      	beq.n	800543e <USBD_LL_DataOutStage+0x62>
 8005420:	4620      	mov	r0, r4
 8005422:	f000 fc2f 	bl	8005c84 <USBD_CtlSendStatus>
 8005426:	2000      	movs	r0, #0
 8005428:	bd10      	pop	{r4, pc}
 800542a:	1a89      	subs	r1, r1, r2
 800542c:	428a      	cmp	r2, r1
 800542e:	bf28      	it	cs
 8005430:	460a      	movcs	r2, r1
 8005432:	f8c0 115c 	str.w	r1, [r0, #348]	; 0x15c
 8005436:	4661      	mov	r1, ip
 8005438:	f000 fc1c 	bl	8005c74 <USBD_CtlContinueRx>
 800543c:	e7d6      	b.n	80053ec <USBD_LL_DataOutStage+0x10>
 800543e:	f8d0 22b8 	ldr.w	r2, [r0, #696]	; 0x2b8
 8005442:	6912      	ldr	r2, [r2, #16]
 8005444:	2a00      	cmp	r2, #0
 8005446:	d0eb      	beq.n	8005420 <USBD_LL_DataOutStage+0x44>
 8005448:	f8c0 32d4 	str.w	r3, [r0, #724]	; 0x2d4
 800544c:	4790      	blx	r2
 800544e:	e7e7      	b.n	8005420 <USBD_LL_DataOutStage+0x44>

08005450 <USBD_LL_DataInStage>:
 8005450:	b570      	push	{r4, r5, r6, lr}
 8005452:	4604      	mov	r4, r0
 8005454:	b961      	cbnz	r1, 8005470 <USBD_LL_DataInStage+0x20>
 8005456:	4613      	mov	r3, r2
 8005458:	f8d0 2294 	ldr.w	r2, [r0, #660]	; 0x294
 800545c:	2a02      	cmp	r2, #2
 800545e:	d016      	beq.n	800548e <USBD_LL_DataInStage+0x3e>
 8005460:	f894 32a0 	ldrb.w	r3, [r4, #672]	; 0x2a0
 8005464:	b113      	cbz	r3, 800546c <USBD_LL_DataInStage+0x1c>
 8005466:	2300      	movs	r3, #0
 8005468:	f884 32a0 	strb.w	r3, [r4, #672]	; 0x2a0
 800546c:	2000      	movs	r0, #0
 800546e:	bd70      	pop	{r4, r5, r6, pc}
 8005470:	f890 329c 	ldrb.w	r3, [r0, #668]	; 0x29c
 8005474:	2b03      	cmp	r3, #3
 8005476:	d1f9      	bne.n	800546c <USBD_LL_DataInStage+0x1c>
 8005478:	f8d0 32b8 	ldr.w	r3, [r0, #696]	; 0x2b8
 800547c:	695b      	ldr	r3, [r3, #20]
 800547e:	2b00      	cmp	r3, #0
 8005480:	d0f4      	beq.n	800546c <USBD_LL_DataInStage+0x1c>
 8005482:	2200      	movs	r2, #0
 8005484:	e8bd 4070 	ldmia.w	sp!, {r4, r5, r6, lr}
 8005488:	f8c0 22d4 	str.w	r2, [r0, #724]	; 0x2d4
 800548c:	4718      	bx	r3
 800548e:	e9d0 2607 	ldrd	r2, r6, [r0, #28]
 8005492:	42b2      	cmp	r2, r6
 8005494:	460d      	mov	r5, r1
 8005496:	d810      	bhi.n	80054ba <USBD_LL_DataInStage+0x6a>
 8005498:	d01b      	beq.n	80054d2 <USBD_LL_DataInStage+0x82>
 800549a:	f894 329c 	ldrb.w	r3, [r4, #668]	; 0x29c
 800549e:	2b03      	cmp	r3, #3
 80054a0:	d024      	beq.n	80054ec <USBD_LL_DataInStage+0x9c>
 80054a2:	2180      	movs	r1, #128	; 0x80
 80054a4:	4620      	mov	r0, r4
 80054a6:	f000 fe9d 	bl	80061e4 <USBD_LL_StallEP>
 80054aa:	4620      	mov	r0, r4
 80054ac:	f000 fbf6 	bl	8005c9c <USBD_CtlReceiveStatus>
 80054b0:	f894 32a0 	ldrb.w	r3, [r4, #672]	; 0x2a0
 80054b4:	2b00      	cmp	r3, #0
 80054b6:	d0d9      	beq.n	800546c <USBD_LL_DataInStage+0x1c>
 80054b8:	e7d5      	b.n	8005466 <USBD_LL_DataInStage+0x16>
 80054ba:	1b92      	subs	r2, r2, r6
 80054bc:	61c2      	str	r2, [r0, #28]
 80054be:	4619      	mov	r1, r3
 80054c0:	f000 fbc2 	bl	8005c48 <USBD_CtlContinueSendData>
 80054c4:	462b      	mov	r3, r5
 80054c6:	462a      	mov	r2, r5
 80054c8:	4629      	mov	r1, r5
 80054ca:	4620      	mov	r0, r4
 80054cc:	f000 fed6 	bl	800627c <USBD_LL_PrepareReceive>
 80054d0:	e7c6      	b.n	8005460 <USBD_LL_DataInStage+0x10>
 80054d2:	6983      	ldr	r3, [r0, #24]
 80054d4:	429a      	cmp	r2, r3
 80054d6:	d8e0      	bhi.n	800549a <USBD_LL_DataInStage+0x4a>
 80054d8:	f8d0 2298 	ldr.w	r2, [r0, #664]	; 0x298
 80054dc:	4293      	cmp	r3, r2
 80054de:	d2dc      	bcs.n	800549a <USBD_LL_DataInStage+0x4a>
 80054e0:	460a      	mov	r2, r1
 80054e2:	f000 fbb1 	bl	8005c48 <USBD_CtlContinueSendData>
 80054e6:	f8c4 5298 	str.w	r5, [r4, #664]	; 0x298
 80054ea:	e7eb      	b.n	80054c4 <USBD_LL_DataInStage+0x74>
 80054ec:	f8d4 32b8 	ldr.w	r3, [r4, #696]	; 0x2b8
 80054f0:	68db      	ldr	r3, [r3, #12]
 80054f2:	2b00      	cmp	r3, #0
 80054f4:	d0d5      	beq.n	80054a2 <USBD_LL_DataInStage+0x52>
 80054f6:	2200      	movs	r2, #0
 80054f8:	f8c4 22d4 	str.w	r2, [r4, #724]	; 0x2d4
 80054fc:	4620      	mov	r0, r4
 80054fe:	4798      	blx	r3
 8005500:	e7cf      	b.n	80054a2 <USBD_LL_DataInStage+0x52>
 8005502:	bf00      	nop

08005504 <USBD_LL_Reset>:
 8005504:	b5f8      	push	{r3, r4, r5, r6, r7, lr}
 8005506:	f8d0 32b8 	ldr.w	r3, [r0, #696]	; 0x2b8
 800550a:	2100      	movs	r1, #0
 800550c:	2201      	movs	r2, #1
 800550e:	f880 229c 	strb.w	r2, [r0, #668]	; 0x29c
 8005512:	4604      	mov	r4, r0
 8005514:	6041      	str	r1, [r0, #4]
 8005516:	f8c0 1294 	str.w	r1, [r0, #660]	; 0x294
 800551a:	f8c0 12a4 	str.w	r1, [r0, #676]	; 0x2a4
 800551e:	f880 12a0 	strb.w	r1, [r0, #672]	; 0x2a0
 8005522:	b11b      	cbz	r3, 800552c <USBD_LL_Reset+0x28>
 8005524:	685b      	ldr	r3, [r3, #4]
 8005526:	b10b      	cbz	r3, 800552c <USBD_LL_Reset+0x28>
 8005528:	4798      	blx	r3
 800552a:	b9b0      	cbnz	r0, 800555a <USBD_LL_Reset+0x56>
 800552c:	2700      	movs	r7, #0
 800552e:	2200      	movs	r2, #0
 8005530:	2340      	movs	r3, #64	; 0x40
 8005532:	461d      	mov	r5, r3
 8005534:	4611      	mov	r1, r2
 8005536:	2601      	movs	r6, #1
 8005538:	4620      	mov	r0, r4
 800553a:	f000 fe35 	bl	80061a8 <USBD_LL_OpenEP>
 800553e:	f8a4 6164 	strh.w	r6, [r4, #356]	; 0x164
 8005542:	f8c4 5160 	str.w	r5, [r4, #352]	; 0x160
 8005546:	462b      	mov	r3, r5
 8005548:	2200      	movs	r2, #0
 800554a:	2180      	movs	r1, #128	; 0x80
 800554c:	4620      	mov	r0, r4
 800554e:	f000 fe2b 	bl	80061a8 <USBD_LL_OpenEP>
 8005552:	84a6      	strh	r6, [r4, #36]	; 0x24
 8005554:	6225      	str	r5, [r4, #32]
 8005556:	4638      	mov	r0, r7
 8005558:	bdf8      	pop	{r3, r4, r5, r6, r7, pc}
 800555a:	2703      	movs	r7, #3
 800555c:	e7e7      	b.n	800552e <USBD_LL_Reset+0x2a>
 800555e:	bf00      	nop

08005560 <USBD_LL_SetSpeed>:
 8005560:	7401      	strb	r1, [r0, #16]
 8005562:	2000      	movs	r0, #0
 8005564:	4770      	bx	lr
 8005566:	bf00      	nop

08005568 <USBD_LL_Suspend>:
 8005568:	f890 229c 	ldrb.w	r2, [r0, #668]	; 0x29c
 800556c:	4603      	mov	r3, r0
 800556e:	2104      	movs	r1, #4
 8005570:	b2d2      	uxtb	r2, r2
 8005572:	f883 229d 	strb.w	r2, [r3, #669]	; 0x29d
 8005576:	2000      	movs	r0, #0
 8005578:	f883 129c 	strb.w	r1, [r3, #668]	; 0x29c
 800557c:	4770      	bx	lr
 800557e:	bf00      	nop

08005580 <USBD_LL_Resume>:
 8005580:	f890 329c 	ldrb.w	r3, [r0, #668]	; 0x29c
 8005584:	2b04      	cmp	r3, #4
 8005586:	d104      	bne.n	8005592 <USBD_LL_Resume+0x12>
 8005588:	f890 329d 	ldrb.w	r3, [r0, #669]	; 0x29d
 800558c:	b2db      	uxtb	r3, r3
 800558e:	f880 329c 	strb.w	r3, [r0, #668]	; 0x29c
 8005592:	2000      	movs	r0, #0
 8005594:	4770      	bx	lr
 8005596:	bf00      	nop

08005598 <USBD_LL_SOF>:
 8005598:	f890 229c 	ldrb.w	r2, [r0, #668]	; 0x29c
 800559c:	2a03      	cmp	r2, #3
 800559e:	d001      	beq.n	80055a4 <USBD_LL_SOF+0xc>
 80055a0:	2000      	movs	r0, #0
 80055a2:	4770      	bx	lr
 80055a4:	b508      	push	{r3, lr}
 80055a6:	f8d0 32b8 	ldr.w	r3, [r0, #696]	; 0x2b8
 80055aa:	b113      	cbz	r3, 80055b2 <USBD_LL_SOF+0x1a>
 80055ac:	69db      	ldr	r3, [r3, #28]
 80055ae:	b103      	cbz	r3, 80055b2 <USBD_LL_SOF+0x1a>
 80055b0:	4798      	blx	r3
 80055b2:	2000      	movs	r0, #0
 80055b4:	bd08      	pop	{r3, pc}
 80055b6:	bf00      	nop

080055b8 <USBD_LL_IsoINIncomplete>:
 80055b8:	f8d0 22d4 	ldr.w	r2, [r0, #724]	; 0x2d4
 80055bc:	32ae      	adds	r2, #174	; 0xae
 80055be:	f850 2022 	ldr.w	r2, [r0, r2, lsl #2]
 80055c2:	b15a      	cbz	r2, 80055dc <USBD_LL_IsoINIncomplete+0x24>
 80055c4:	b508      	push	{r3, lr}
 80055c6:	f890 329c 	ldrb.w	r3, [r0, #668]	; 0x29c
 80055ca:	2b03      	cmp	r3, #3
 80055cc:	d001      	beq.n	80055d2 <USBD_LL_IsoINIncomplete+0x1a>
 80055ce:	2000      	movs	r0, #0
 80055d0:	bd08      	pop	{r3, pc}
 80055d2:	6a13      	ldr	r3, [r2, #32]
 80055d4:	b123      	cbz	r3, 80055e0 <USBD_LL_IsoINIncomplete+0x28>
 80055d6:	4798      	blx	r3
 80055d8:	2000      	movs	r0, #0
 80055da:	bd08      	pop	{r3, pc}
 80055dc:	2003      	movs	r0, #3
 80055de:	4770      	bx	lr
 80055e0:	4618      	mov	r0, r3
 80055e2:	bd08      	pop	{r3, pc}

080055e4 <USBD_LL_IsoOUTIncomplete>:
 80055e4:	f8d0 22d4 	ldr.w	r2, [r0, #724]	; 0x2d4
 80055e8:	32ae      	adds	r2, #174	; 0xae
 80055ea:	f850 2022 	ldr.w	r2, [r0, r2, lsl #2]
 80055ee:	b15a      	cbz	r2, 8005608 <USBD_LL_IsoOUTIncomplete+0x24>
 80055f0:	b508      	push	{r3, lr}
 80055f2:	f890 329c 	ldrb.w	r3, [r0, #668]	; 0x29c
 80055f6:	2b03      	cmp	r3, #3
 80055f8:	d001      	beq.n	80055fe <USBD_LL_IsoOUTIncomplete+0x1a>
 80055fa:	2000      	movs	r0, #0
 80055fc:	bd08      	pop	{r3, pc}
 80055fe:	6a53      	ldr	r3, [r2, #36]	; 0x24
 8005600:	b123      	cbz	r3, 800560c <USBD_LL_IsoOUTIncomplete+0x28>
 8005602:	4798      	blx	r3
 8005604:	2000      	movs	r0, #0
 8005606:	bd08      	pop	{r3, pc}
 8005608:	2003      	movs	r0, #3
 800560a:	4770      	bx	lr
 800560c:	4618      	mov	r0, r3
 800560e:	bd08      	pop	{r3, pc}

08005610 <USBD_LL_DevConnected>:
 8005610:	2000      	movs	r0, #0
 8005612:	4770      	bx	lr

08005614 <USBD_LL_DevDisconnected>:
 8005614:	f8d0 22b8 	ldr.w	r2, [r0, #696]	; 0x2b8
 8005618:	2101      	movs	r1, #1
 800561a:	f880 129c 	strb.w	r1, [r0, #668]	; 0x29c
 800561e:	b142      	cbz	r2, 8005632 <USBD_LL_DevDisconnected+0x1e>
 8005620:	b508      	push	{r3, lr}
 8005622:	6852      	ldr	r2, [r2, #4]
 8005624:	7901      	ldrb	r1, [r0, #4]
 8005626:	4790      	blx	r2
 8005628:	b908      	cbnz	r0, 800562e <USBD_LL_DevDisconnected+0x1a>
 800562a:	2000      	movs	r0, #0
 800562c:	bd08      	pop	{r3, pc}
 800562e:	2003      	movs	r0, #3
 8005630:	bd08      	pop	{r3, pc}
 8005632:	2000      	movs	r0, #0
 8005634:	4770      	bx	lr
 8005636:	bf00      	nop

08005638 <USBD_CoreFindIF>:
 8005638:	2000      	movs	r0, #0
 800563a:	4770      	bx	lr

0800563c <USBD_CoreFindEP>:
 800563c:	2000      	movs	r0, #0
 800563e:	4770      	bx	lr

08005640 <USBD_GetEpDesc>:
 8005640:	7802      	ldrb	r2, [r0, #0]
 8005642:	f8b0 c002 	ldrh.w	ip, [r0, #2]
 8005646:	4594      	cmp	ip, r2
 8005648:	b293      	uxth	r3, r2
 800564a:	d803      	bhi.n	8005654 <USBD_GetEpDesc+0x14>
 800564c:	e00c      	b.n	8005668 <USBD_GetEpDesc+0x28>
 800564e:	459c      	cmp	ip, r3
 8005650:	d90a      	bls.n	8005668 <USBD_GetEpDesc+0x28>
 8005652:	7802      	ldrb	r2, [r0, #0]
 8005654:	4410      	add	r0, r2
 8005656:	4413      	add	r3, r2
 8005658:	7842      	ldrb	r2, [r0, #1]
 800565a:	2a05      	cmp	r2, #5
 800565c:	b29b      	uxth	r3, r3
 800565e:	d1f6      	bne.n	800564e <USBD_GetEpDesc+0xe>
 8005660:	7882      	ldrb	r2, [r0, #2]
 8005662:	428a      	cmp	r2, r1
 8005664:	d1f3      	bne.n	800564e <USBD_GetEpDesc+0xe>
 8005666:	4770      	bx	lr
 8005668:	2000      	movs	r0, #0
 800566a:	4770      	bx	lr

0800566c <USBD_StdDevReq>:
 800566c:	e92d 41f0 	stmdb	sp!, {r4, r5, r6, r7, r8, lr}
 8005670:	780c      	ldrb	r4, [r1, #0]
 8005672:	f004 0460 	and.w	r4, r4, #96	; 0x60
 8005676:	2c20      	cmp	r4, #32
 8005678:	b082      	sub	sp, #8
 800567a:	460e      	mov	r6, r1
 800567c:	4605      	mov	r5, r0
 800567e:	d00f      	beq.n	80056a0 <USBD_StdDevReq+0x34>
 8005680:	2c40      	cmp	r4, #64	; 0x40
 8005682:	d00d      	beq.n	80056a0 <USBD_StdDevReq+0x34>
 8005684:	b1c4      	cbz	r4, 80056b8 <USBD_StdDevReq+0x4c>
 8005686:	2180      	movs	r1, #128	; 0x80
 8005688:	4628      	mov	r0, r5
 800568a:	f000 fdab 	bl	80061e4 <USBD_LL_StallEP>
 800568e:	2100      	movs	r1, #0
 8005690:	4628      	mov	r0, r5
 8005692:	f000 fda7 	bl	80061e4 <USBD_LL_StallEP>
 8005696:	2400      	movs	r4, #0
 8005698:	4620      	mov	r0, r4
 800569a:	b002      	add	sp, #8
 800569c:	e8bd 81f0 	ldmia.w	sp!, {r4, r5, r6, r7, r8, pc}
 80056a0:	f8d5 32d4 	ldr.w	r3, [r5, #724]	; 0x2d4
 80056a4:	33ae      	adds	r3, #174	; 0xae
 80056a6:	4631      	mov	r1, r6
 80056a8:	f855 3023 	ldr.w	r3, [r5, r3, lsl #2]
 80056ac:	689b      	ldr	r3, [r3, #8]
 80056ae:	4628      	mov	r0, r5
 80056b0:	b002      	add	sp, #8
 80056b2:	e8bd 41f0 	ldmia.w	sp!, {r4, r5, r6, r7, r8, lr}
 80056b6:	4718      	bx	r3
 80056b8:	784f      	ldrb	r7, [r1, #1]
 80056ba:	2f09      	cmp	r7, #9
 80056bc:	d8e3      	bhi.n	8005686 <USBD_StdDevReq+0x1a>
 80056be:	a301      	add	r3, pc, #4	; (adr r3, 80056c4 <USBD_StdDevReq+0x58>)
 80056c0:	f853 f027 	ldr.w	pc, [r3, r7, lsl #2]
 80056c4:	08005729 	.word	0x08005729
 80056c8:	08005753 	.word	0x08005753
 80056cc:	08005687 	.word	0x08005687
 80056d0:	08005771 	.word	0x08005771
 80056d4:	08005687 	.word	0x08005687
 80056d8:	08005795 	.word	0x08005795
 80056dc:	080057cd 	.word	0x080057cd
 80056e0:	08005687 	.word	0x08005687
 80056e4:	08005801 	.word	0x08005801
 80056e8:	080056ed 	.word	0x080056ed
 80056ec:	788e      	ldrb	r6, [r1, #2]
 80056ee:	4fb5      	ldr	r7, [pc, #724]	; (80059c4 <USBD_StdDevReq+0x358>)
 80056f0:	2e01      	cmp	r6, #1
 80056f2:	703e      	strb	r6, [r7, #0]
 80056f4:	f200 8147 	bhi.w	8005986 <USBD_StdDevReq+0x31a>
 80056f8:	f890 329c 	ldrb.w	r3, [r0, #668]	; 0x29c
 80056fc:	2b02      	cmp	r3, #2
 80056fe:	fa5f f883 	uxtb.w	r8, r3
 8005702:	f000 8102 	beq.w	800590a <USBD_StdDevReq+0x29e>
 8005706:	f1b8 0f03 	cmp.w	r8, #3
 800570a:	f000 8113 	beq.w	8005934 <USBD_StdDevReq+0x2c8>
 800570e:	2180      	movs	r1, #128	; 0x80
 8005710:	f000 fd68 	bl	80061e4 <USBD_LL_StallEP>
 8005714:	2100      	movs	r1, #0
 8005716:	4628      	mov	r0, r5
 8005718:	f000 fd64 	bl	80061e4 <USBD_LL_StallEP>
 800571c:	7839      	ldrb	r1, [r7, #0]
 800571e:	4628      	mov	r0, r5
 8005720:	f7ff fe22 	bl	8005368 <USBD_ClrClassConfig>
 8005724:	2403      	movs	r4, #3
 8005726:	e7b7      	b.n	8005698 <USBD_StdDevReq+0x2c>
 8005728:	f890 329c 	ldrb.w	r3, [r0, #668]	; 0x29c
 800572c:	3b01      	subs	r3, #1
 800572e:	2b02      	cmp	r3, #2
 8005730:	d824      	bhi.n	800577c <USBD_StdDevReq+0x110>
 8005732:	88ca      	ldrh	r2, [r1, #6]
 8005734:	2a02      	cmp	r2, #2
 8005736:	d121      	bne.n	800577c <USBD_StdDevReq+0x110>
 8005738:	f8d0 32a4 	ldr.w	r3, [r0, #676]	; 0x2a4
 800573c:	4601      	mov	r1, r0
 800573e:	2b00      	cmp	r3, #0
 8005740:	bf14      	ite	ne
 8005742:	2303      	movne	r3, #3
 8005744:	2301      	moveq	r3, #1
 8005746:	f841 3f0c 	str.w	r3, [r1, #12]!
 800574a:	f000 fa6f 	bl	8005c2c <USBD_CtlSendData>
 800574e:	463c      	mov	r4, r7
 8005750:	e7a2      	b.n	8005698 <USBD_StdDevReq+0x2c>
 8005752:	f890 329c 	ldrb.w	r3, [r0, #668]	; 0x29c
 8005756:	3b01      	subs	r3, #1
 8005758:	2b02      	cmp	r3, #2
 800575a:	d80f      	bhi.n	800577c <USBD_StdDevReq+0x110>
 800575c:	884b      	ldrh	r3, [r1, #2]
 800575e:	2b01      	cmp	r3, #1
 8005760:	d19a      	bne.n	8005698 <USBD_StdDevReq+0x2c>
 8005762:	2300      	movs	r3, #0
 8005764:	f8c5 32a4 	str.w	r3, [r5, #676]	; 0x2a4
 8005768:	4628      	mov	r0, r5
 800576a:	f000 fa8b 	bl	8005c84 <USBD_CtlSendStatus>
 800576e:	e793      	b.n	8005698 <USBD_StdDevReq+0x2c>
 8005770:	884b      	ldrh	r3, [r1, #2]
 8005772:	2b01      	cmp	r3, #1
 8005774:	d0f6      	beq.n	8005764 <USBD_StdDevReq+0xf8>
 8005776:	2b02      	cmp	r3, #2
 8005778:	f000 80fe 	beq.w	8005978 <USBD_StdDevReq+0x30c>
 800577c:	2180      	movs	r1, #128	; 0x80
 800577e:	4628      	mov	r0, r5
 8005780:	f000 fd30 	bl	80061e4 <USBD_LL_StallEP>
 8005784:	2100      	movs	r1, #0
 8005786:	4628      	mov	r0, r5
 8005788:	f000 fd2c 	bl	80061e4 <USBD_LL_StallEP>
 800578c:	4620      	mov	r0, r4
 800578e:	b002      	add	sp, #8
 8005790:	e8bd 81f0 	ldmia.w	sp!, {r4, r5, r6, r7, r8, pc}
 8005794:	888b      	ldrh	r3, [r1, #4]
 8005796:	2b00      	cmp	r3, #0
 8005798:	d1f0      	bne.n	800577c <USBD_StdDevReq+0x110>
 800579a:	88cb      	ldrh	r3, [r1, #6]
 800579c:	2b00      	cmp	r3, #0
 800579e:	d1ed      	bne.n	800577c <USBD_StdDevReq+0x110>
 80057a0:	884e      	ldrh	r6, [r1, #2]
 80057a2:	2e7f      	cmp	r6, #127	; 0x7f
 80057a4:	d8ea      	bhi.n	800577c <USBD_StdDevReq+0x110>
 80057a6:	f890 329c 	ldrb.w	r3, [r0, #668]	; 0x29c
 80057aa:	2b03      	cmp	r3, #3
 80057ac:	d0e6      	beq.n	800577c <USBD_StdDevReq+0x110>
 80057ae:	b2f1      	uxtb	r1, r6
 80057b0:	f880 129e 	strb.w	r1, [r0, #670]	; 0x29e
 80057b4:	f000 fd46 	bl	8006244 <USBD_LL_SetUSBAddress>
 80057b8:	4628      	mov	r0, r5
 80057ba:	f000 fa63 	bl	8005c84 <USBD_CtlSendStatus>
 80057be:	2e00      	cmp	r6, #0
 80057c0:	f000 8109 	beq.w	80059d6 <USBD_StdDevReq+0x36a>
 80057c4:	2302      	movs	r3, #2
 80057c6:	f885 329c 	strb.w	r3, [r5, #668]	; 0x29c
 80057ca:	e765      	b.n	8005698 <USBD_StdDevReq+0x2c>
 80057cc:	884a      	ldrh	r2, [r1, #2]
 80057ce:	2300      	movs	r3, #0
 80057d0:	f8ad 3006 	strh.w	r3, [sp, #6]
 80057d4:	0a13      	lsrs	r3, r2, #8
 80057d6:	3b01      	subs	r3, #1
 80057d8:	2b06      	cmp	r3, #6
 80057da:	d8cf      	bhi.n	800577c <USBD_StdDevReq+0x110>
 80057dc:	a101      	add	r1, pc, #4	; (adr r1, 80057e4 <USBD_StdDevReq+0x178>)
 80057de:	f851 f023 	ldr.w	pc, [r1, r3, lsl #2]
 80057e2:	bf00      	nop
 80057e4:	0800589b 	.word	0x0800589b
 80057e8:	08005881 	.word	0x08005881
 80057ec:	08005871 	.word	0x08005871
 80057f0:	0800577d 	.word	0x0800577d
 80057f4:	0800577d 	.word	0x0800577d
 80057f8:	0800585d 	.word	0x0800585d
 80057fc:	08005825 	.word	0x08005825
 8005800:	88ca      	ldrh	r2, [r1, #6]
 8005802:	2a01      	cmp	r2, #1
 8005804:	d1ba      	bne.n	800577c <USBD_StdDevReq+0x110>
 8005806:	f890 129c 	ldrb.w	r1, [r0, #668]	; 0x29c
 800580a:	2902      	cmp	r1, #2
 800580c:	b2cb      	uxtb	r3, r1
 800580e:	d875      	bhi.n	80058fc <USBD_StdDevReq+0x290>
 8005810:	2b00      	cmp	r3, #0
 8005812:	f43f af38 	beq.w	8005686 <USBD_StdDevReq+0x1a>
 8005816:	4601      	mov	r1, r0
 8005818:	2300      	movs	r3, #0
 800581a:	f841 3f08 	str.w	r3, [r1, #8]!
 800581e:	f000 fa05 	bl	8005c2c <USBD_CtlSendData>
 8005822:	e739      	b.n	8005698 <USBD_StdDevReq+0x2c>
 8005824:	7c03      	ldrb	r3, [r0, #16]
 8005826:	2b00      	cmp	r3, #0
 8005828:	d1a8      	bne.n	800577c <USBD_StdDevReq+0x110>
 800582a:	f8d0 32b8 	ldr.w	r3, [r0, #696]	; 0x2b8
 800582e:	f10d 0006 	add.w	r0, sp, #6
 8005832:	6b1b      	ldr	r3, [r3, #48]	; 0x30
 8005834:	4798      	blx	r3
 8005836:	2307      	movs	r3, #7
 8005838:	7043      	strb	r3, [r0, #1]
 800583a:	88f2      	ldrh	r2, [r6, #6]
 800583c:	2a00      	cmp	r2, #0
 800583e:	d093      	beq.n	8005768 <USBD_StdDevReq+0xfc>
 8005840:	f8bd 3006 	ldrh.w	r3, [sp, #6]
 8005844:	2b00      	cmp	r3, #0
 8005846:	d099      	beq.n	800577c <USBD_StdDevReq+0x110>
 8005848:	429a      	cmp	r2, r3
 800584a:	bf28      	it	cs
 800584c:	461a      	movcs	r2, r3
 800584e:	4601      	mov	r1, r0
 8005850:	4628      	mov	r0, r5
 8005852:	f8ad 2006 	strh.w	r2, [sp, #6]
 8005856:	f000 f9e9 	bl	8005c2c <USBD_CtlSendData>
 800585a:	e71d      	b.n	8005698 <USBD_StdDevReq+0x2c>
 800585c:	7c03      	ldrb	r3, [r0, #16]
 800585e:	2b00      	cmp	r3, #0
 8005860:	d18c      	bne.n	800577c <USBD_StdDevReq+0x110>
 8005862:	f8d0 32b8 	ldr.w	r3, [r0, #696]	; 0x2b8
 8005866:	f10d 0006 	add.w	r0, sp, #6
 800586a:	6b5b      	ldr	r3, [r3, #52]	; 0x34
 800586c:	4798      	blx	r3
 800586e:	e7e4      	b.n	800583a <USBD_StdDevReq+0x1ce>
 8005870:	b2d2      	uxtb	r2, r2
 8005872:	2a05      	cmp	r2, #5
 8005874:	d882      	bhi.n	800577c <USBD_StdDevReq+0x110>
 8005876:	e8df f002 	tbb	[pc, r2]
 800587a:	353b      	.short	0x353b
 800587c:	1823292f 	.word	0x1823292f
 8005880:	7c03      	ldrb	r3, [r0, #16]
 8005882:	2b00      	cmp	r3, #0
 8005884:	f040 8094 	bne.w	80059b0 <USBD_StdDevReq+0x344>
 8005888:	f8d0 32b8 	ldr.w	r3, [r0, #696]	; 0x2b8
 800588c:	f10d 0006 	add.w	r0, sp, #6
 8005890:	6a9b      	ldr	r3, [r3, #40]	; 0x28
 8005892:	4798      	blx	r3
 8005894:	2302      	movs	r3, #2
 8005896:	7043      	strb	r3, [r0, #1]
 8005898:	e7cf      	b.n	800583a <USBD_StdDevReq+0x1ce>
 800589a:	f8d0 32b4 	ldr.w	r3, [r0, #692]	; 0x2b4
 800589e:	7c00      	ldrb	r0, [r0, #16]
 80058a0:	681b      	ldr	r3, [r3, #0]
 80058a2:	f10d 0106 	add.w	r1, sp, #6
 80058a6:	4798      	blx	r3
 80058a8:	e7c7      	b.n	800583a <USBD_StdDevReq+0x1ce>
 80058aa:	f8d0 32b4 	ldr.w	r3, [r0, #692]	; 0x2b4
 80058ae:	699b      	ldr	r3, [r3, #24]
 80058b0:	2b00      	cmp	r3, #0
 80058b2:	f43f af63 	beq.w	800577c <USBD_StdDevReq+0x110>
 80058b6:	7c28      	ldrb	r0, [r5, #16]
 80058b8:	f10d 0106 	add.w	r1, sp, #6
 80058bc:	4798      	blx	r3
 80058be:	e7bc      	b.n	800583a <USBD_StdDevReq+0x1ce>
 80058c0:	f8d0 32b4 	ldr.w	r3, [r0, #692]	; 0x2b4
 80058c4:	695b      	ldr	r3, [r3, #20]
 80058c6:	2b00      	cmp	r3, #0
 80058c8:	d1f5      	bne.n	80058b6 <USBD_StdDevReq+0x24a>
 80058ca:	e757      	b.n	800577c <USBD_StdDevReq+0x110>
 80058cc:	f8d0 32b4 	ldr.w	r3, [r0, #692]	; 0x2b4
 80058d0:	691b      	ldr	r3, [r3, #16]
 80058d2:	2b00      	cmp	r3, #0
 80058d4:	d1ef      	bne.n	80058b6 <USBD_StdDevReq+0x24a>
 80058d6:	e751      	b.n	800577c <USBD_StdDevReq+0x110>
 80058d8:	f8d0 32b4 	ldr.w	r3, [r0, #692]	; 0x2b4
 80058dc:	68db      	ldr	r3, [r3, #12]
 80058de:	2b00      	cmp	r3, #0
 80058e0:	d1e9      	bne.n	80058b6 <USBD_StdDevReq+0x24a>
 80058e2:	e74b      	b.n	800577c <USBD_StdDevReq+0x110>
 80058e4:	f8d0 32b4 	ldr.w	r3, [r0, #692]	; 0x2b4
 80058e8:	689b      	ldr	r3, [r3, #8]
 80058ea:	2b00      	cmp	r3, #0
 80058ec:	d1e3      	bne.n	80058b6 <USBD_StdDevReq+0x24a>
 80058ee:	e745      	b.n	800577c <USBD_StdDevReq+0x110>
 80058f0:	f8d0 32b4 	ldr.w	r3, [r0, #692]	; 0x2b4
 80058f4:	685b      	ldr	r3, [r3, #4]
 80058f6:	2b00      	cmp	r3, #0
 80058f8:	d1dd      	bne.n	80058b6 <USBD_StdDevReq+0x24a>
 80058fa:	e73f      	b.n	800577c <USBD_StdDevReq+0x110>
 80058fc:	2b03      	cmp	r3, #3
 80058fe:	f47f aec2 	bne.w	8005686 <USBD_StdDevReq+0x1a>
 8005902:	1d01      	adds	r1, r0, #4
 8005904:	f000 f992 	bl	8005c2c <USBD_CtlSendData>
 8005908:	e6c6      	b.n	8005698 <USBD_StdDevReq+0x2c>
 800590a:	2e00      	cmp	r6, #0
 800590c:	f43f af2c 	beq.w	8005768 <USBD_StdDevReq+0xfc>
 8005910:	2101      	movs	r1, #1
 8005912:	6041      	str	r1, [r0, #4]
 8005914:	f7ff fd20 	bl	8005358 <USBD_SetClassConfig>
 8005918:	4604      	mov	r4, r0
 800591a:	2800      	cmp	r0, #0
 800591c:	d054      	beq.n	80059c8 <USBD_StdDevReq+0x35c>
 800591e:	2180      	movs	r1, #128	; 0x80
 8005920:	4628      	mov	r0, r5
 8005922:	f000 fc5f 	bl	80061e4 <USBD_LL_StallEP>
 8005926:	2100      	movs	r1, #0
 8005928:	4628      	mov	r0, r5
 800592a:	f000 fc5b 	bl	80061e4 <USBD_LL_StallEP>
 800592e:	f885 829c 	strb.w	r8, [r5, #668]	; 0x29c
 8005932:	e6b1      	b.n	8005698 <USBD_StdDevReq+0x2c>
 8005934:	b386      	cbz	r6, 8005998 <USBD_StdDevReq+0x32c>
 8005936:	6841      	ldr	r1, [r0, #4]
 8005938:	2901      	cmp	r1, #1
 800593a:	f43f af15 	beq.w	8005768 <USBD_StdDevReq+0xfc>
 800593e:	b2c9      	uxtb	r1, r1
 8005940:	f7ff fd12 	bl	8005368 <USBD_ClrClassConfig>
 8005944:	7839      	ldrb	r1, [r7, #0]
 8005946:	6069      	str	r1, [r5, #4]
 8005948:	4628      	mov	r0, r5
 800594a:	f7ff fd05 	bl	8005358 <USBD_SetClassConfig>
 800594e:	4606      	mov	r6, r0
 8005950:	2800      	cmp	r0, #0
 8005952:	f43f af09 	beq.w	8005768 <USBD_StdDevReq+0xfc>
 8005956:	2180      	movs	r1, #128	; 0x80
 8005958:	4628      	mov	r0, r5
 800595a:	f000 fc43 	bl	80061e4 <USBD_LL_StallEP>
 800595e:	2100      	movs	r1, #0
 8005960:	4628      	mov	r0, r5
 8005962:	f000 fc3f 	bl	80061e4 <USBD_LL_StallEP>
 8005966:	7929      	ldrb	r1, [r5, #4]
 8005968:	4628      	mov	r0, r5
 800596a:	f7ff fcfd 	bl	8005368 <USBD_ClrClassConfig>
 800596e:	2302      	movs	r3, #2
 8005970:	f885 329c 	strb.w	r3, [r5, #668]	; 0x29c
 8005974:	4634      	mov	r4, r6
 8005976:	e68f      	b.n	8005698 <USBD_StdDevReq+0x2c>
 8005978:	888b      	ldrh	r3, [r1, #4]
 800597a:	0a1b      	lsrs	r3, r3, #8
 800597c:	f880 32a0 	strb.w	r3, [r0, #672]	; 0x2a0
 8005980:	f000 f980 	bl	8005c84 <USBD_CtlSendStatus>
 8005984:	e688      	b.n	8005698 <USBD_StdDevReq+0x2c>
 8005986:	2180      	movs	r1, #128	; 0x80
 8005988:	f000 fc2c 	bl	80061e4 <USBD_LL_StallEP>
 800598c:	2100      	movs	r1, #0
 800598e:	4628      	mov	r0, r5
 8005990:	f000 fc28 	bl	80061e4 <USBD_LL_StallEP>
 8005994:	2403      	movs	r4, #3
 8005996:	e67f      	b.n	8005698 <USBD_StdDevReq+0x2c>
 8005998:	2302      	movs	r3, #2
 800599a:	4631      	mov	r1, r6
 800599c:	f880 329c 	strb.w	r3, [r0, #668]	; 0x29c
 80059a0:	6046      	str	r6, [r0, #4]
 80059a2:	f7ff fce1 	bl	8005368 <USBD_ClrClassConfig>
 80059a6:	4628      	mov	r0, r5
 80059a8:	f000 f96c 	bl	8005c84 <USBD_CtlSendStatus>
 80059ac:	4634      	mov	r4, r6
 80059ae:	e673      	b.n	8005698 <USBD_StdDevReq+0x2c>
 80059b0:	f8d0 32b8 	ldr.w	r3, [r0, #696]	; 0x2b8
 80059b4:	f10d 0006 	add.w	r0, sp, #6
 80059b8:	6adb      	ldr	r3, [r3, #44]	; 0x2c
 80059ba:	4798      	blx	r3
 80059bc:	2302      	movs	r3, #2
 80059be:	7043      	strb	r3, [r0, #1]
 80059c0:	e73b      	b.n	800583a <USBD_StdDevReq+0x1ce>
 80059c2:	bf00      	nop
 80059c4:	200030a0 	.word	0x200030a0
 80059c8:	4628      	mov	r0, r5
 80059ca:	f000 f95b 	bl	8005c84 <USBD_CtlSendStatus>
 80059ce:	2303      	movs	r3, #3
 80059d0:	f885 329c 	strb.w	r3, [r5, #668]	; 0x29c
 80059d4:	e660      	b.n	8005698 <USBD_StdDevReq+0x2c>
 80059d6:	2301      	movs	r3, #1
 80059d8:	f885 329c 	strb.w	r3, [r5, #668]	; 0x29c
 80059dc:	e65c      	b.n	8005698 <USBD_StdDevReq+0x2c>
 80059de:	bf00      	nop

080059e0 <USBD_StdItfReq>:
 80059e0:	b538      	push	{r3, r4, r5, lr}
 80059e2:	780b      	ldrb	r3, [r1, #0]
 80059e4:	f003 0260 	and.w	r2, r3, #96	; 0x60
 80059e8:	2a40      	cmp	r2, #64	; 0x40
 80059ea:	460d      	mov	r5, r1
 80059ec:	4604      	mov	r4, r0
 80059ee:	d00b      	beq.n	8005a08 <USBD_StdItfReq+0x28>
 80059f0:	065b      	lsls	r3, r3, #25
 80059f2:	d509      	bpl.n	8005a08 <USBD_StdItfReq+0x28>
 80059f4:	2180      	movs	r1, #128	; 0x80
 80059f6:	f000 fbf5 	bl	80061e4 <USBD_LL_StallEP>
 80059fa:	2100      	movs	r1, #0
 80059fc:	4620      	mov	r0, r4
 80059fe:	f000 fbf1 	bl	80061e4 <USBD_LL_StallEP>
 8005a02:	2500      	movs	r5, #0
 8005a04:	4628      	mov	r0, r5
 8005a06:	bd38      	pop	{r3, r4, r5, pc}
 8005a08:	f894 329c 	ldrb.w	r3, [r4, #668]	; 0x29c
 8005a0c:	3b01      	subs	r3, #1
 8005a0e:	2b02      	cmp	r3, #2
 8005a10:	d802      	bhi.n	8005a18 <USBD_StdItfReq+0x38>
 8005a12:	7929      	ldrb	r1, [r5, #4]
 8005a14:	2901      	cmp	r1, #1
 8005a16:	d902      	bls.n	8005a1e <USBD_StdItfReq+0x3e>
 8005a18:	2180      	movs	r1, #128	; 0x80
 8005a1a:	4620      	mov	r0, r4
 8005a1c:	e7eb      	b.n	80059f6 <USBD_StdItfReq+0x16>
 8005a1e:	4620      	mov	r0, r4
 8005a20:	f7ff fe0a 	bl	8005638 <USBD_CoreFindIF>
 8005a24:	b990      	cbnz	r0, 8005a4c <USBD_StdItfReq+0x6c>
 8005a26:	f8d4 32b8 	ldr.w	r3, [r4, #696]	; 0x2b8
 8005a2a:	689b      	ldr	r3, [r3, #8]
 8005a2c:	b173      	cbz	r3, 8005a4c <USBD_StdItfReq+0x6c>
 8005a2e:	f8c4 02d4 	str.w	r0, [r4, #724]	; 0x2d4
 8005a32:	4629      	mov	r1, r5
 8005a34:	4620      	mov	r0, r4
 8005a36:	4798      	blx	r3
 8005a38:	88eb      	ldrh	r3, [r5, #6]
 8005a3a:	4605      	mov	r5, r0
 8005a3c:	2b00      	cmp	r3, #0
 8005a3e:	d1e1      	bne.n	8005a04 <USBD_StdItfReq+0x24>
 8005a40:	2800      	cmp	r0, #0
 8005a42:	d1df      	bne.n	8005a04 <USBD_StdItfReq+0x24>
 8005a44:	4620      	mov	r0, r4
 8005a46:	f000 f91d 	bl	8005c84 <USBD_CtlSendStatus>
 8005a4a:	e7db      	b.n	8005a04 <USBD_StdItfReq+0x24>
 8005a4c:	2503      	movs	r5, #3
 8005a4e:	4628      	mov	r0, r5
 8005a50:	bd38      	pop	{r3, r4, r5, pc}
 8005a52:	bf00      	nop

08005a54 <USBD_StdEPReq>:
 8005a54:	b530      	push	{r4, r5, lr}
 8005a56:	460c      	mov	r4, r1
 8005a58:	888a      	ldrh	r2, [r1, #4]
 8005a5a:	7823      	ldrb	r3, [r4, #0]
 8005a5c:	f003 0360 	and.w	r3, r3, #96	; 0x60
 8005a60:	2b20      	cmp	r3, #32
 8005a62:	b083      	sub	sp, #12
 8005a64:	4605      	mov	r5, r0
 8005a66:	b2d1      	uxtb	r1, r2
 8005a68:	d01e      	beq.n	8005aa8 <USBD_StdEPReq+0x54>
 8005a6a:	2b40      	cmp	r3, #64	; 0x40
 8005a6c:	d01c      	beq.n	8005aa8 <USBD_StdEPReq+0x54>
 8005a6e:	b36b      	cbz	r3, 8005acc <USBD_StdEPReq+0x78>
 8005a70:	2180      	movs	r1, #128	; 0x80
 8005a72:	4628      	mov	r0, r5
 8005a74:	f000 fbb6 	bl	80061e4 <USBD_LL_StallEP>
 8005a78:	2100      	movs	r1, #0
 8005a7a:	4628      	mov	r0, r5
 8005a7c:	f000 fbb2 	bl	80061e4 <USBD_LL_StallEP>
 8005a80:	2000      	movs	r0, #0
 8005a82:	b003      	add	sp, #12
 8005a84:	bd30      	pop	{r4, r5, pc}
 8005a86:	f890 329c 	ldrb.w	r3, [r0, #668]	; 0x29c
 8005a8a:	2b02      	cmp	r3, #2
 8005a8c:	b2da      	uxtb	r2, r3
 8005a8e:	d05d      	beq.n	8005b4c <USBD_StdEPReq+0xf8>
 8005a90:	2a03      	cmp	r2, #3
 8005a92:	d1ed      	bne.n	8005a70 <USBD_StdEPReq+0x1c>
 8005a94:	8863      	ldrh	r3, [r4, #2]
 8005a96:	2b00      	cmp	r3, #0
 8005a98:	d1f2      	bne.n	8005a80 <USBD_StdEPReq+0x2c>
 8005a9a:	064b      	lsls	r3, r1, #25
 8005a9c:	d17a      	bne.n	8005b94 <USBD_StdEPReq+0x140>
 8005a9e:	4628      	mov	r0, r5
 8005aa0:	9101      	str	r1, [sp, #4]
 8005aa2:	f000 f8ef 	bl	8005c84 <USBD_CtlSendStatus>
 8005aa6:	9901      	ldr	r1, [sp, #4]
 8005aa8:	4628      	mov	r0, r5
 8005aaa:	f7ff fdc7 	bl	800563c <USBD_CoreFindEP>
 8005aae:	2800      	cmp	r0, #0
 8005ab0:	d1e6      	bne.n	8005a80 <USBD_StdEPReq+0x2c>
 8005ab2:	f8d5 32b8 	ldr.w	r3, [r5, #696]	; 0x2b8
 8005ab6:	f8c5 02d4 	str.w	r0, [r5, #724]	; 0x2d4
 8005aba:	689b      	ldr	r3, [r3, #8]
 8005abc:	2b00      	cmp	r3, #0
 8005abe:	d0df      	beq.n	8005a80 <USBD_StdEPReq+0x2c>
 8005ac0:	4621      	mov	r1, r4
 8005ac2:	4628      	mov	r0, r5
 8005ac4:	b003      	add	sp, #12
 8005ac6:	e8bd 4030 	ldmia.w	sp!, {r4, r5, lr}
 8005aca:	4718      	bx	r3
 8005acc:	7863      	ldrb	r3, [r4, #1]
 8005ace:	2b01      	cmp	r3, #1
 8005ad0:	d0d9      	beq.n	8005a86 <USBD_StdEPReq+0x32>
 8005ad2:	2b03      	cmp	r3, #3
 8005ad4:	d029      	beq.n	8005b2a <USBD_StdEPReq+0xd6>
 8005ad6:	2b00      	cmp	r3, #0
 8005ad8:	d1ca      	bne.n	8005a70 <USBD_StdEPReq+0x1c>
 8005ada:	f890 329c 	ldrb.w	r3, [r0, #668]	; 0x29c
 8005ade:	2b02      	cmp	r3, #2
 8005ae0:	b2d8      	uxtb	r0, r3
 8005ae2:	d03c      	beq.n	8005b5e <USBD_StdEPReq+0x10a>
 8005ae4:	2803      	cmp	r0, #3
 8005ae6:	d1c3      	bne.n	8005a70 <USBD_StdEPReq+0x1c>
 8005ae8:	f001 030f 	and.w	r3, r1, #15
 8005aec:	eb03 0383 	add.w	r3, r3, r3, lsl #2
 8005af0:	0612      	lsls	r2, r2, #24
 8005af2:	eb05 0383 	add.w	r3, r5, r3, lsl #2
 8005af6:	d441      	bmi.n	8005b7c <USBD_StdEPReq+0x128>
 8005af8:	f8b3 3164 	ldrh.w	r3, [r3, #356]	; 0x164
 8005afc:	2b00      	cmp	r3, #0
 8005afe:	d0b7      	beq.n	8005a70 <USBD_StdEPReq+0x1c>
 8005b00:	f001 037f 	and.w	r3, r1, #127	; 0x7f
 8005b04:	2414      	movs	r4, #20
 8005b06:	fb04 5403 	mla	r4, r4, r3, r5
 8005b0a:	f504 74aa 	add.w	r4, r4, #340	; 0x154
 8005b0e:	b12b      	cbz	r3, 8005b1c <USBD_StdEPReq+0xc8>
 8005b10:	4628      	mov	r0, r5
 8005b12:	f000 fb83 	bl	800621c <USBD_LL_IsStallEP>
 8005b16:	1e03      	subs	r3, r0, #0
 8005b18:	bf18      	it	ne
 8005b1a:	2301      	movne	r3, #1
 8005b1c:	6023      	str	r3, [r4, #0]
 8005b1e:	2202      	movs	r2, #2
 8005b20:	4621      	mov	r1, r4
 8005b22:	4628      	mov	r0, r5
 8005b24:	f000 f882 	bl	8005c2c <USBD_CtlSendData>
 8005b28:	e7aa      	b.n	8005a80 <USBD_StdEPReq+0x2c>
 8005b2a:	f890 329c 	ldrb.w	r3, [r0, #668]	; 0x29c
 8005b2e:	2b02      	cmp	r3, #2
 8005b30:	b2da      	uxtb	r2, r3
 8005b32:	d00b      	beq.n	8005b4c <USBD_StdEPReq+0xf8>
 8005b34:	2a03      	cmp	r2, #3
 8005b36:	d19b      	bne.n	8005a70 <USBD_StdEPReq+0x1c>
 8005b38:	8863      	ldrh	r3, [r4, #2]
 8005b3a:	b91b      	cbnz	r3, 8005b44 <USBD_StdEPReq+0xf0>
 8005b3c:	0648      	lsls	r0, r1, #25
 8005b3e:	d001      	beq.n	8005b44 <USBD_StdEPReq+0xf0>
 8005b40:	88e3      	ldrh	r3, [r4, #6]
 8005b42:	b363      	cbz	r3, 8005b9e <USBD_StdEPReq+0x14a>
 8005b44:	4628      	mov	r0, r5
 8005b46:	f000 f89d 	bl	8005c84 <USBD_CtlSendStatus>
 8005b4a:	e799      	b.n	8005a80 <USBD_StdEPReq+0x2c>
 8005b4c:	064a      	lsls	r2, r1, #25
 8005b4e:	d08f      	beq.n	8005a70 <USBD_StdEPReq+0x1c>
 8005b50:	f000 fb48 	bl	80061e4 <USBD_LL_StallEP>
 8005b54:	2180      	movs	r1, #128	; 0x80
 8005b56:	4628      	mov	r0, r5
 8005b58:	f000 fb44 	bl	80061e4 <USBD_LL_StallEP>
 8005b5c:	e790      	b.n	8005a80 <USBD_StdEPReq+0x2c>
 8005b5e:	0648      	lsls	r0, r1, #25
 8005b60:	d186      	bne.n	8005a70 <USBD_StdEPReq+0x1c>
 8005b62:	0611      	lsls	r1, r2, #24
 8005b64:	bf4c      	ite	mi
 8005b66:	f105 0114 	addmi.w	r1, r5, #20
 8005b6a:	f505 71aa 	addpl.w	r1, r5, #340	; 0x154
 8005b6e:	2300      	movs	r3, #0
 8005b70:	600b      	str	r3, [r1, #0]
 8005b72:	2202      	movs	r2, #2
 8005b74:	4628      	mov	r0, r5
 8005b76:	f000 f859 	bl	8005c2c <USBD_CtlSendData>
 8005b7a:	e781      	b.n	8005a80 <USBD_StdEPReq+0x2c>
 8005b7c:	8c9b      	ldrh	r3, [r3, #36]	; 0x24
 8005b7e:	2b00      	cmp	r3, #0
 8005b80:	f43f af76 	beq.w	8005a70 <USBD_StdEPReq+0x1c>
 8005b84:	f001 037f 	and.w	r3, r1, #127	; 0x7f
 8005b88:	1c5c      	adds	r4, r3, #1
 8005b8a:	eb04 0484 	add.w	r4, r4, r4, lsl #2
 8005b8e:	eb05 0484 	add.w	r4, r5, r4, lsl #2
 8005b92:	e7bc      	b.n	8005b0e <USBD_StdEPReq+0xba>
 8005b94:	9101      	str	r1, [sp, #4]
 8005b96:	f000 fb33 	bl	8006200 <USBD_LL_ClearStallEP>
 8005b9a:	9901      	ldr	r1, [sp, #4]
 8005b9c:	e77f      	b.n	8005a9e <USBD_StdEPReq+0x4a>
 8005b9e:	4628      	mov	r0, r5
 8005ba0:	f000 fb20 	bl	80061e4 <USBD_LL_StallEP>
 8005ba4:	e7ce      	b.n	8005b44 <USBD_StdEPReq+0xf0>
 8005ba6:	bf00      	nop

08005ba8 <USBD_ParseSetupRequest>:
 8005ba8:	780b      	ldrb	r3, [r1, #0]
 8005baa:	7003      	strb	r3, [r0, #0]
 8005bac:	784b      	ldrb	r3, [r1, #1]
 8005bae:	7043      	strb	r3, [r0, #1]
 8005bb0:	884b      	ldrh	r3, [r1, #2]
 8005bb2:	8043      	strh	r3, [r0, #2]
 8005bb4:	888b      	ldrh	r3, [r1, #4]
 8005bb6:	8083      	strh	r3, [r0, #4]
 8005bb8:	88cb      	ldrh	r3, [r1, #6]
 8005bba:	80c3      	strh	r3, [r0, #6]
 8005bbc:	4770      	bx	lr
 8005bbe:	bf00      	nop

08005bc0 <USBD_CtlError>:
 8005bc0:	b510      	push	{r4, lr}
 8005bc2:	2180      	movs	r1, #128	; 0x80
 8005bc4:	4604      	mov	r4, r0
 8005bc6:	f000 fb0d 	bl	80061e4 <USBD_LL_StallEP>
 8005bca:	4620      	mov	r0, r4
 8005bcc:	2100      	movs	r1, #0
 8005bce:	e8bd 4010 	ldmia.w	sp!, {r4, lr}
 8005bd2:	f000 bb07 	b.w	80061e4 <USBD_LL_StallEP>
 8005bd6:	bf00      	nop

08005bd8 <USBD_GetString>:
 8005bd8:	b318      	cbz	r0, 8005c22 <USBD_GetString+0x4a>
 8005bda:	7803      	ldrb	r3, [r0, #0]
 8005bdc:	b430      	push	{r4, r5}
 8005bde:	b30b      	cbz	r3, 8005c24 <USBD_GetString+0x4c>
 8005be0:	4604      	mov	r4, r0
 8005be2:	f1c0 0c01 	rsb	ip, r0, #1
 8005be6:	eb04 030c 	add.w	r3, r4, ip
 8005bea:	f814 5f01 	ldrb.w	r5, [r4, #1]!
 8005bee:	b2db      	uxtb	r3, r3
 8005bf0:	2d00      	cmp	r5, #0
 8005bf2:	d1f8      	bne.n	8005be6 <USBD_GetString+0xe>
 8005bf4:	3301      	adds	r3, #1
 8005bf6:	005b      	lsls	r3, r3, #1
 8005bf8:	b2dc      	uxtb	r4, r3
 8005bfa:	8013      	strh	r3, [r2, #0]
 8005bfc:	2303      	movs	r3, #3
 8005bfe:	700c      	strb	r4, [r1, #0]
 8005c00:	704b      	strb	r3, [r1, #1]
 8005c02:	7804      	ldrb	r4, [r0, #0]
 8005c04:	b15c      	cbz	r4, 8005c1e <USBD_GetString+0x46>
 8005c06:	2302      	movs	r3, #2
 8005c08:	2500      	movs	r5, #0
 8005c0a:	1c5a      	adds	r2, r3, #1
 8005c0c:	b2d2      	uxtb	r2, r2
 8005c0e:	54cc      	strb	r4, [r1, r3]
 8005c10:	548d      	strb	r5, [r1, r2]
 8005c12:	f810 4f01 	ldrb.w	r4, [r0, #1]!
 8005c16:	3302      	adds	r3, #2
 8005c18:	b2db      	uxtb	r3, r3
 8005c1a:	2c00      	cmp	r4, #0
 8005c1c:	d1f5      	bne.n	8005c0a <USBD_GetString+0x32>
 8005c1e:	bc30      	pop	{r4, r5}
 8005c20:	4770      	bx	lr
 8005c22:	4770      	bx	lr
 8005c24:	2402      	movs	r4, #2
 8005c26:	4623      	mov	r3, r4
 8005c28:	e7e7      	b.n	8005bfa <USBD_GetString+0x22>
 8005c2a:	bf00      	nop

08005c2c <USBD_CtlSendData>:
 8005c2c:	b508      	push	{r3, lr}
 8005c2e:	4613      	mov	r3, r2
 8005c30:	460a      	mov	r2, r1
 8005c32:	2102      	movs	r1, #2
 8005c34:	e9c0 3306 	strd	r3, r3, [r0, #24]
 8005c38:	f8c0 1294 	str.w	r1, [r0, #660]	; 0x294
 8005c3c:	2100      	movs	r1, #0
 8005c3e:	f000 fb0f 	bl	8006260 <USBD_LL_Transmit>
 8005c42:	2000      	movs	r0, #0
 8005c44:	bd08      	pop	{r3, pc}
 8005c46:	bf00      	nop

08005c48 <USBD_CtlContinueSendData>:
 8005c48:	b508      	push	{r3, lr}
 8005c4a:	4613      	mov	r3, r2
 8005c4c:	460a      	mov	r2, r1
 8005c4e:	2100      	movs	r1, #0
 8005c50:	f000 fb06 	bl	8006260 <USBD_LL_Transmit>
 8005c54:	2000      	movs	r0, #0
 8005c56:	bd08      	pop	{r3, pc}

08005c58 <USBD_CtlPrepareRx>:
 8005c58:	b508      	push	{r3, lr}
 8005c5a:	4613      	mov	r3, r2
 8005c5c:	460a      	mov	r2, r1
 8005c5e:	2103      	movs	r1, #3
 8005c60:	e9c0 3356 	strd	r3, r3, [r0, #344]	; 0x158
 8005c64:	f8c0 1294 	str.w	r1, [r0, #660]	; 0x294
 8005c68:	2100      	movs	r1, #0
 8005c6a:	f000 fb07 	bl	800627c <USBD_LL_PrepareReceive>
 8005c6e:	2000      	movs	r0, #0
 8005c70:	bd08      	pop	{r3, pc}
 8005c72:	bf00      	nop

08005c74 <USBD_CtlContinueRx>:
 8005c74:	b508      	push	{r3, lr}
 8005c76:	4613      	mov	r3, r2
 8005c78:	460a      	mov	r2, r1
 8005c7a:	2100      	movs	r1, #0
 8005c7c:	f000 fafe 	bl	800627c <USBD_LL_PrepareReceive>
 8005c80:	2000      	movs	r0, #0
 8005c82:	bd08      	pop	{r3, pc}

08005c84 <USBD_CtlSendStatus>:
 8005c84:	b508      	push	{r3, lr}
 8005c86:	2104      	movs	r1, #4
 8005c88:	2300      	movs	r3, #0
 8005c8a:	f8c0 1294 	str.w	r1, [r0, #660]	; 0x294
 8005c8e:	461a      	mov	r2, r3
 8005c90:	4619      	mov	r1, r3
 8005c92:	f000 fae5 	bl	8006260 <USBD_LL_Transmit>
 8005c96:	2000      	movs	r0, #0
 8005c98:	bd08      	pop	{r3, pc}
 8005c9a:	bf00      	nop

08005c9c <USBD_CtlReceiveStatus>:
 8005c9c:	b508      	push	{r3, lr}
 8005c9e:	2105      	movs	r1, #5
 8005ca0:	2300      	movs	r3, #0
 8005ca2:	f8c0 1294 	str.w	r1, [r0, #660]	; 0x294
 8005ca6:	461a      	mov	r2, r3
 8005ca8:	4619      	mov	r1, r3
 8005caa:	f000 fae7 	bl	800627c <USBD_LL_PrepareReceive>
 8005cae:	2000      	movs	r0, #0
 8005cb0:	bd08      	pop	{r3, pc}
 8005cb2:	bf00      	nop

08005cb4 <MX_USB_DEVICE_Init>:
 8005cb4:	b508      	push	{r3, lr}
 8005cb6:	4918      	ldr	r1, [pc, #96]	; (8005d18 <MX_USB_DEVICE_Init+0x64>)
 8005cb8:	4818      	ldr	r0, [pc, #96]	; (8005d1c <MX_USB_DEVICE_Init+0x68>)
 8005cba:	2200      	movs	r2, #0
 8005cbc:	f7ff fb1a 	bl	80052f4 <USBD_Init>
 8005cc0:	b970      	cbnz	r0, 8005ce0 <MX_USB_DEVICE_Init+0x2c>
 8005cc2:	4917      	ldr	r1, [pc, #92]	; (8005d20 <MX_USB_DEVICE_Init+0x6c>)
 8005cc4:	4815      	ldr	r0, [pc, #84]	; (8005d1c <MX_USB_DEVICE_Init+0x68>)
 8005cc6:	f7ff fb29 	bl	800531c <USBD_RegisterClass>
 8005cca:	b988      	cbnz	r0, 8005cf0 <MX_USB_DEVICE_Init+0x3c>
 8005ccc:	4915      	ldr	r1, [pc, #84]	; (8005d24 <MX_USB_DEVICE_Init+0x70>)
 8005cce:	4813      	ldr	r0, [pc, #76]	; (8005d1c <MX_USB_DEVICE_Init+0x68>)
 8005cd0:	f7ff fab2 	bl	8005238 <USBD_CDC_RegisterInterface>
 8005cd4:	b9a0      	cbnz	r0, 8005d00 <MX_USB_DEVICE_Init+0x4c>
 8005cd6:	4811      	ldr	r0, [pc, #68]	; (8005d1c <MX_USB_DEVICE_Init+0x68>)
 8005cd8:	f7ff fb3c 	bl	8005354 <USBD_Start>
 8005cdc:	b9b8      	cbnz	r0, 8005d0e <MX_USB_DEVICE_Init+0x5a>
 8005cde:	bd08      	pop	{r3, pc}
 8005ce0:	f7fa fd84 	bl	80007ec <Error_Handler>
 8005ce4:	490e      	ldr	r1, [pc, #56]	; (8005d20 <MX_USB_DEVICE_Init+0x6c>)
 8005ce6:	480d      	ldr	r0, [pc, #52]	; (8005d1c <MX_USB_DEVICE_Init+0x68>)
 8005ce8:	f7ff fb18 	bl	800531c <USBD_RegisterClass>
 8005cec:	2800      	cmp	r0, #0
 8005cee:	d0ed      	beq.n	8005ccc <MX_USB_DEVICE_Init+0x18>
 8005cf0:	f7fa fd7c 	bl	80007ec <Error_Handler>
 8005cf4:	490b      	ldr	r1, [pc, #44]	; (8005d24 <MX_USB_DEVICE_Init+0x70>)
 8005cf6:	4809      	ldr	r0, [pc, #36]	; (8005d1c <MX_USB_DEVICE_Init+0x68>)
 8005cf8:	f7ff fa9e 	bl	8005238 <USBD_CDC_RegisterInterface>
 8005cfc:	2800      	cmp	r0, #0
 8005cfe:	d0ea      	beq.n	8005cd6 <MX_USB_DEVICE_Init+0x22>
 8005d00:	f7fa fd74 	bl	80007ec <Error_Handler>
 8005d04:	4805      	ldr	r0, [pc, #20]	; (8005d1c <MX_USB_DEVICE_Init+0x68>)
 8005d06:	f7ff fb25 	bl	8005354 <USBD_Start>
 8005d0a:	2800      	cmp	r0, #0
 8005d0c:	d0e7      	beq.n	8005cde <MX_USB_DEVICE_Init+0x2a>
 8005d0e:	e8bd 4008 	ldmia.w	sp!, {r3, lr}
 8005d12:	f7fa bd6b 	b.w	80007ec <Error_Handler>
 8005d16:	bf00      	nop
 8005d18:	2000013c 	.word	0x2000013c
 8005d1c:	200030a4 	.word	0x200030a4
 8005d20:	200000a0 	.word	0x200000a0
 8005d24:	20000128 	.word	0x20000128

08005d28 <CDC_DeInit_FS>:
 8005d28:	2000      	movs	r0, #0
 8005d2a:	4770      	bx	lr

08005d2c <CDC_Control_FS>:
 8005d2c:	2000      	movs	r0, #0
 8005d2e:	4770      	bx	lr

08005d30 <CDC_TransmitCplt_FS>:
 8005d30:	2000      	movs	r0, #0
 8005d32:	4770      	bx	lr

08005d34 <CDC_Receive_FS>:
 8005d34:	4820      	ldr	r0, [pc, #128]	; (8005db8 <CDC_Receive_FS+0x84>)
 8005d36:	b538      	push	{r3, r4, r5, lr}
 8005d38:	6943      	ldr	r3, [r0, #20]
 8005d3a:	041a      	lsls	r2, r3, #16
 8005d3c:	43db      	mvns	r3, r3
 8005d3e:	f002 5200 	and.w	r2, r2, #536870912	; 0x20000000
 8005d42:	f403 5300 	and.w	r3, r3, #8192	; 0x2000
 8005d46:	4313      	orrs	r3, r2
 8005d48:	4a1c      	ldr	r2, [pc, #112]	; (8005dbc <CDC_Receive_FS+0x88>)
 8005d4a:	6183      	str	r3, [r0, #24]
 8005d4c:	7c13      	ldrb	r3, [r2, #16]
 8005d4e:	b1fb      	cbz	r3, 8005d90 <CDC_Receive_FS+0x5c>
 8005d50:	2040      	movs	r0, #64	; 0x40
 8005d52:	4686      	mov	lr, r0
 8005d54:	4d1a      	ldr	r5, [pc, #104]	; (8005dc0 <CDC_Receive_FS+0x8c>)
 8005d56:	680a      	ldr	r2, [r1, #0]
 8005d58:	f8b5 c000 	ldrh.w	ip, [r5]
 8005d5c:	eb0c 0302 	add.w	r3, ip, r2
 8005d60:	4473      	add	r3, lr
 8005d62:	f642 61e0 	movw	r1, #12000	; 0x2ee0
 8005d66:	428b      	cmp	r3, r1
 8005d68:	4614      	mov	r4, r2
 8005d6a:	bfc8      	it	gt
 8005d6c:	1acc      	subgt	r4, r1, r3
 8005d6e:	4282      	cmp	r2, r0
 8005d70:	4b14      	ldr	r3, [pc, #80]	; (8005dc4 <CDC_Receive_FS+0x90>)
 8005d72:	d211      	bcs.n	8005d98 <CDC_Receive_FS+0x64>
 8005d74:	881a      	ldrh	r2, [r3, #0]
 8005d76:	4914      	ldr	r1, [pc, #80]	; (8005dc8 <CDC_Receive_FS+0x94>)
 8005d78:	4b14      	ldr	r3, [pc, #80]	; (8005dcc <CDC_Receive_FS+0x98>)
 8005d7a:	4810      	ldr	r0, [pc, #64]	; (8005dbc <CDC_Receive_FS+0x88>)
 8005d7c:	1a89      	subs	r1, r1, r2
 8005d7e:	2201      	movs	r2, #1
 8005d80:	701a      	strb	r2, [r3, #0]
 8005d82:	f7ff fa73 	bl	800526c <USBD_CDC_SetRxBuffer>
 8005d86:	882b      	ldrh	r3, [r5, #0]
 8005d88:	441c      	add	r4, r3
 8005d8a:	2000      	movs	r0, #0
 8005d8c:	802c      	strh	r4, [r5, #0]
 8005d8e:	bd38      	pop	{r3, r4, r5, pc}
 8005d90:	f44f 7000 	mov.w	r0, #512	; 0x200
 8005d94:	4686      	mov	lr, r0
 8005d96:	e7dd      	b.n	8005d54 <CDC_Receive_FS+0x20>
 8005d98:	881b      	ldrh	r3, [r3, #0]
 8005d9a:	490d      	ldr	r1, [pc, #52]	; (8005dd0 <CDC_Receive_FS+0x9c>)
 8005d9c:	4807      	ldr	r0, [pc, #28]	; (8005dbc <CDC_Receive_FS+0x88>)
 8005d9e:	4463      	add	r3, ip
 8005da0:	4423      	add	r3, r4
 8005da2:	4419      	add	r1, r3
 8005da4:	f7ff fa62 	bl	800526c <USBD_CDC_SetRxBuffer>
 8005da8:	4804      	ldr	r0, [pc, #16]	; (8005dbc <CDC_Receive_FS+0x88>)
 8005daa:	f7ff fa87 	bl	80052bc <USBD_CDC_ReceivePacket>
 8005dae:	882b      	ldrh	r3, [r5, #0]
 8005db0:	441c      	add	r4, r3
 8005db2:	2000      	movs	r0, #0
 8005db4:	802c      	strh	r4, [r5, #0]
 8005db6:	bd38      	pop	{r3, r4, r5, pc}
 8005db8:	40020800 	.word	0x40020800
 8005dbc:	200030a4 	.word	0x200030a4
 8005dc0:	200001ae 	.word	0x200001ae
 8005dc4:	200001ac 	.word	0x200001ac
 8005dc8:	200062a0 	.word	0x200062a0
 8005dcc:	200001b4 	.word	0x200001b4
 8005dd0:	200033c0 	.word	0x200033c0

08005dd4 <CDC_Init_FS>:
 8005dd4:	b510      	push	{r4, lr}
 8005dd6:	4c06      	ldr	r4, [pc, #24]	; (8005df0 <CDC_Init_FS+0x1c>)
 8005dd8:	4906      	ldr	r1, [pc, #24]	; (8005df4 <CDC_Init_FS+0x20>)
 8005dda:	2200      	movs	r2, #0
 8005ddc:	4620      	mov	r0, r4
 8005dde:	f7ff fa37 	bl	8005250 <USBD_CDC_SetTxBuffer>
 8005de2:	4905      	ldr	r1, [pc, #20]	; (8005df8 <CDC_Init_FS+0x24>)
 8005de4:	4620      	mov	r0, r4
 8005de6:	f7ff fa41 	bl	800526c <USBD_CDC_SetRxBuffer>
 8005dea:	2000      	movs	r0, #0
 8005dec:	bd10      	pop	{r4, pc}
 8005dee:	bf00      	nop
 8005df0:	200030a4 	.word	0x200030a4
 8005df4:	20003380 	.word	0x20003380
 8005df8:	200033c0 	.word	0x200033c0

08005dfc <CDC_Transmit_FS>:
 8005dfc:	b510      	push	{r4, lr}
 8005dfe:	4c09      	ldr	r4, [pc, #36]	; (8005e24 <CDC_Transmit_FS+0x28>)
 8005e00:	f8d4 32bc 	ldr.w	r3, [r4, #700]	; 0x2bc
 8005e04:	f8d3 3214 	ldr.w	r3, [r3, #532]	; 0x214
 8005e08:	b10b      	cbz	r3, 8005e0e <CDC_Transmit_FS+0x12>
 8005e0a:	2001      	movs	r0, #1
 8005e0c:	bd10      	pop	{r4, pc}
 8005e0e:	460a      	mov	r2, r1
 8005e10:	4601      	mov	r1, r0
 8005e12:	4620      	mov	r0, r4
 8005e14:	f7ff fa1c 	bl	8005250 <USBD_CDC_SetTxBuffer>
 8005e18:	4620      	mov	r0, r4
 8005e1a:	e8bd 4010 	ldmia.w	sp!, {r4, lr}
 8005e1e:	f7ff ba31 	b.w	8005284 <USBD_CDC_TransmitPacket>
 8005e22:	bf00      	nop
 8005e24:	200030a4 	.word	0x200030a4

08005e28 <USBD_FS_DeviceDescriptor>:
 8005e28:	2312      	movs	r3, #18
 8005e2a:	4801      	ldr	r0, [pc, #4]	; (8005e30 <USBD_FS_DeviceDescriptor+0x8>)
 8005e2c:	800b      	strh	r3, [r1, #0]
 8005e2e:	4770      	bx	lr
 8005e30:	20000158 	.word	0x20000158

08005e34 <USBD_FS_LangIDStrDescriptor>:
 8005e34:	2304      	movs	r3, #4
 8005e36:	4801      	ldr	r0, [pc, #4]	; (8005e3c <USBD_FS_LangIDStrDescriptor+0x8>)
 8005e38:	800b      	strh	r3, [r1, #0]
 8005e3a:	4770      	bx	lr
 8005e3c:	2000016c 	.word	0x2000016c

08005e40 <USBD_FS_ManufacturerStrDescriptor>:
 8005e40:	b510      	push	{r4, lr}
 8005e42:	4c04      	ldr	r4, [pc, #16]	; (8005e54 <USBD_FS_ManufacturerStrDescriptor+0x14>)
 8005e44:	4804      	ldr	r0, [pc, #16]	; (8005e58 <USBD_FS_ManufacturerStrDescriptor+0x18>)
 8005e46:	460a      	mov	r2, r1
 8005e48:	4621      	mov	r1, r4
 8005e4a:	f7ff fec5 	bl	8005bd8 <USBD_GetString>
 8005e4e:	4620      	mov	r0, r4
 8005e50:	bd10      	pop	{r4, pc}
 8005e52:	bf00      	nop
 8005e54:	20009180 	.word	0x20009180
 8005e58:	080064b0 	.word	0x080064b0

08005e5c <USBD_FS_ProductStrDescriptor>:
 8005e5c:	b510      	push	{r4, lr}
 8005e5e:	4c04      	ldr	r4, [pc, #16]	; (8005e70 <USBD_FS_ProductStrDescriptor+0x14>)
 8005e60:	4804      	ldr	r0, [pc, #16]	; (8005e74 <USBD_FS_ProductStrDescriptor+0x18>)
 8005e62:	460a      	mov	r2, r1
 8005e64:	4621      	mov	r1, r4
 8005e66:	f7ff feb7 	bl	8005bd8 <USBD_GetString>
 8005e6a:	4620      	mov	r0, r4
 8005e6c:	bd10      	pop	{r4, pc}
 8005e6e:	bf00      	nop
 8005e70:	20009180 	.word	0x20009180
 8005e74:	080064c4 	.word	0x080064c4

08005e78 <USBD_FS_ConfigStrDescriptor>:
 8005e78:	b510      	push	{r4, lr}
 8005e7a:	4c04      	ldr	r4, [pc, #16]	; (8005e8c <USBD_FS_ConfigStrDescriptor+0x14>)
 8005e7c:	4804      	ldr	r0, [pc, #16]	; (8005e90 <USBD_FS_ConfigStrDescriptor+0x18>)
 8005e7e:	460a      	mov	r2, r1
 8005e80:	4621      	mov	r1, r4
 8005e82:	f7ff fea9 	bl	8005bd8 <USBD_GetString>
 8005e86:	4620      	mov	r0, r4
 8005e88:	bd10      	pop	{r4, pc}
 8005e8a:	bf00      	nop
 8005e8c:	20009180 	.word	0x20009180
 8005e90:	080064dc 	.word	0x080064dc

08005e94 <USBD_FS_InterfaceStrDescriptor>:
 8005e94:	b510      	push	{r4, lr}
 8005e96:	4c04      	ldr	r4, [pc, #16]	; (8005ea8 <USBD_FS_InterfaceStrDescriptor+0x14>)
 8005e98:	4804      	ldr	r0, [pc, #16]	; (8005eac <USBD_FS_InterfaceStrDescriptor+0x18>)
 8005e9a:	460a      	mov	r2, r1
 8005e9c:	4621      	mov	r1, r4
 8005e9e:	f7ff fe9b 	bl	8005bd8 <USBD_GetString>
 8005ea2:	4620      	mov	r0, r4
 8005ea4:	bd10      	pop	{r4, pc}
 8005ea6:	bf00      	nop
 8005ea8:	20009180 	.word	0x20009180
 8005eac:	080064e8 	.word	0x080064e8

08005eb0 <USBD_FS_SerialStrDescriptor>:
 8005eb0:	4a45      	ldr	r2, [pc, #276]	; (8005fc8 <USBD_FS_SerialStrDescriptor+0x118>)
 8005eb2:	f8d2 3a10 	ldr.w	r3, [r2, #2576]	; 0xa10
 8005eb6:	f8d2 0a18 	ldr.w	r0, [r2, #2584]	; 0xa18
 8005eba:	f04f 0c1a 	mov.w	ip, #26
 8005ebe:	181b      	adds	r3, r3, r0
 8005ec0:	f8a1 c000 	strh.w	ip, [r1]
 8005ec4:	d101      	bne.n	8005eca <USBD_FS_SerialStrDescriptor+0x1a>
 8005ec6:	4841      	ldr	r0, [pc, #260]	; (8005fcc <USBD_FS_SerialStrDescriptor+0x11c>)
 8005ec8:	4770      	bx	lr
 8005eca:	f8d2 1a14 	ldr.w	r1, [r2, #2580]	; 0xa14
 8005ece:	4a3f      	ldr	r2, [pc, #252]	; (8005fcc <USBD_FS_SerialStrDescriptor+0x11c>)
 8005ed0:	0f18      	lsrs	r0, r3, #28
 8005ed2:	f1b3 4f20 	cmp.w	r3, #2684354560	; 0xa0000000
 8005ed6:	bf2c      	ite	cs
 8005ed8:	3037      	addcs	r0, #55	; 0x37
 8005eda:	3030      	addcc	r0, #48	; 0x30
 8005edc:	7090      	strb	r0, [r2, #2]
 8005ede:	f3c3 6003 	ubfx	r0, r3, #24, #4
 8005ee2:	2809      	cmp	r0, #9
 8005ee4:	bf8c      	ite	hi
 8005ee6:	3037      	addhi	r0, #55	; 0x37
 8005ee8:	3030      	addls	r0, #48	; 0x30
 8005eea:	7110      	strb	r0, [r2, #4]
 8005eec:	f3c3 5003 	ubfx	r0, r3, #20, #4
 8005ef0:	2809      	cmp	r0, #9
 8005ef2:	bf8c      	ite	hi
 8005ef4:	3037      	addhi	r0, #55	; 0x37
 8005ef6:	3030      	addls	r0, #48	; 0x30
 8005ef8:	7190      	strb	r0, [r2, #6]
 8005efa:	f3c3 4003 	ubfx	r0, r3, #16, #4
 8005efe:	2809      	cmp	r0, #9
 8005f00:	bf8c      	ite	hi
 8005f02:	3037      	addhi	r0, #55	; 0x37
 8005f04:	3030      	addls	r0, #48	; 0x30
 8005f06:	7210      	strb	r0, [r2, #8]
 8005f08:	f3c3 3003 	ubfx	r0, r3, #12, #4
 8005f0c:	2809      	cmp	r0, #9
 8005f0e:	bf8c      	ite	hi
 8005f10:	3037      	addhi	r0, #55	; 0x37
 8005f12:	3030      	addls	r0, #48	; 0x30
 8005f14:	7290      	strb	r0, [r2, #10]
 8005f16:	f3c3 2003 	ubfx	r0, r3, #8, #4
 8005f1a:	2809      	cmp	r0, #9
 8005f1c:	bf8c      	ite	hi
 8005f1e:	3037      	addhi	r0, #55	; 0x37
 8005f20:	3030      	addls	r0, #48	; 0x30
 8005f22:	7310      	strb	r0, [r2, #12]
 8005f24:	f3c3 1003 	ubfx	r0, r3, #4, #4
 8005f28:	2809      	cmp	r0, #9
 8005f2a:	f003 030f 	and.w	r3, r3, #15
 8005f2e:	bf8c      	ite	hi
 8005f30:	3037      	addhi	r0, #55	; 0x37
 8005f32:	3030      	addls	r0, #48	; 0x30
 8005f34:	2b09      	cmp	r3, #9
 8005f36:	bf94      	ite	ls
 8005f38:	3330      	addls	r3, #48	; 0x30
 8005f3a:	3337      	addhi	r3, #55	; 0x37
 8005f3c:	7413      	strb	r3, [r2, #16]
 8005f3e:	2300      	movs	r3, #0
 8005f40:	f1b1 4f20 	cmp.w	r1, #2684354560	; 0xa0000000
 8005f44:	7453      	strb	r3, [r2, #17]
 8005f46:	ea4f 7311 	mov.w	r3, r1, lsr #28
 8005f4a:	bf2c      	ite	cs
 8005f4c:	3337      	addcs	r3, #55	; 0x37
 8005f4e:	3330      	addcc	r3, #48	; 0x30
 8005f50:	7493      	strb	r3, [r2, #18]
 8005f52:	f3c1 6303 	ubfx	r3, r1, #24, #4
 8005f56:	2b09      	cmp	r3, #9
 8005f58:	bf8c      	ite	hi
 8005f5a:	3337      	addhi	r3, #55	; 0x37
 8005f5c:	3330      	addls	r3, #48	; 0x30
 8005f5e:	7513      	strb	r3, [r2, #20]
 8005f60:	f3c1 5303 	ubfx	r3, r1, #20, #4
 8005f64:	2b09      	cmp	r3, #9
 8005f66:	f04f 0c00 	mov.w	ip, #0
 8005f6a:	bf8c      	ite	hi
 8005f6c:	3337      	addhi	r3, #55	; 0x37
 8005f6e:	3330      	addls	r3, #48	; 0x30
 8005f70:	f882 c003 	strb.w	ip, [r2, #3]
 8005f74:	f04f 0c00 	mov.w	ip, #0
 8005f78:	f882 c005 	strb.w	ip, [r2, #5]
 8005f7c:	7390      	strb	r0, [r2, #14]
 8005f7e:	f04f 0c00 	mov.w	ip, #0
 8005f82:	2000      	movs	r0, #0
 8005f84:	7593      	strb	r3, [r2, #22]
 8005f86:	f3c1 4303 	ubfx	r3, r1, #16, #4
 8005f8a:	2b09      	cmp	r3, #9
 8005f8c:	f882 c007 	strb.w	ip, [r2, #7]
 8005f90:	73d0      	strb	r0, [r2, #15]
 8005f92:	f04f 0c00 	mov.w	ip, #0
 8005f96:	f04f 0000 	mov.w	r0, #0
 8005f9a:	bf94      	ite	ls
 8005f9c:	3330      	addls	r3, #48	; 0x30
 8005f9e:	3337      	addhi	r3, #55	; 0x37
 8005fa0:	f882 c009 	strb.w	ip, [r2, #9]
 8005fa4:	74d0      	strb	r0, [r2, #19]
 8005fa6:	f04f 0c00 	mov.w	ip, #0
 8005faa:	2000      	movs	r0, #0
 8005fac:	f882 c00b 	strb.w	ip, [r2, #11]
 8005fb0:	7550      	strb	r0, [r2, #21]
 8005fb2:	f04f 0c00 	mov.w	ip, #0
 8005fb6:	2000      	movs	r0, #0
 8005fb8:	7613      	strb	r3, [r2, #24]
 8005fba:	2300      	movs	r3, #0
 8005fbc:	75d0      	strb	r0, [r2, #23]
 8005fbe:	f882 c00d 	strb.w	ip, [r2, #13]
 8005fc2:	4802      	ldr	r0, [pc, #8]	; (8005fcc <USBD_FS_SerialStrDescriptor+0x11c>)
 8005fc4:	7653      	strb	r3, [r2, #25]
 8005fc6:	4770      	bx	lr
 8005fc8:	1fff7000 	.word	0x1fff7000
 8005fcc:	20000170 	.word	0x20000170

08005fd0 <HAL_PCD_MspInit>:
 8005fd0:	b530      	push	{r4, r5, lr}
 8005fd2:	6803      	ldr	r3, [r0, #0]
 8005fd4:	b089      	sub	sp, #36	; 0x24
 8005fd6:	2400      	movs	r4, #0
 8005fd8:	f1b3 4fa0 	cmp.w	r3, #1342177280	; 0x50000000
 8005fdc:	e9cd 4402 	strd	r4, r4, [sp, #8]
 8005fe0:	e9cd 4404 	strd	r4, r4, [sp, #16]
 8005fe4:	9406      	str	r4, [sp, #24]
 8005fe6:	d001      	beq.n	8005fec <HAL_PCD_MspInit+0x1c>
 8005fe8:	b009      	add	sp, #36	; 0x24
 8005fea:	bd30      	pop	{r4, r5, pc}
 8005fec:	4d17      	ldr	r5, [pc, #92]	; (800604c <HAL_PCD_MspInit+0x7c>)
 8005fee:	9400      	str	r4, [sp, #0]
 8005ff0:	6b2b      	ldr	r3, [r5, #48]	; 0x30
 8005ff2:	4817      	ldr	r0, [pc, #92]	; (8006050 <HAL_PCD_MspInit+0x80>)
 8005ff4:	f043 0301 	orr.w	r3, r3, #1
 8005ff8:	632b      	str	r3, [r5, #48]	; 0x30
 8005ffa:	6b2b      	ldr	r3, [r5, #48]	; 0x30
 8005ffc:	f003 0301 	and.w	r3, r3, #1
 8006000:	9300      	str	r3, [sp, #0]
 8006002:	f44f 52c0 	mov.w	r2, #6144	; 0x1800
 8006006:	2302      	movs	r3, #2
 8006008:	e9cd 2302 	strd	r2, r3, [sp, #8]
 800600c:	2303      	movs	r3, #3
 800600e:	a902      	add	r1, sp, #8
 8006010:	9305      	str	r3, [sp, #20]
 8006012:	230a      	movs	r3, #10
 8006014:	9a00      	ldr	r2, [sp, #0]
 8006016:	9306      	str	r3, [sp, #24]
 8006018:	f7fb f8ea 	bl	80011f0 <HAL_GPIO_Init>
 800601c:	6b6b      	ldr	r3, [r5, #52]	; 0x34
 800601e:	f043 0380 	orr.w	r3, r3, #128	; 0x80
 8006022:	636b      	str	r3, [r5, #52]	; 0x34
 8006024:	9401      	str	r4, [sp, #4]
 8006026:	6c6b      	ldr	r3, [r5, #68]	; 0x44
 8006028:	f443 4380 	orr.w	r3, r3, #16384	; 0x4000
 800602c:	646b      	str	r3, [r5, #68]	; 0x44
 800602e:	6c6b      	ldr	r3, [r5, #68]	; 0x44
 8006030:	f403 4380 	and.w	r3, r3, #16384	; 0x4000
 8006034:	4622      	mov	r2, r4
 8006036:	4621      	mov	r1, r4
 8006038:	9301      	str	r3, [sp, #4]
 800603a:	2043      	movs	r0, #67	; 0x43
 800603c:	9b01      	ldr	r3, [sp, #4]
 800603e:	f7fb f871 	bl	8001124 <HAL_NVIC_SetPriority>
 8006042:	2043      	movs	r0, #67	; 0x43
 8006044:	f7fb f8ac 	bl	80011a0 <HAL_NVIC_EnableIRQ>
 8006048:	b009      	add	sp, #36	; 0x24
 800604a:	bd30      	pop	{r4, r5, pc}
 800604c:	40023800 	.word	0x40023800
 8006050:	40020000 	.word	0x40020000

08006054 <HAL_PCD_SetupStageCallback>:
 8006054:	f200 41c4 	addw	r1, r0, #1220	; 0x4c4
 8006058:	f8d0 0508 	ldr.w	r0, [r0, #1288]	; 0x508
 800605c:	f7ff b98e 	b.w	800537c <USBD_LL_SetupStage>

08006060 <HAL_PCD_DataOutStageCallback>:
 8006060:	eb01 03c1 	add.w	r3, r1, r1, lsl #3
 8006064:	eb00 0383 	add.w	r3, r0, r3, lsl #2
 8006068:	f8d0 0508 	ldr.w	r0, [r0, #1288]	; 0x508
 800606c:	f8d3 228c 	ldr.w	r2, [r3, #652]	; 0x28c
 8006070:	f7ff b9b4 	b.w	80053dc <USBD_LL_DataOutStage>

08006074 <HAL_PCD_DataInStageCallback>:
 8006074:	eb01 03c1 	add.w	r3, r1, r1, lsl #3
 8006078:	eb00 0383 	add.w	r3, r0, r3, lsl #2
 800607c:	f8d0 0508 	ldr.w	r0, [r0, #1288]	; 0x508
 8006080:	6cda      	ldr	r2, [r3, #76]	; 0x4c
 8006082:	f7ff b9e5 	b.w	8005450 <USBD_LL_DataInStage>
 8006086:	bf00      	nop

08006088 <HAL_PCD_SOFCallback>:
 8006088:	f8d0 0508 	ldr.w	r0, [r0, #1288]	; 0x508
 800608c:	f7ff ba84 	b.w	8005598 <USBD_LL_SOF>

08006090 <HAL_PCD_ResetCallback>:
 8006090:	68c3      	ldr	r3, [r0, #12]
 8006092:	2b02      	cmp	r3, #2
 8006094:	b510      	push	{r4, lr}
 8006096:	4604      	mov	r4, r0
 8006098:	d001      	beq.n	800609e <HAL_PCD_ResetCallback+0xe>
 800609a:	f7fa fba7 	bl	80007ec <Error_Handler>
 800609e:	f8d4 0508 	ldr.w	r0, [r4, #1288]	; 0x508
 80060a2:	2101      	movs	r1, #1
 80060a4:	f7ff fa5c 	bl	8005560 <USBD_LL_SetSpeed>
 80060a8:	f8d4 0508 	ldr.w	r0, [r4, #1288]	; 0x508
 80060ac:	e8bd 4010 	ldmia.w	sp!, {r4, lr}
 80060b0:	f7ff ba28 	b.w	8005504 <USBD_LL_Reset>

080060b4 <HAL_PCD_SuspendCallback>:
 80060b4:	b510      	push	{r4, lr}
 80060b6:	4604      	mov	r4, r0
 80060b8:	f8d0 0508 	ldr.w	r0, [r0, #1288]	; 0x508
 80060bc:	f7ff fa54 	bl	8005568 <USBD_LL_Suspend>
 80060c0:	6822      	ldr	r2, [r4, #0]
 80060c2:	f8d2 3e00 	ldr.w	r3, [r2, #3584]	; 0xe00
 80060c6:	f043 0301 	orr.w	r3, r3, #1
 80060ca:	f8c2 3e00 	str.w	r3, [r2, #3584]	; 0xe00
 80060ce:	6a23      	ldr	r3, [r4, #32]
 80060d0:	b123      	cbz	r3, 80060dc <HAL_PCD_SuspendCallback+0x28>
 80060d2:	4a03      	ldr	r2, [pc, #12]	; (80060e0 <HAL_PCD_SuspendCallback+0x2c>)
 80060d4:	6913      	ldr	r3, [r2, #16]
 80060d6:	f043 0306 	orr.w	r3, r3, #6
 80060da:	6113      	str	r3, [r2, #16]
 80060dc:	bd10      	pop	{r4, pc}
 80060de:	bf00      	nop
 80060e0:	e000ed00 	.word	0xe000ed00

080060e4 <HAL_PCD_ResumeCallback>:
 80060e4:	f8d0 0508 	ldr.w	r0, [r0, #1288]	; 0x508
 80060e8:	f7ff ba4a 	b.w	8005580 <USBD_LL_Resume>

080060ec <HAL_PCD_ISOOUTIncompleteCallback>:
 80060ec:	f8d0 0508 	ldr.w	r0, [r0, #1288]	; 0x508
 80060f0:	f7ff ba78 	b.w	80055e4 <USBD_LL_IsoOUTIncomplete>

080060f4 <HAL_PCD_ISOINIncompleteCallback>:
 80060f4:	f8d0 0508 	ldr.w	r0, [r0, #1288]	; 0x508
 80060f8:	f7ff ba5e 	b.w	80055b8 <USBD_LL_IsoINIncomplete>

080060fc <HAL_PCD_ConnectCallback>:
 80060fc:	f8d0 0508 	ldr.w	r0, [r0, #1288]	; 0x508
 8006100:	f7ff ba86 	b.w	8005610 <USBD_LL_DevConnected>

08006104 <HAL_PCD_DisconnectCallback>:
 8006104:	f8d0 0508 	ldr.w	r0, [r0, #1288]	; 0x508
 8006108:	f7ff ba84 	b.w	8005614 <USBD_LL_DevDisconnected>
 800610c:	0000      	movs	r0, r0
	...

08006110 <USBD_LL_Init>:
 8006110:	7802      	ldrb	r2, [r0, #0]
 8006112:	b10a      	cbz	r2, 8006118 <USBD_LL_Init+0x8>
 8006114:	2000      	movs	r0, #0
 8006116:	4770      	bx	lr
 8006118:	ed9f 7b17 	vldr	d7, [pc, #92]	; 8006178 <USBD_LL_Init+0x68>
 800611c:	4b1a      	ldr	r3, [pc, #104]	; (8006188 <USBD_LL_Init+0x78>)
 800611e:	b510      	push	{r4, lr}
 8006120:	ed83 7b06 	vstr	d7, [r3, #24]
 8006124:	ed9f 7b16 	vldr	d7, [pc, #88]	; 8006180 <USBD_LL_Init+0x70>
 8006128:	f04f 41a0 	mov.w	r1, #1342177280	; 0x50000000
 800612c:	f8c3 0508 	str.w	r0, [r3, #1288]	; 0x508
 8006130:	2404      	movs	r4, #4
 8006132:	f8c0 32c8 	str.w	r3, [r0, #712]	; 0x2c8
 8006136:	6019      	str	r1, [r3, #0]
 8006138:	ed83 7b08 	vstr	d7, [r3, #32]
 800613c:	2102      	movs	r1, #2
 800613e:	4618      	mov	r0, r3
 8006140:	e9c3 220b 	strd	r2, r2, [r3, #44]	; 0x2c
 8006144:	605c      	str	r4, [r3, #4]
 8006146:	60d9      	str	r1, [r3, #12]
 8006148:	611a      	str	r2, [r3, #16]
 800614a:	f7fb f945 	bl	80013d8 <HAL_PCD_Init>
 800614e:	b978      	cbnz	r0, 8006170 <USBD_LL_Init+0x60>
 8006150:	2180      	movs	r1, #128	; 0x80
 8006152:	480d      	ldr	r0, [pc, #52]	; (8006188 <USBD_LL_Init+0x78>)
 8006154:	f7fc f8f4 	bl	8002340 <HAL_PCDEx_SetRxFiFo>
 8006158:	2240      	movs	r2, #64	; 0x40
 800615a:	2100      	movs	r1, #0
 800615c:	480a      	ldr	r0, [pc, #40]	; (8006188 <USBD_LL_Init+0x78>)
 800615e:	f7fc f8c9 	bl	80022f4 <HAL_PCDEx_SetTxFiFo>
 8006162:	2280      	movs	r2, #128	; 0x80
 8006164:	2101      	movs	r1, #1
 8006166:	4808      	ldr	r0, [pc, #32]	; (8006188 <USBD_LL_Init+0x78>)
 8006168:	f7fc f8c4 	bl	80022f4 <HAL_PCDEx_SetTxFiFo>
 800616c:	2000      	movs	r0, #0
 800616e:	bd10      	pop	{r4, pc}
 8006170:	f7fa fb3c 	bl	80007ec <Error_Handler>
 8006174:	e7ec      	b.n	8006150 <USBD_LL_Init+0x40>
 8006176:	bf00      	nop
 8006178:	00000002 	.word	0x00000002
	...
 8006188:	20009380 	.word	0x20009380

0800618c <USBD_LL_Start>:
 800618c:	b508      	push	{r3, lr}
 800618e:	f8d0 02c8 	ldr.w	r0, [r0, #712]	; 0x2c8
 8006192:	f7fb f9af 	bl	80014f4 <HAL_PCD_Start>
 8006196:	2803      	cmp	r0, #3
 8006198:	bf96      	itet	ls
 800619a:	4b02      	ldrls	r3, [pc, #8]	; (80061a4 <USBD_LL_Start+0x18>)
 800619c:	2003      	movhi	r0, #3
 800619e:	5c18      	ldrbls	r0, [r3, r0]
 80061a0:	bd08      	pop	{r3, pc}
 80061a2:	bf00      	nop
 80061a4:	080064f8 	.word	0x080064f8

080061a8 <USBD_LL_OpenEP>:
 80061a8:	4694      	mov	ip, r2
 80061aa:	b508      	push	{r3, lr}
 80061ac:	461a      	mov	r2, r3
 80061ae:	f8d0 02c8 	ldr.w	r0, [r0, #712]	; 0x2c8
 80061b2:	4663      	mov	r3, ip
 80061b4:	f7fb ff5c 	bl	8002070 <HAL_PCD_EP_Open>
 80061b8:	2803      	cmp	r0, #3
 80061ba:	bf96      	itet	ls
 80061bc:	4b01      	ldrls	r3, [pc, #4]	; (80061c4 <USBD_LL_OpenEP+0x1c>)
 80061be:	2003      	movhi	r0, #3
 80061c0:	5c18      	ldrbls	r0, [r3, r0]
 80061c2:	bd08      	pop	{r3, pc}
 80061c4:	080064f8 	.word	0x080064f8

080061c8 <USBD_LL_CloseEP>:
 80061c8:	b508      	push	{r3, lr}
 80061ca:	f8d0 02c8 	ldr.w	r0, [r0, #712]	; 0x2c8
 80061ce:	f7fb ff8d 	bl	80020ec <HAL_PCD_EP_Close>
 80061d2:	2803      	cmp	r0, #3
 80061d4:	bf96      	itet	ls
 80061d6:	4b02      	ldrls	r3, [pc, #8]	; (80061e0 <USBD_LL_CloseEP+0x18>)
 80061d8:	2003      	movhi	r0, #3
 80061da:	5c18      	ldrbls	r0, [r3, r0]
 80061dc:	bd08      	pop	{r3, pc}
 80061de:	bf00      	nop
 80061e0:	080064f8 	.word	0x080064f8

080061e4 <USBD_LL_StallEP>:
 80061e4:	b508      	push	{r3, lr}
 80061e6:	f8d0 02c8 	ldr.w	r0, [r0, #712]	; 0x2c8
 80061ea:	f7fc f807 	bl	80021fc <HAL_PCD_EP_SetStall>
 80061ee:	2803      	cmp	r0, #3
 80061f0:	bf96      	itet	ls
 80061f2:	4b02      	ldrls	r3, [pc, #8]	; (80061fc <USBD_LL_StallEP+0x18>)
 80061f4:	2003      	movhi	r0, #3
 80061f6:	5c18      	ldrbls	r0, [r3, r0]
 80061f8:	bd08      	pop	{r3, pc}
 80061fa:	bf00      	nop
 80061fc:	080064f8 	.word	0x080064f8

08006200 <USBD_LL_ClearStallEP>:
 8006200:	b508      	push	{r3, lr}
 8006202:	f8d0 02c8 	ldr.w	r0, [r0, #712]	; 0x2c8
 8006206:	f7fc f83d 	bl	8002284 <HAL_PCD_EP_ClrStall>
 800620a:	2803      	cmp	r0, #3
 800620c:	bf96      	itet	ls
 800620e:	4b02      	ldrls	r3, [pc, #8]	; (8006218 <USBD_LL_ClearStallEP+0x18>)
 8006210:	2003      	movhi	r0, #3
 8006212:	5c18      	ldrbls	r0, [r3, r0]
 8006214:	bd08      	pop	{r3, pc}
 8006216:	bf00      	nop
 8006218:	080064f8 	.word	0x080064f8

0800621c <USBD_LL_IsStallEP>:
 800621c:	060a      	lsls	r2, r1, #24
 800621e:	f8d0 32c8 	ldr.w	r3, [r0, #712]	; 0x2c8
 8006222:	d406      	bmi.n	8006232 <USBD_LL_IsStallEP+0x16>
 8006224:	eb01 01c1 	add.w	r1, r1, r1, lsl #3
 8006228:	eb03 0381 	add.w	r3, r3, r1, lsl #2
 800622c:	f893 027e 	ldrb.w	r0, [r3, #638]	; 0x27e
 8006230:	4770      	bx	lr
 8006232:	f001 017f 	and.w	r1, r1, #127	; 0x7f
 8006236:	eb01 01c1 	add.w	r1, r1, r1, lsl #3
 800623a:	eb03 0381 	add.w	r3, r3, r1, lsl #2
 800623e:	f893 003e 	ldrb.w	r0, [r3, #62]	; 0x3e
 8006242:	4770      	bx	lr

08006244 <USBD_LL_SetUSBAddress>:
 8006244:	b508      	push	{r3, lr}
 8006246:	f8d0 02c8 	ldr.w	r0, [r0, #712]	; 0x2c8
 800624a:	f7fb fefd 	bl	8002048 <HAL_PCD_SetAddress>
 800624e:	2803      	cmp	r0, #3
 8006250:	bf96      	itet	ls
 8006252:	4b02      	ldrls	r3, [pc, #8]	; (800625c <USBD_LL_SetUSBAddress+0x18>)
 8006254:	2003      	movhi	r0, #3
 8006256:	5c18      	ldrbls	r0, [r3, r0]
 8006258:	bd08      	pop	{r3, pc}
 800625a:	bf00      	nop
 800625c:	080064f8 	.word	0x080064f8

08006260 <USBD_LL_Transmit>:
 8006260:	b508      	push	{r3, lr}
 8006262:	f8d0 02c8 	ldr.w	r0, [r0, #712]	; 0x2c8
 8006266:	f7fb ffa1 	bl	80021ac <HAL_PCD_EP_Transmit>
 800626a:	2803      	cmp	r0, #3
 800626c:	bf96      	itet	ls
 800626e:	4b02      	ldrls	r3, [pc, #8]	; (8006278 <USBD_LL_Transmit+0x18>)
 8006270:	2003      	movhi	r0, #3
 8006272:	5c18      	ldrbls	r0, [r3, r0]
 8006274:	bd08      	pop	{r3, pc}
 8006276:	bf00      	nop
 8006278:	080064f8 	.word	0x080064f8

0800627c <USBD_LL_PrepareReceive>:
 800627c:	b508      	push	{r3, lr}
 800627e:	f8d0 02c8 	ldr.w	r0, [r0, #712]	; 0x2c8
 8006282:	f7fb ff61 	bl	8002148 <HAL_PCD_EP_Receive>
 8006286:	2803      	cmp	r0, #3
 8006288:	bf96      	itet	ls
 800628a:	4b02      	ldrls	r3, [pc, #8]	; (8006294 <USBD_LL_PrepareReceive+0x18>)
 800628c:	2003      	movhi	r0, #3
 800628e:	5c18      	ldrbls	r0, [r3, r0]
 8006290:	bd08      	pop	{r3, pc}
 8006292:	bf00      	nop
 8006294:	080064f8 	.word	0x080064f8

08006298 <USBD_LL_GetRxDataSize>:
 8006298:	f8d0 02c8 	ldr.w	r0, [r0, #712]	; 0x2c8
 800629c:	f7fb bf7c 	b.w	8002198 <HAL_PCD_EP_GetRxCount>

080062a0 <USBD_static_malloc>:
 80062a0:	4800      	ldr	r0, [pc, #0]	; (80062a4 <USBD_static_malloc+0x4>)
 80062a2:	4770      	bx	lr
 80062a4:	2000988c 	.word	0x2000988c

080062a8 <USBD_static_free>:
 80062a8:	4770      	bx	lr
 80062aa:	bf00      	nop

080062ac <__utoa>:
 80062ac:	b5f0      	push	{r4, r5, r6, r7, lr}
 80062ae:	4c1f      	ldr	r4, [pc, #124]	; (800632c <__utoa+0x80>)
 80062b0:	b08b      	sub	sp, #44	; 0x2c
 80062b2:	4605      	mov	r5, r0
 80062b4:	460b      	mov	r3, r1
 80062b6:	466e      	mov	r6, sp
 80062b8:	f104 0c20 	add.w	ip, r4, #32
 80062bc:	6820      	ldr	r0, [r4, #0]
 80062be:	6861      	ldr	r1, [r4, #4]
 80062c0:	4637      	mov	r7, r6
 80062c2:	c703      	stmia	r7!, {r0, r1}
 80062c4:	3408      	adds	r4, #8
 80062c6:	4564      	cmp	r4, ip
 80062c8:	463e      	mov	r6, r7
 80062ca:	d1f7      	bne.n	80062bc <__utoa+0x10>
 80062cc:	7921      	ldrb	r1, [r4, #4]
 80062ce:	7139      	strb	r1, [r7, #4]
 80062d0:	1e91      	subs	r1, r2, #2
 80062d2:	6820      	ldr	r0, [r4, #0]
 80062d4:	6038      	str	r0, [r7, #0]
 80062d6:	2922      	cmp	r1, #34	; 0x22
 80062d8:	f04f 0100 	mov.w	r1, #0
 80062dc:	d904      	bls.n	80062e8 <__utoa+0x3c>
 80062de:	7019      	strb	r1, [r3, #0]
 80062e0:	460b      	mov	r3, r1
 80062e2:	4618      	mov	r0, r3
 80062e4:	b00b      	add	sp, #44	; 0x2c
 80062e6:	bdf0      	pop	{r4, r5, r6, r7, pc}
 80062e8:	1e58      	subs	r0, r3, #1
 80062ea:	4684      	mov	ip, r0
 80062ec:	fbb5 f7f2 	udiv	r7, r5, r2
 80062f0:	fb02 5617 	mls	r6, r2, r7, r5
 80062f4:	3628      	adds	r6, #40	; 0x28
 80062f6:	446e      	add	r6, sp
 80062f8:	460c      	mov	r4, r1
 80062fa:	f816 6c28 	ldrb.w	r6, [r6, #-40]
 80062fe:	f80c 6f01 	strb.w	r6, [ip, #1]!
 8006302:	462e      	mov	r6, r5
 8006304:	42b2      	cmp	r2, r6
 8006306:	f101 0101 	add.w	r1, r1, #1
 800630a:	463d      	mov	r5, r7
 800630c:	d9ee      	bls.n	80062ec <__utoa+0x40>
 800630e:	2200      	movs	r2, #0
 8006310:	545a      	strb	r2, [r3, r1]
 8006312:	1919      	adds	r1, r3, r4
 8006314:	1aa5      	subs	r5, r4, r2
 8006316:	42aa      	cmp	r2, r5
 8006318:	dae3      	bge.n	80062e2 <__utoa+0x36>
 800631a:	f810 5f01 	ldrb.w	r5, [r0, #1]!
 800631e:	780e      	ldrb	r6, [r1, #0]
 8006320:	7006      	strb	r6, [r0, #0]
 8006322:	3201      	adds	r2, #1
 8006324:	f801 5901 	strb.w	r5, [r1], #-1
 8006328:	e7f4      	b.n	8006314 <__utoa+0x68>
 800632a:	bf00      	nop
 800632c:	080064fc 	.word	0x080064fc

08006330 <utoa>:
 8006330:	f7ff bfbc 	b.w	80062ac <__utoa>

08006334 <memset>:
 8006334:	4402      	add	r2, r0
 8006336:	4603      	mov	r3, r0
 8006338:	4293      	cmp	r3, r2
 800633a:	d100      	bne.n	800633e <memset+0xa>
 800633c:	4770      	bx	lr
 800633e:	f803 1b01 	strb.w	r1, [r3], #1
 8006342:	e7f9      	b.n	8006338 <memset+0x4>

08006344 <__libc_init_array>:
 8006344:	b570      	push	{r4, r5, r6, lr}
 8006346:	4d0d      	ldr	r5, [pc, #52]	; (800637c <__libc_init_array+0x38>)
 8006348:	4c0d      	ldr	r4, [pc, #52]	; (8006380 <__libc_init_array+0x3c>)
 800634a:	1b64      	subs	r4, r4, r5
 800634c:	10a4      	asrs	r4, r4, #2
 800634e:	2600      	movs	r6, #0
 8006350:	42a6      	cmp	r6, r4
 8006352:	d109      	bne.n	8006368 <__libc_init_array+0x24>
 8006354:	4d0b      	ldr	r5, [pc, #44]	; (8006384 <__libc_init_array+0x40>)
 8006356:	4c0c      	ldr	r4, [pc, #48]	; (8006388 <__libc_init_array+0x44>)
 8006358:	f000 f826 	bl	80063a8 <_init>
 800635c:	1b64      	subs	r4, r4, r5
 800635e:	10a4      	asrs	r4, r4, #2
 8006360:	2600      	movs	r6, #0
 8006362:	42a6      	cmp	r6, r4
 8006364:	d105      	bne.n	8006372 <__libc_init_array+0x2e>
 8006366:	bd70      	pop	{r4, r5, r6, pc}
 8006368:	f855 3b04 	ldr.w	r3, [r5], #4
 800636c:	4798      	blx	r3
 800636e:	3601      	adds	r6, #1
 8006370:	e7ee      	b.n	8006350 <__libc_init_array+0xc>
 8006372:	f855 3b04 	ldr.w	r3, [r5], #4
 8006376:	4798      	blx	r3
 8006378:	3601      	adds	r6, #1
 800637a:	e7f2      	b.n	8006362 <__libc_init_array+0x1e>
 800637c:	08006524 	.word	0x08006524
 8006380:	08006524 	.word	0x08006524
 8006384:	08006524 	.word	0x08006524
 8006388:	08006528 	.word	0x08006528

0800638c <memcpy>:
 800638c:	440a      	add	r2, r1
 800638e:	4291      	cmp	r1, r2
 8006390:	f100 33ff 	add.w	r3, r0, #4294967295
 8006394:	d100      	bne.n	8006398 <memcpy+0xc>
 8006396:	4770      	bx	lr
 8006398:	b510      	push	{r4, lr}
 800639a:	f811 4b01 	ldrb.w	r4, [r1], #1
 800639e:	f803 4f01 	strb.w	r4, [r3, #1]!
 80063a2:	4291      	cmp	r1, r2
 80063a4:	d1f9      	bne.n	800639a <memcpy+0xe>
 80063a6:	bd10      	pop	{r4, pc}

080063a8 <_init>:
 80063a8:	b5f8      	push	{r3, r4, r5, r6, r7, lr}
 80063aa:	bf00      	nop
 80063ac:	bcf8      	pop	{r3, r4, r5, r6, r7}
 80063ae:	bc08      	pop	{r3}
 80063b0:	469e      	mov	lr, r3
 80063b2:	4770      	bx	lr

080063b4 <_fini>:
 80063b4:	b5f8      	push	{r3, r4, r5, r6, r7, lr}
 80063b6:	bf00      	nop
 80063b8:	bcf8      	pop	{r3, r4, r5, r6, r7}
 80063ba:	bc08      	pop	{r3}
 80063bc:	469e      	mov	lr, r3
 80063be:	4770      	bx	lr
